
IMU_Kalman.elf:     file format elf32-avr

Sections:
Idx Name          Size      VMA       LMA       File off  Algn
  0 .data         00000252  00800100  000046ce  00004762  2**0
                  CONTENTS, ALLOC, LOAD, DATA
  1 .text         000046ce  00000000  00000000  00000094  2**1
                  CONTENTS, ALLOC, LOAD, READONLY, CODE
  2 .bss          000002e4  00800352  00800352  000049b4  2**0
                  ALLOC
  3 .debug_aranges 00000978  00000000  00000000  000049b4  2**0
                  CONTENTS, READONLY, DEBUGGING
  4 .debug_pubnames 00001b9b  00000000  00000000  0000532c  2**0
                  CONTENTS, READONLY, DEBUGGING
  5 .debug_info   0000c9be  00000000  00000000  00006ec7  2**0
                  CONTENTS, READONLY, DEBUGGING
  6 .debug_abbrev 000023d6  00000000  00000000  00013885  2**0
                  CONTENTS, READONLY, DEBUGGING
  7 .debug_line   0000621a  00000000  00000000  00015c5b  2**0
                  CONTENTS, READONLY, DEBUGGING
  8 .debug_frame  00001170  00000000  00000000  0001be78  2**2
                  CONTENTS, READONLY, DEBUGGING
  9 .debug_str    00003140  00000000  00000000  0001cfe8  2**0
                  CONTENTS, READONLY, DEBUGGING
 10 .debug_loc    0000577f  00000000  00000000  00020128  2**0
                  CONTENTS, READONLY, DEBUGGING
 11 .debug_ranges 000008f0  00000000  00000000  000258a7  2**0
                  CONTENTS, READONLY, DEBUGGING

Disassembly of section .text:

00000000 <__vectors>:
  // set address of targeted slave
  txAddress = address;
  // reset tx buffer iterator vars
  txBufferIndex = 0;
  txBufferLength = 0;
}
       0:	0c 94 66 00 	jmp	0xcc	; 0xcc <__ctors_end>
}

void SPIClass::setDataMode(uint8_t mode)
{
  SPCR = (SPCR & ~SPI_MODE_MASK) | mode;
}
       4:	0c 94 f1 20 	jmp	0x41e2	; 0x41e2 <__vector_1>
	datacount = 0;						// Initial value of 0.  this counter increments whenever new data is available, and decrements when it is read
	identity = 0;						// Initial value of 0.  stores the identity code of the MPU6000 processor
	Gyro_Select = SEL_GYRO_DEFAULT;		// Initial value of default.  stores the gyroscope scale selection
	Accel_Select = SEL_ACCEL_DEFAULT;	// Initial value of default.  stores the accelerometer scale selection
	return;
}
       8:	0c 94 1e 21 	jmp	0x423c	; 0x423c <__vector_2>
	est_cov_aposteriori[1] = 0;				// Initial value of 0.  a-posteriori estimate covariance matrix (calculated after estimates are updated with measurements)
	est_cov_aposteriori[2] = 0;				// Initial value of 0.  a-posteriori estimate covariance matrix (calculated after estimates are updated with measurements)
	est_cov_aposteriori[3] = 0;				// Initial value of 0.  a-posteriori estimate covariance matrix (calculated after estimates are updated with measurements)

	return;
} // end of GyroKalman()
       c:	0c 94 8e 00 	jmp	0x11c	; 0x11c <__bad_interrupt>
 * Description:	Increments counter which tells new data is ready
 */
void HMC5883::data_int(void) {
	datacount++;
	return;
}
      10:	0c 94 8e 00 	jmp	0x11c	; 0x11c <__bad_interrupt>

HardwareSerial::HardwareSerial(ring_buffer *rx_buffer, ring_buffer *tx_buffer,
  volatile uint8_t *ubrrh, volatile uint8_t *ubrrl,
  volatile uint8_t *ucsra, volatile uint8_t *ucsrb,
  volatile uint8_t *ucsrc, volatile uint8_t *udr,
  uint8_t rxen, uint8_t txen, uint8_t rxcie, uint8_t udrie, uint8_t u2x)
      14:	0c 94 8e 00 	jmp	0x11c	; 0x11c <__bad_interrupt>
    n += write(*buffer++);
  }
  return n;
}

size_t Print::print(const __FlashStringHelper *ifsh)
      18:	0c 94 8e 00 	jmp	0x11c	; 0x11c <__bad_interrupt>
#endif
    }
  }
}

void detachInterrupt(uint8_t interruptNum) {
      1c:	0c 94 8e 00 	jmp	0x11c	; 0x11c <__bad_interrupt>
	timer0_millis = m;
	timer0_overflow_count++;
}

unsigned long millis()
{
      20:	0c 94 8e 00 	jmp	0x11c	; 0x11c <__bad_interrupt>

	SREG = oldSREG;
}

int digitalRead(uint8_t pin)
{
      24:	0c 94 8e 00 	jmp	0x11c	; 0x11c <__bad_interrupt>
      28:	0c 94 8e 00 	jmp	0x11c	; 0x11c <__bad_interrupt>
      2c:	0c 94 8e 00 	jmp	0x11c	; 0x11c <__bad_interrupt>
      30:	0c 94 8e 00 	jmp	0x11c	; 0x11c <__bad_interrupt>
      34:	0c 94 8e 00 	jmp	0x11c	; 0x11c <__bad_interrupt>
      38:	0c 94 8e 00 	jmp	0x11c	; 0x11c <__bad_interrupt>
      3c:	0c 94 8e 00 	jmp	0x11c	; 0x11c <__bad_interrupt>
      40:	0c 94 5a 21 	jmp	0x42b4	; 0x42b4 <__vector_16>
      44:	0c 94 8e 00 	jmp	0x11c	; 0x11c <__bad_interrupt>
      48:	0c 94 7c 1d 	jmp	0x3af8	; 0x3af8 <__vector_18>
      4c:	0c 94 ca 1d 	jmp	0x3b94	; 0x3b94 <__vector_19>
      50:	0c 94 8e 00 	jmp	0x11c	; 0x11c <__bad_interrupt>
      54:	0c 94 8e 00 	jmp	0x11c	; 0x11c <__bad_interrupt>
      58:	0c 94 8e 00 	jmp	0x11c	; 0x11c <__bad_interrupt>
      5c:	0c 94 8e 00 	jmp	0x11c	; 0x11c <__bad_interrupt>
      60:	0c 94 6f 01 	jmp	0x2de	; 0x2de <__vector_24>
      64:	0c 94 8e 00 	jmp	0x11c	; 0x11c <__bad_interrupt>

00000068 <port_to_mode_PGM>:
      68:	00 00 00 00 24 00 27 00 2a 00                       ....$.'.*.

00000072 <port_to_output_PGM>:
      72:	00 00 00 00 25 00 28 00 2b 00                       ....%.(.+.

0000007c <port_to_input_PGM>:
      7c:	00 00 00 00 23 00 26 00 29 00                       ....#.&.).

00000086 <digital_pin_to_port_PGM>:
      86:	04 04 04 04 04 04 04 04 02 02 02 02 02 02 03 03     ................
      96:	03 03 03 03                                         ....

0000009a <digital_pin_to_bit_mask_PGM>:
      9a:	01 02 04 08 10 20 40 80 01 02 04 08 10 20 01 02     ..... @...... ..
      aa:	04 08 10 20                                         ... 

000000ae <digital_pin_to_timer_PGM>:
      ae:	00 00 00 07 00 02 01 00 00 03 04 06 00 00 00 00     ................
      be:	00 00 00 00                                         ....

000000c2 <__ctors_start>:
      c2:	62 07       	cpc	r22, r18
      c4:	e4 08       	sbc	r14, r4
      c6:	58 0e       	add	r5, r24
      c8:	97 14       	cp	r9, r7
      ca:	36 1f       	adc	r19, r22

000000cc <__ctors_end>:
      cc:	11 24       	eor	r1, r1
      ce:	1f be       	out	0x3f, r1	; 63
      d0:	cf ef       	ldi	r28, 0xFF	; 255
      d2:	d8 e0       	ldi	r29, 0x08	; 8
      d4:	de bf       	out	0x3e, r29	; 62
      d6:	cd bf       	out	0x3d, r28	; 61

000000d8 <__do_copy_data>:
      d8:	13 e0       	ldi	r17, 0x03	; 3
      da:	a0 e0       	ldi	r26, 0x00	; 0
      dc:	b1 e0       	ldi	r27, 0x01	; 1
      de:	ee ec       	ldi	r30, 0xCE	; 206
      e0:	f6 e4       	ldi	r31, 0x46	; 70
      e2:	02 c0       	rjmp	.+4      	; 0xe8 <.do_copy_data_start>

000000e4 <.do_copy_data_loop>:
      e4:	05 90       	lpm	r0, Z+
      e6:	0d 92       	st	X+, r0

000000e8 <.do_copy_data_start>:
      e8:	a2 35       	cpi	r26, 0x52	; 82
      ea:	b1 07       	cpc	r27, r17
      ec:	d9 f7       	brne	.-10     	; 0xe4 <.do_copy_data_loop>

000000ee <__do_clear_bss>:
      ee:	16 e0       	ldi	r17, 0x06	; 6
      f0:	a2 e5       	ldi	r26, 0x52	; 82
      f2:	b3 e0       	ldi	r27, 0x03	; 3
      f4:	01 c0       	rjmp	.+2      	; 0xf8 <.do_clear_bss_start>

000000f6 <.do_clear_bss_loop>:
      f6:	1d 92       	st	X+, r1

000000f8 <.do_clear_bss_start>:
      f8:	a6 33       	cpi	r26, 0x36	; 54
      fa:	b1 07       	cpc	r27, r17
      fc:	e1 f7       	brne	.-8      	; 0xf6 <.do_clear_bss_loop>

000000fe <__do_global_ctors>:
      fe:	10 e0       	ldi	r17, 0x00	; 0
     100:	cc ec       	ldi	r28, 0xCC	; 204
     102:	d0 e0       	ldi	r29, 0x00	; 0
     104:	04 c0       	rjmp	.+8      	; 0x10e <.do_global_ctors_start>

00000106 <.do_global_ctors_loop>:
     106:	22 97       	sbiw	r28, 0x02	; 2
     108:	fe 01       	movw	r30, r28
     10a:	0e 94 61 23 	call	0x46c2	; 0x46c2 <__tablejump__>

0000010e <.do_global_ctors_start>:
     10e:	c2 3c       	cpi	r28, 0xC2	; 194
     110:	d1 07       	cpc	r29, r17
     112:	c9 f7       	brne	.-14     	; 0x106 <.do_global_ctors_loop>
     114:	0e 94 4b 21 	call	0x4296	; 0x4296 <main>
     118:	0c 94 65 23 	jmp	0x46ca	; 0x46ca <_exit>

0000011c <__bad_interrupt>:
     11c:	0c 94 00 00 	jmp	0	; 0x0 <__vectors>

00000120 <twi_setAddress>:
 * Output   none
 */
void twi_setAddress(uint8_t address)
{
  // set twi slave address (skip over TWGCE bit)
  TWAR = address << 1;
     120:	88 0f       	add	r24, r24
     122:	80 93 ba 00 	sts	0x00BA, r24
}
     126:	08 95       	ret

00000128 <twi_readFrom>:
 *          length: number of bytes to read into array
 *          sendStop: Boolean indicating whether to send a stop at the end
 * Output   number of bytes read
 */
uint8_t twi_readFrom(uint8_t address, uint8_t* data, uint8_t length, uint8_t sendStop)
{
     128:	38 2f       	mov	r19, r24
  uint8_t i;

  // ensure data will fit into buffer
  if(TWI_BUFFER_LENGTH < length){
     12a:	41 32       	cpi	r20, 0x21	; 33
     12c:	10 f0       	brcs	.+4      	; 0x132 <twi_readFrom+0xa>
     12e:	40 e0       	ldi	r20, 0x00	; 0
     130:	42 c0       	rjmp	.+132    	; 0x1b6 <twi_readFrom+0x8e>
    return 0;
  }

  // wait until twi is ready, become master receiver
  while(TWI_READY != twi_state){
     132:	80 91 52 03 	lds	r24, 0x0352
     136:	88 23       	and	r24, r24
     138:	e1 f7       	brne	.-8      	; 0x132 <twi_readFrom+0xa>
    continue;
  }
  twi_state = TWI_MRX;
     13a:	91 e0       	ldi	r25, 0x01	; 1
     13c:	90 93 52 03 	sts	0x0352, r25
  twi_sendStop = sendStop;
     140:	20 93 54 03 	sts	0x0354, r18
  // reset error state (0xFF.. no error occured)
  twi_error = 0xFF;
     144:	8f ef       	ldi	r24, 0xFF	; 255
     146:	80 93 bf 03 	sts	0x03BF, r24

  // initialize buffer iteration vars
  twi_masterBufferIndex = 0;
     14a:	10 92 7a 03 	sts	0x037A, r1
  twi_masterBufferLength = length-1;  // This is not intuitive, read on...
     14e:	41 50       	subi	r20, 0x01	; 1
     150:	40 93 7b 03 	sts	0x037B, r20
     154:	4f 5f       	subi	r20, 0xFF	; 255
  // Therefor we must actually set NACK when the _next_ to last byte is
  // received, causing that NACK to be sent in response to receiving the last
  // expected byte of data.

  // build sla+w, slave device address + w bit
  twi_slarw = TW_READ;
     156:	90 93 53 03 	sts	0x0353, r25
  twi_slarw |= address << 1;
     15a:	80 91 53 03 	lds	r24, 0x0353
     15e:	33 0f       	add	r19, r19
     160:	83 2b       	or	r24, r19
     162:	80 93 53 03 	sts	0x0353, r24

  if (true == twi_inRepStart) {
     166:	80 91 55 03 	lds	r24, 0x0355
     16a:	81 30       	cpi	r24, 0x01	; 1
     16c:	41 f4       	brne	.+16     	; 0x17e <twi_readFrom+0x56>
    // (@@@ we hope), and the TWI statemachine is just waiting for the address byte.
    // We need to remove ourselves from the repeated start state before we enable interrupts,
    // since the ISR is ASYNC, and we could get confused if we hit the ISR before cleaning
    // up. Also, don't enable the START interrupt. There may be one pending from the 
    // repeated start that we sent outselves, and that would really confuse things.
    twi_inRepStart = false;			// remember, we're dealing with an ASYNC ISR
     16e:	10 92 55 03 	sts	0x0355, r1
    TWDR = twi_slarw;
     172:	80 91 53 03 	lds	r24, 0x0353
     176:	80 93 bb 00 	sts	0x00BB, r24
    TWCR = _BV(TWINT) | _BV(TWEA) | _BV(TWEN) | _BV(TWIE);	// enable INTs, but not START
     17a:	85 ec       	ldi	r24, 0xC5	; 197
     17c:	01 c0       	rjmp	.+2      	; 0x180 <twi_readFrom+0x58>
  }
  else
    // send start condition
    TWCR = _BV(TWEN) | _BV(TWIE) | _BV(TWEA) | _BV(TWINT) | _BV(TWSTA);
     17e:	85 ee       	ldi	r24, 0xE5	; 229
     180:	80 93 bc 00 	sts	0x00BC, r24

  // wait for read operation to complete
  while(TWI_MRX == twi_state){
     184:	80 91 52 03 	lds	r24, 0x0352
     188:	81 30       	cpi	r24, 0x01	; 1
     18a:	e1 f3       	breq	.-8      	; 0x184 <twi_readFrom+0x5c>
    continue;
  }

  if (twi_masterBufferIndex < length)
     18c:	80 91 7a 03 	lds	r24, 0x037A
     190:	84 17       	cp	r24, r20
     192:	10 f4       	brcc	.+4      	; 0x198 <twi_readFrom+0x70>
    length = twi_masterBufferIndex;
     194:	40 91 7a 03 	lds	r20, 0x037A
     198:	20 e0       	ldi	r18, 0x00	; 0
     19a:	30 e0       	ldi	r19, 0x00	; 0
     19c:	0a c0       	rjmp	.+20     	; 0x1b2 <twi_readFrom+0x8a>

  // copy twi buffer to data
  for(i = 0; i < length; ++i){
    data[i] = twi_masterBuffer[i];
     19e:	fb 01       	movw	r30, r22
     1a0:	e2 0f       	add	r30, r18
     1a2:	f3 1f       	adc	r31, r19
     1a4:	d9 01       	movw	r26, r18
     1a6:	a6 5a       	subi	r26, 0xA6	; 166
     1a8:	bc 4f       	sbci	r27, 0xFC	; 252
     1aa:	8c 91       	ld	r24, X
     1ac:	80 83       	st	Z, r24
     1ae:	2f 5f       	subi	r18, 0xFF	; 255
     1b0:	3f 4f       	sbci	r19, 0xFF	; 255

  if (twi_masterBufferIndex < length)
    length = twi_masterBufferIndex;

  // copy twi buffer to data
  for(i = 0; i < length; ++i){
     1b2:	24 17       	cp	r18, r20
     1b4:	a0 f3       	brcs	.-24     	; 0x19e <twi_readFrom+0x76>
    data[i] = twi_masterBuffer[i];
  }
	
  return length;
}
     1b6:	84 2f       	mov	r24, r20
     1b8:	08 95       	ret

000001ba <twi_writeTo>:
 *          2 .. address send, NACK received
 *          3 .. data send, NACK received
 *          4 .. other twi error (lost bus arbitration, bus error, ..)
 */
uint8_t twi_writeTo(uint8_t address, uint8_t* data, uint8_t length, uint8_t wait, uint8_t sendStop)
{
     1ba:	0f 93       	push	r16
     1bc:	1f 93       	push	r17
     1be:	58 2f       	mov	r21, r24
     1c0:	12 2f       	mov	r17, r18
  uint8_t i;

  // ensure data will fit into buffer
  if(TWI_BUFFER_LENGTH < length){
     1c2:	41 32       	cpi	r20, 0x21	; 33
     1c4:	10 f0       	brcs	.+4      	; 0x1ca <twi_writeTo+0x10>
     1c6:	81 e0       	ldi	r24, 0x01	; 1
     1c8:	4a c0       	rjmp	.+148    	; 0x25e <twi_writeTo+0xa4>
    return 1;
  }

  // wait until twi is ready, become master transmitter
  while(TWI_READY != twi_state){
     1ca:	80 91 52 03 	lds	r24, 0x0352
     1ce:	88 23       	and	r24, r24
     1d0:	e1 f7       	brne	.-8      	; 0x1ca <twi_writeTo+0x10>
    continue;
  }
  twi_state = TWI_MTX;
     1d2:	82 e0       	ldi	r24, 0x02	; 2
     1d4:	80 93 52 03 	sts	0x0352, r24
  twi_sendStop = sendStop;
     1d8:	00 93 54 03 	sts	0x0354, r16
  // reset error state (0xFF.. no error occured)
  twi_error = 0xFF;
     1dc:	8f ef       	ldi	r24, 0xFF	; 255
     1de:	80 93 bf 03 	sts	0x03BF, r24

  // initialize buffer iteration vars
  twi_masterBufferIndex = 0;
     1e2:	10 92 7a 03 	sts	0x037A, r1
  twi_masterBufferLength = length;
     1e6:	40 93 7b 03 	sts	0x037B, r20
     1ea:	aa e5       	ldi	r26, 0x5A	; 90
     1ec:	b3 e0       	ldi	r27, 0x03	; 3
     1ee:	fb 01       	movw	r30, r22
     1f0:	02 c0       	rjmp	.+4      	; 0x1f6 <twi_writeTo+0x3c>
  
  // copy data to twi buffer
  for(i = 0; i < length; ++i){
    twi_masterBuffer[i] = data[i];
     1f2:	81 91       	ld	r24, Z+
     1f4:	8d 93       	st	X+, r24
  // initialize buffer iteration vars
  twi_masterBufferIndex = 0;
  twi_masterBufferLength = length;
  
  // copy data to twi buffer
  for(i = 0; i < length; ++i){
     1f6:	8e 2f       	mov	r24, r30
     1f8:	86 1b       	sub	r24, r22
     1fa:	84 17       	cp	r24, r20
     1fc:	d0 f3       	brcs	.-12     	; 0x1f2 <twi_writeTo+0x38>
    twi_masterBuffer[i] = data[i];
  }
  
  // build sla+w, slave device address + w bit
  twi_slarw = TW_WRITE;
     1fe:	10 92 53 03 	sts	0x0353, r1
  twi_slarw |= address << 1;
     202:	80 91 53 03 	lds	r24, 0x0353
     206:	55 0f       	add	r21, r21
     208:	85 2b       	or	r24, r21
     20a:	80 93 53 03 	sts	0x0353, r24
  
  // if we're in a repeated start, then we've already sent the START
  // in the ISR. Don't do it again.
  //
  if (true == twi_inRepStart) {
     20e:	80 91 55 03 	lds	r24, 0x0355
     212:	81 30       	cpi	r24, 0x01	; 1
     214:	41 f4       	brne	.+16     	; 0x226 <twi_writeTo+0x6c>
    // (@@@ we hope), and the TWI statemachine is just waiting for the address byte.
    // We need to remove ourselves from the repeated start state before we enable interrupts,
    // since the ISR is ASYNC, and we could get confused if we hit the ISR before cleaning
    // up. Also, don't enable the START interrupt. There may be one pending from the 
    // repeated start that we sent outselves, and that would really confuse things.
    twi_inRepStart = false;			// remember, we're dealing with an ASYNC ISR
     216:	10 92 55 03 	sts	0x0355, r1
    TWDR = twi_slarw;				
     21a:	80 91 53 03 	lds	r24, 0x0353
     21e:	80 93 bb 00 	sts	0x00BB, r24
    TWCR = _BV(TWINT) | _BV(TWEA) | _BV(TWEN) | _BV(TWIE);	// enable INTs, but not START
     222:	85 ec       	ldi	r24, 0xC5	; 197
     224:	01 c0       	rjmp	.+2      	; 0x228 <twi_writeTo+0x6e>
  }
  else
    // send start condition
    TWCR = _BV(TWINT) | _BV(TWEA) | _BV(TWEN) | _BV(TWIE) | _BV(TWSTA);	// enable INTs
     226:	85 ee       	ldi	r24, 0xE5	; 229
     228:	80 93 bc 00 	sts	0x00BC, r24

  // wait for write operation to complete
  while(wait && (TWI_MTX == twi_state)){
     22c:	11 23       	and	r17, r17
     22e:	21 f0       	breq	.+8      	; 0x238 <twi_writeTo+0x7e>
     230:	80 91 52 03 	lds	r24, 0x0352
     234:	82 30       	cpi	r24, 0x02	; 2
     236:	e1 f3       	breq	.-8      	; 0x230 <twi_writeTo+0x76>
    continue;
  }
  
  if (twi_error == 0xFF)
     238:	80 91 bf 03 	lds	r24, 0x03BF
     23c:	8f 3f       	cpi	r24, 0xFF	; 255
     23e:	11 f4       	brne	.+4      	; 0x244 <twi_writeTo+0x8a>
     240:	80 e0       	ldi	r24, 0x00	; 0
     242:	0d c0       	rjmp	.+26     	; 0x25e <twi_writeTo+0xa4>
    return 0;	// success
  else if (twi_error == TW_MT_SLA_NACK)
     244:	80 91 bf 03 	lds	r24, 0x03BF
     248:	80 32       	cpi	r24, 0x20	; 32
     24a:	11 f4       	brne	.+4      	; 0x250 <twi_writeTo+0x96>
     24c:	82 e0       	ldi	r24, 0x02	; 2
     24e:	07 c0       	rjmp	.+14     	; 0x25e <twi_writeTo+0xa4>
    return 2;	// error: address send, nack received
  else if (twi_error == TW_MT_DATA_NACK)
     250:	80 91 bf 03 	lds	r24, 0x03BF
     254:	80 33       	cpi	r24, 0x30	; 48
     256:	11 f0       	breq	.+4      	; 0x25c <twi_writeTo+0xa2>
     258:	84 e0       	ldi	r24, 0x04	; 4
     25a:	01 c0       	rjmp	.+2      	; 0x25e <twi_writeTo+0xa4>
     25c:	83 e0       	ldi	r24, 0x03	; 3
    return 3;	// error: data send, nack received
  else
    return 4;	// other twi error
}
     25e:	1f 91       	pop	r17
     260:	0f 91       	pop	r16
     262:	08 95       	ret

00000264 <twi_transmit>:
 * Output   1 length too long for buffer
 *          2 not slave transmitter
 *          0 ok
 */
uint8_t twi_transmit(const uint8_t* data, uint8_t length)
{
     264:	48 2f       	mov	r20, r24
  uint8_t i;

  // ensure data will fit into buffer
  if(TWI_BUFFER_LENGTH < length){
     266:	61 32       	cpi	r22, 0x21	; 33
     268:	10 f0       	brcs	.+4      	; 0x26e <twi_transmit+0xa>
     26a:	81 e0       	ldi	r24, 0x01	; 1
     26c:	08 95       	ret
    return 1;
  }
  
  // ensure we are currently a slave transmitter
  if(TWI_STX != twi_state){
     26e:	80 91 52 03 	lds	r24, 0x0352
     272:	84 30       	cpi	r24, 0x04	; 4
     274:	11 f0       	breq	.+4      	; 0x27a <twi_transmit+0x16>
     276:	82 e0       	ldi	r24, 0x02	; 2
     278:	08 95       	ret
    return 2;
  }
  
  // set length and copy data into tx buffer
  twi_txBufferLength = length;
     27a:	60 93 9d 03 	sts	0x039D, r22
     27e:	ac e7       	ldi	r26, 0x7C	; 124
     280:	b3 e0       	ldi	r27, 0x03	; 3
     282:	84 2f       	mov	r24, r20
     284:	9c 01       	movw	r18, r24
     286:	f9 01       	movw	r30, r18
     288:	02 c0       	rjmp	.+4      	; 0x28e <twi_transmit+0x2a>
  for(i = 0; i < length; ++i){
    twi_txBuffer[i] = data[i];
     28a:	81 91       	ld	r24, Z+
     28c:	8d 93       	st	X+, r24
    return 2;
  }
  
  // set length and copy data into tx buffer
  twi_txBufferLength = length;
  for(i = 0; i < length; ++i){
     28e:	8e 2f       	mov	r24, r30
     290:	84 1b       	sub	r24, r20
     292:	86 17       	cp	r24, r22
     294:	d0 f3       	brcs	.-12     	; 0x28a <twi_transmit+0x26>
     296:	80 e0       	ldi	r24, 0x00	; 0
    twi_txBuffer[i] = data[i];
  }
  
  return 0;
}
     298:	08 95       	ret

0000029a <twi_attachSlaveRxEvent>:
 * Input    function: callback function to use
 * Output   none
 */
void twi_attachSlaveRxEvent( void (*function)(uint8_t*, int) )
{
  twi_onSlaveReceive = function;
     29a:	90 93 59 03 	sts	0x0359, r25
     29e:	80 93 58 03 	sts	0x0358, r24
}
     2a2:	08 95       	ret

000002a4 <twi_attachSlaveTxEvent>:
 * Input    function: callback function to use
 * Output   none
 */
void twi_attachSlaveTxEvent( void (*function)(void) )
{
  twi_onSlaveTransmit = function;
     2a4:	90 93 57 03 	sts	0x0357, r25
     2a8:	80 93 56 03 	sts	0x0356, r24
}
     2ac:	08 95       	ret

000002ae <twi_reply>:
 * Output   none
 */
void twi_reply(uint8_t ack)
{
  // transmit master read ready signal, with or without ack
  if(ack){
     2ae:	88 23       	and	r24, r24
     2b0:	11 f0       	breq	.+4      	; 0x2b6 <twi_reply+0x8>
    TWCR = _BV(TWEN) | _BV(TWIE) | _BV(TWINT) | _BV(TWEA);
     2b2:	85 ec       	ldi	r24, 0xC5	; 197
     2b4:	01 c0       	rjmp	.+2      	; 0x2b8 <twi_reply+0xa>
  }else{
	  TWCR = _BV(TWEN) | _BV(TWIE) | _BV(TWINT);
     2b6:	85 e8       	ldi	r24, 0x85	; 133
     2b8:	80 93 bc 00 	sts	0x00BC, r24
     2bc:	08 95       	ret

000002be <twi_stop>:
 * Output   none
 */
void twi_stop(void)
{
  // send stop condition
  TWCR = _BV(TWEN) | _BV(TWIE) | _BV(TWEA) | _BV(TWINT) | _BV(TWSTO);
     2be:	85 ed       	ldi	r24, 0xD5	; 213
     2c0:	80 93 bc 00 	sts	0x00BC, r24

  // wait for stop condition to be exectued on bus
  // TWINT is not set after a stop condition!
  while(TWCR & _BV(TWSTO)){
     2c4:	80 91 bc 00 	lds	r24, 0x00BC
     2c8:	84 fd       	sbrc	r24, 4
     2ca:	fc cf       	rjmp	.-8      	; 0x2c4 <twi_stop+0x6>
    continue;
  }

  // update twi state
  twi_state = TWI_READY;
     2cc:	10 92 52 03 	sts	0x0352, r1
}
     2d0:	08 95       	ret

000002d2 <twi_releaseBus>:
 * Output   none
 */
void twi_releaseBus(void)
{
  // release bus
  TWCR = _BV(TWEN) | _BV(TWIE) | _BV(TWEA) | _BV(TWINT);
     2d2:	85 ec       	ldi	r24, 0xC5	; 197
     2d4:	80 93 bc 00 	sts	0x00BC, r24

  // update twi state
  twi_state = TWI_READY;
     2d8:	10 92 52 03 	sts	0x0352, r1
}
     2dc:	08 95       	ret

000002de <__vector_24>:

SIGNAL(TWI_vect)
{
     2de:	1f 92       	push	r1
     2e0:	0f 92       	push	r0
     2e2:	0f b6       	in	r0, 0x3f	; 63
     2e4:	0f 92       	push	r0
     2e6:	11 24       	eor	r1, r1
     2e8:	2f 93       	push	r18
     2ea:	3f 93       	push	r19
     2ec:	4f 93       	push	r20
     2ee:	5f 93       	push	r21
     2f0:	6f 93       	push	r22
     2f2:	7f 93       	push	r23
     2f4:	8f 93       	push	r24
     2f6:	9f 93       	push	r25
     2f8:	af 93       	push	r26
     2fa:	bf 93       	push	r27
     2fc:	ef 93       	push	r30
     2fe:	ff 93       	push	r31
  switch(TW_STATUS){
     300:	80 91 b9 00 	lds	r24, 0x00B9
     304:	90 e0       	ldi	r25, 0x00	; 0
     306:	88 7f       	andi	r24, 0xF8	; 248
     308:	90 70       	andi	r25, 0x00	; 0
     30a:	80 36       	cpi	r24, 0x60	; 96
     30c:	91 05       	cpc	r25, r1
     30e:	09 f4       	brne	.+2      	; 0x312 <__vector_24+0x34>
     310:	f2 c0       	rjmp	.+484    	; 0x4f6 <__vector_24+0x218>
     312:	81 36       	cpi	r24, 0x61	; 97
     314:	91 05       	cpc	r25, r1
     316:	cc f5       	brge	.+114    	; 0x38a <__vector_24+0xac>
     318:	88 32       	cpi	r24, 0x28	; 40
     31a:	91 05       	cpc	r25, r1
     31c:	09 f4       	brne	.+2      	; 0x320 <__vector_24+0x42>
     31e:	7b c0       	rjmp	.+246    	; 0x416 <__vector_24+0x138>
     320:	89 32       	cpi	r24, 0x29	; 41
     322:	91 05       	cpc	r25, r1
     324:	b4 f4       	brge	.+44     	; 0x352 <__vector_24+0x74>
     326:	80 31       	cpi	r24, 0x10	; 16
     328:	91 05       	cpc	r25, r1
     32a:	09 f4       	brne	.+2      	; 0x32e <__vector_24+0x50>
     32c:	6f c0       	rjmp	.+222    	; 0x40c <__vector_24+0x12e>
     32e:	81 31       	cpi	r24, 0x11	; 17
     330:	91 05       	cpc	r25, r1
     332:	3c f4       	brge	.+14     	; 0x342 <__vector_24+0x64>
     334:	00 97       	sbiw	r24, 0x00	; 0
     336:	09 f4       	brne	.+2      	; 0x33a <__vector_24+0x5c>
     338:	47 c1       	rjmp	.+654    	; 0x5c8 <__vector_24+0x2ea>
     33a:	08 97       	sbiw	r24, 0x08	; 8
     33c:	09 f0       	breq	.+2      	; 0x340 <__vector_24+0x62>
     33e:	4f c1       	rjmp	.+670    	; 0x5de <__vector_24+0x300>
     340:	65 c0       	rjmp	.+202    	; 0x40c <__vector_24+0x12e>
     342:	88 31       	cpi	r24, 0x18	; 24
     344:	91 05       	cpc	r25, r1
     346:	09 f4       	brne	.+2      	; 0x34a <__vector_24+0x6c>
     348:	66 c0       	rjmp	.+204    	; 0x416 <__vector_24+0x138>
     34a:	80 97       	sbiw	r24, 0x20	; 32
     34c:	09 f0       	breq	.+2      	; 0x350 <__vector_24+0x72>
     34e:	47 c1       	rjmp	.+654    	; 0x5de <__vector_24+0x300>
     350:	82 c0       	rjmp	.+260    	; 0x456 <__vector_24+0x178>
     352:	80 34       	cpi	r24, 0x40	; 64
     354:	91 05       	cpc	r25, r1
     356:	09 f4       	brne	.+2      	; 0x35a <__vector_24+0x7c>
     358:	a4 c0       	rjmp	.+328    	; 0x4a2 <__vector_24+0x1c4>
     35a:	81 34       	cpi	r24, 0x41	; 65
     35c:	91 05       	cpc	r25, r1
     35e:	44 f4       	brge	.+16     	; 0x370 <__vector_24+0x92>
     360:	80 33       	cpi	r24, 0x30	; 48
     362:	91 05       	cpc	r25, r1
     364:	09 f4       	brne	.+2      	; 0x368 <__vector_24+0x8a>
     366:	82 c0       	rjmp	.+260    	; 0x46c <__vector_24+0x18e>
     368:	c8 97       	sbiw	r24, 0x38	; 56
     36a:	09 f0       	breq	.+2      	; 0x36e <__vector_24+0x90>
     36c:	38 c1       	rjmp	.+624    	; 0x5de <__vector_24+0x300>
     36e:	89 c0       	rjmp	.+274    	; 0x482 <__vector_24+0x1a4>
     370:	80 35       	cpi	r24, 0x50	; 80
     372:	91 05       	cpc	r25, r1
     374:	09 f4       	brne	.+2      	; 0x378 <__vector_24+0x9a>
     376:	89 c0       	rjmp	.+274    	; 0x48a <__vector_24+0x1ac>
     378:	88 35       	cpi	r24, 0x58	; 88
     37a:	91 05       	cpc	r25, r1
     37c:	09 f4       	brne	.+2      	; 0x380 <__vector_24+0xa2>
     37e:	96 c0       	rjmp	.+300    	; 0x4ac <__vector_24+0x1ce>
     380:	88 34       	cpi	r24, 0x48	; 72
     382:	91 05       	cpc	r25, r1
     384:	09 f0       	breq	.+2      	; 0x388 <__vector_24+0xaa>
     386:	2b c1       	rjmp	.+598    	; 0x5de <__vector_24+0x300>
     388:	ae c0       	rjmp	.+348    	; 0x4e6 <__vector_24+0x208>
     38a:	88 39       	cpi	r24, 0x98	; 152
     38c:	91 05       	cpc	r25, r1
     38e:	09 f4       	brne	.+2      	; 0x392 <__vector_24+0xb4>
     390:	13 c1       	rjmp	.+550    	; 0x5b8 <__vector_24+0x2da>
     392:	89 39       	cpi	r24, 0x99	; 153
     394:	91 05       	cpc	r25, r1
     396:	ec f4       	brge	.+58     	; 0x3d2 <__vector_24+0xf4>
     398:	88 37       	cpi	r24, 0x78	; 120
     39a:	91 05       	cpc	r25, r1
     39c:	09 f4       	brne	.+2      	; 0x3a0 <__vector_24+0xc2>
     39e:	ab c0       	rjmp	.+342    	; 0x4f6 <__vector_24+0x218>
     3a0:	89 37       	cpi	r24, 0x79	; 121
     3a2:	91 05       	cpc	r25, r1
     3a4:	4c f4       	brge	.+18     	; 0x3b8 <__vector_24+0xda>
     3a6:	88 36       	cpi	r24, 0x68	; 104
     3a8:	91 05       	cpc	r25, r1
     3aa:	09 f4       	brne	.+2      	; 0x3ae <__vector_24+0xd0>
     3ac:	a4 c0       	rjmp	.+328    	; 0x4f6 <__vector_24+0x218>
     3ae:	80 37       	cpi	r24, 0x70	; 112
     3b0:	91 05       	cpc	r25, r1
     3b2:	09 f0       	breq	.+2      	; 0x3b6 <__vector_24+0xd8>
     3b4:	14 c1       	rjmp	.+552    	; 0x5de <__vector_24+0x300>
     3b6:	9f c0       	rjmp	.+318    	; 0x4f6 <__vector_24+0x218>
     3b8:	88 38       	cpi	r24, 0x88	; 136
     3ba:	91 05       	cpc	r25, r1
     3bc:	09 f4       	brne	.+2      	; 0x3c0 <__vector_24+0xe2>
     3be:	fc c0       	rjmp	.+504    	; 0x5b8 <__vector_24+0x2da>
     3c0:	80 39       	cpi	r24, 0x90	; 144
     3c2:	91 05       	cpc	r25, r1
     3c4:	09 f4       	brne	.+2      	; 0x3c8 <__vector_24+0xea>
     3c6:	9d c0       	rjmp	.+314    	; 0x502 <__vector_24+0x224>
     3c8:	80 38       	cpi	r24, 0x80	; 128
     3ca:	91 05       	cpc	r25, r1
     3cc:	09 f0       	breq	.+2      	; 0x3d0 <__vector_24+0xf2>
     3ce:	07 c1       	rjmp	.+526    	; 0x5de <__vector_24+0x300>
     3d0:	98 c0       	rjmp	.+304    	; 0x502 <__vector_24+0x224>
     3d2:	80 3b       	cpi	r24, 0xB0	; 176
     3d4:	91 05       	cpc	r25, r1
     3d6:	09 f4       	brne	.+2      	; 0x3da <__vector_24+0xfc>
     3d8:	c6 c0       	rjmp	.+396    	; 0x566 <__vector_24+0x288>
     3da:	81 3b       	cpi	r24, 0xB1	; 177
     3dc:	91 05       	cpc	r25, r1
     3de:	4c f4       	brge	.+18     	; 0x3f2 <__vector_24+0x114>
     3e0:	80 3a       	cpi	r24, 0xA0	; 160
     3e2:	91 05       	cpc	r25, r1
     3e4:	09 f4       	brne	.+2      	; 0x3e8 <__vector_24+0x10a>
     3e6:	9f c0       	rjmp	.+318    	; 0x526 <__vector_24+0x248>
     3e8:	88 3a       	cpi	r24, 0xA8	; 168
     3ea:	91 05       	cpc	r25, r1
     3ec:	09 f0       	breq	.+2      	; 0x3f0 <__vector_24+0x112>
     3ee:	f7 c0       	rjmp	.+494    	; 0x5de <__vector_24+0x300>
     3f0:	ba c0       	rjmp	.+372    	; 0x566 <__vector_24+0x288>
     3f2:	80 3c       	cpi	r24, 0xC0	; 192
     3f4:	91 05       	cpc	r25, r1
     3f6:	09 f4       	brne	.+2      	; 0x3fa <__vector_24+0x11c>
     3f8:	e3 c0       	rjmp	.+454    	; 0x5c0 <__vector_24+0x2e2>
     3fa:	88 3c       	cpi	r24, 0xC8	; 200
     3fc:	91 05       	cpc	r25, r1
     3fe:	09 f4       	brne	.+2      	; 0x402 <__vector_24+0x124>
     400:	df c0       	rjmp	.+446    	; 0x5c0 <__vector_24+0x2e2>
     402:	88 3b       	cpi	r24, 0xB8	; 184
     404:	91 05       	cpc	r25, r1
     406:	09 f0       	breq	.+2      	; 0x40a <__vector_24+0x12c>
     408:	ea c0       	rjmp	.+468    	; 0x5de <__vector_24+0x300>
     40a:	c2 c0       	rjmp	.+388    	; 0x590 <__vector_24+0x2b2>
    // All Master
    case TW_START:     // sent start condition
    case TW_REP_START: // sent repeated start condition
      // copy device address and r/w bit to output register and ack
      TWDR = twi_slarw;
     40c:	80 91 53 03 	lds	r24, 0x0353
     410:	80 93 bb 00 	sts	0x00BB, r24
     414:	cf c0       	rjmp	.+414    	; 0x5b4 <__vector_24+0x2d6>

    // Master Transmitter
    case TW_MT_SLA_ACK:  // slave receiver acked address
    case TW_MT_DATA_ACK: // slave receiver acked data
      // if there is data to send, send it, otherwise stop 
      if(twi_masterBufferIndex < twi_masterBufferLength){
     416:	90 91 7a 03 	lds	r25, 0x037A
     41a:	80 91 7b 03 	lds	r24, 0x037B
     41e:	98 17       	cp	r25, r24
     420:	68 f4       	brcc	.+26     	; 0x43c <__vector_24+0x15e>
        // copy data to output register and ack
        TWDR = twi_masterBuffer[twi_masterBufferIndex++];
     422:	90 91 7a 03 	lds	r25, 0x037A
     426:	e9 2f       	mov	r30, r25
     428:	f0 e0       	ldi	r31, 0x00	; 0
     42a:	e6 5a       	subi	r30, 0xA6	; 166
     42c:	fc 4f       	sbci	r31, 0xFC	; 252
     42e:	80 81       	ld	r24, Z
     430:	80 93 bb 00 	sts	0x00BB, r24
     434:	9f 5f       	subi	r25, 0xFF	; 255
     436:	90 93 7a 03 	sts	0x037A, r25
     43a:	bc c0       	rjmp	.+376    	; 0x5b4 <__vector_24+0x2d6>
        twi_reply(1);
      }else{
	if (twi_sendStop)
     43c:	80 91 54 03 	lds	r24, 0x0354
     440:	88 23       	and	r24, r24
     442:	09 f4       	brne	.+2      	; 0x446 <__vector_24+0x168>
     444:	4b c0       	rjmp	.+150    	; 0x4dc <__vector_24+0x1fe>
 * Output   none
 */
void twi_stop(void)
{
  // send stop condition
  TWCR = _BV(TWEN) | _BV(TWIE) | _BV(TWEA) | _BV(TWINT) | _BV(TWSTO);
     446:	85 ed       	ldi	r24, 0xD5	; 213
     448:	80 93 bc 00 	sts	0x00BC, r24

  // wait for stop condition to be exectued on bus
  // TWINT is not set after a stop condition!
  while(TWCR & _BV(TWSTO)){
     44c:	80 91 bc 00 	lds	r24, 0x00BC
     450:	84 fd       	sbrc	r24, 4
     452:	fc cf       	rjmp	.-8      	; 0x44c <__vector_24+0x16e>
     454:	c2 c0       	rjmp	.+388    	; 0x5da <__vector_24+0x2fc>
	  twi_state = TWI_READY;
	}
      }
      break;
    case TW_MT_SLA_NACK:  // address sent, nack received
      twi_error = TW_MT_SLA_NACK;
     456:	80 e2       	ldi	r24, 0x20	; 32
     458:	80 93 bf 03 	sts	0x03BF, r24
 * Output   none
 */
void twi_stop(void)
{
  // send stop condition
  TWCR = _BV(TWEN) | _BV(TWIE) | _BV(TWEA) | _BV(TWINT) | _BV(TWSTO);
     45c:	85 ed       	ldi	r24, 0xD5	; 213
     45e:	80 93 bc 00 	sts	0x00BC, r24

  // wait for stop condition to be exectued on bus
  // TWINT is not set after a stop condition!
  while(TWCR & _BV(TWSTO)){
     462:	80 91 bc 00 	lds	r24, 0x00BC
     466:	84 fd       	sbrc	r24, 4
     468:	fc cf       	rjmp	.-8      	; 0x462 <__vector_24+0x184>
     46a:	b7 c0       	rjmp	.+366    	; 0x5da <__vector_24+0x2fc>
    case TW_MT_SLA_NACK:  // address sent, nack received
      twi_error = TW_MT_SLA_NACK;
      twi_stop();
      break;
    case TW_MT_DATA_NACK: // data sent, nack received
      twi_error = TW_MT_DATA_NACK;
     46c:	80 e3       	ldi	r24, 0x30	; 48
     46e:	80 93 bf 03 	sts	0x03BF, r24
 * Output   none
 */
void twi_stop(void)
{
  // send stop condition
  TWCR = _BV(TWEN) | _BV(TWIE) | _BV(TWEA) | _BV(TWINT) | _BV(TWSTO);
     472:	85 ed       	ldi	r24, 0xD5	; 213
     474:	80 93 bc 00 	sts	0x00BC, r24

  // wait for stop condition to be exectued on bus
  // TWINT is not set after a stop condition!
  while(TWCR & _BV(TWSTO)){
     478:	80 91 bc 00 	lds	r24, 0x00BC
     47c:	84 fd       	sbrc	r24, 4
     47e:	fc cf       	rjmp	.-8      	; 0x478 <__vector_24+0x19a>
     480:	ac c0       	rjmp	.+344    	; 0x5da <__vector_24+0x2fc>
    case TW_MT_DATA_NACK: // data sent, nack received
      twi_error = TW_MT_DATA_NACK;
      twi_stop();
      break;
    case TW_MT_ARB_LOST: // lost bus arbitration
      twi_error = TW_MT_ARB_LOST;
     482:	88 e3       	ldi	r24, 0x38	; 56
     484:	80 93 bf 03 	sts	0x03BF, r24
     488:	9b c0       	rjmp	.+310    	; 0x5c0 <__vector_24+0x2e2>
      break;

    // Master Receiver
    case TW_MR_DATA_ACK: // data received, ack sent
      // put byte into buffer
      twi_masterBuffer[twi_masterBufferIndex++] = TWDR;
     48a:	80 91 7a 03 	lds	r24, 0x037A
     48e:	90 91 bb 00 	lds	r25, 0x00BB
     492:	e8 2f       	mov	r30, r24
     494:	f0 e0       	ldi	r31, 0x00	; 0
     496:	e6 5a       	subi	r30, 0xA6	; 166
     498:	fc 4f       	sbci	r31, 0xFC	; 252
     49a:	90 83       	st	Z, r25
     49c:	8f 5f       	subi	r24, 0xFF	; 255
     49e:	80 93 7a 03 	sts	0x037A, r24
    case TW_MR_SLA_ACK:  // address sent, ack received
      // ack if more bytes are expected, otherwise nack
      if(twi_masterBufferIndex < twi_masterBufferLength){
     4a2:	90 91 7a 03 	lds	r25, 0x037A
     4a6:	80 91 7b 03 	lds	r24, 0x037B
     4aa:	82 c0       	rjmp	.+260    	; 0x5b0 <__vector_24+0x2d2>
        twi_reply(0);
      }
      break;
    case TW_MR_DATA_NACK: // data received, nack sent
      // put final byte into buffer
      twi_masterBuffer[twi_masterBufferIndex++] = TWDR;
     4ac:	80 91 7a 03 	lds	r24, 0x037A
     4b0:	90 91 bb 00 	lds	r25, 0x00BB
     4b4:	e8 2f       	mov	r30, r24
     4b6:	f0 e0       	ldi	r31, 0x00	; 0
     4b8:	e6 5a       	subi	r30, 0xA6	; 166
     4ba:	fc 4f       	sbci	r31, 0xFC	; 252
     4bc:	90 83       	st	Z, r25
     4be:	8f 5f       	subi	r24, 0xFF	; 255
     4c0:	80 93 7a 03 	sts	0x037A, r24
	if (twi_sendStop)
     4c4:	80 91 54 03 	lds	r24, 0x0354
     4c8:	88 23       	and	r24, r24
     4ca:	41 f0       	breq	.+16     	; 0x4dc <__vector_24+0x1fe>
 * Output   none
 */
void twi_stop(void)
{
  // send stop condition
  TWCR = _BV(TWEN) | _BV(TWIE) | _BV(TWEA) | _BV(TWINT) | _BV(TWSTO);
     4cc:	85 ed       	ldi	r24, 0xD5	; 213
     4ce:	80 93 bc 00 	sts	0x00BC, r24

  // wait for stop condition to be exectued on bus
  // TWINT is not set after a stop condition!
  while(TWCR & _BV(TWSTO)){
     4d2:	80 91 bc 00 	lds	r24, 0x00BC
     4d6:	84 fd       	sbrc	r24, 4
     4d8:	fc cf       	rjmp	.-8      	; 0x4d2 <__vector_24+0x1f4>
     4da:	7f c0       	rjmp	.+254    	; 0x5da <__vector_24+0x2fc>
      // put final byte into buffer
      twi_masterBuffer[twi_masterBufferIndex++] = TWDR;
	if (twi_sendStop)
          twi_stop();
	else {
	  twi_inRepStart = true;	// we're gonna send the START
     4dc:	81 e0       	ldi	r24, 0x01	; 1
     4de:	80 93 55 03 	sts	0x0355, r24
	  // don't enable the interrupt. We'll generate the start, but we 
	  // avoid handling the interrupt until we're in the next transaction,
	  // at the point where we would normally issue the start.
	  TWCR = _BV(TWINT) | _BV(TWSTA)| _BV(TWEN) ;
     4e2:	84 ea       	ldi	r24, 0xA4	; 164
     4e4:	6e c0       	rjmp	.+220    	; 0x5c2 <__vector_24+0x2e4>
 * Output   none
 */
void twi_stop(void)
{
  // send stop condition
  TWCR = _BV(TWEN) | _BV(TWIE) | _BV(TWEA) | _BV(TWINT) | _BV(TWSTO);
     4e6:	85 ed       	ldi	r24, 0xD5	; 213
     4e8:	80 93 bc 00 	sts	0x00BC, r24

  // wait for stop condition to be exectued on bus
  // TWINT is not set after a stop condition!
  while(TWCR & _BV(TWSTO)){
     4ec:	80 91 bc 00 	lds	r24, 0x00BC
     4f0:	84 fd       	sbrc	r24, 4
     4f2:	fc cf       	rjmp	.-8      	; 0x4ec <__vector_24+0x20e>
     4f4:	72 c0       	rjmp	.+228    	; 0x5da <__vector_24+0x2fc>
    case TW_SR_SLA_ACK:   // addressed, returned ack
    case TW_SR_GCALL_ACK: // addressed generally, returned ack
    case TW_SR_ARB_LOST_SLA_ACK:   // lost arbitration, returned ack
    case TW_SR_ARB_LOST_GCALL_ACK: // lost arbitration, returned ack
      // enter slave receiver mode
      twi_state = TWI_SRX;
     4f6:	83 e0       	ldi	r24, 0x03	; 3
     4f8:	80 93 52 03 	sts	0x0352, r24
      // indicate that rx buffer can be overwritten and ack
      twi_rxBufferIndex = 0;
     4fc:	10 92 be 03 	sts	0x03BE, r1
     500:	59 c0       	rjmp	.+178    	; 0x5b4 <__vector_24+0x2d6>
      twi_reply(1);
      break;
    case TW_SR_DATA_ACK:       // data received, returned ack
    case TW_SR_GCALL_DATA_ACK: // data received generally, returned ack
      // if there is still room in the rx buffer
      if(twi_rxBufferIndex < TWI_BUFFER_LENGTH){
     502:	80 91 be 03 	lds	r24, 0x03BE
     506:	80 32       	cpi	r24, 0x20	; 32
     508:	08 f0       	brcs	.+2      	; 0x50c <__vector_24+0x22e>
     50a:	56 c0       	rjmp	.+172    	; 0x5b8 <__vector_24+0x2da>
        // put byte in buffer and ack
        twi_rxBuffer[twi_rxBufferIndex++] = TWDR;
     50c:	80 91 be 03 	lds	r24, 0x03BE
     510:	90 91 bb 00 	lds	r25, 0x00BB
     514:	e8 2f       	mov	r30, r24
     516:	f0 e0       	ldi	r31, 0x00	; 0
     518:	e2 56       	subi	r30, 0x62	; 98
     51a:	fc 4f       	sbci	r31, 0xFC	; 252
     51c:	90 83       	st	Z, r25
     51e:	8f 5f       	subi	r24, 0xFF	; 255
     520:	80 93 be 03 	sts	0x03BE, r24
     524:	47 c0       	rjmp	.+142    	; 0x5b4 <__vector_24+0x2d6>
        twi_reply(0);
      }
      break;
    case TW_SR_STOP: // stop or repeated start condition received
      // put a null char after data if there's room
      if(twi_rxBufferIndex < TWI_BUFFER_LENGTH){
     526:	80 91 be 03 	lds	r24, 0x03BE
     52a:	80 32       	cpi	r24, 0x20	; 32
     52c:	30 f4       	brcc	.+12     	; 0x53a <__vector_24+0x25c>
        twi_rxBuffer[twi_rxBufferIndex] = '\0';
     52e:	e0 91 be 03 	lds	r30, 0x03BE
     532:	f0 e0       	ldi	r31, 0x00	; 0
     534:	e2 56       	subi	r30, 0x62	; 98
     536:	fc 4f       	sbci	r31, 0xFC	; 252
     538:	10 82       	st	Z, r1
 * Output   none
 */
void twi_stop(void)
{
  // send stop condition
  TWCR = _BV(TWEN) | _BV(TWIE) | _BV(TWEA) | _BV(TWINT) | _BV(TWSTO);
     53a:	85 ed       	ldi	r24, 0xD5	; 213
     53c:	80 93 bc 00 	sts	0x00BC, r24

  // wait for stop condition to be exectued on bus
  // TWINT is not set after a stop condition!
  while(TWCR & _BV(TWSTO)){
     540:	80 91 bc 00 	lds	r24, 0x00BC
     544:	84 fd       	sbrc	r24, 4
     546:	fc cf       	rjmp	.-8      	; 0x540 <__vector_24+0x262>
    continue;
  }

  // update twi state
  twi_state = TWI_READY;
     548:	10 92 52 03 	sts	0x0352, r1
        twi_rxBuffer[twi_rxBufferIndex] = '\0';
      }
      // sends ack and stops interface for clock stretching
      twi_stop();
      // callback to user defined callback
      twi_onSlaveReceive(twi_rxBuffer, twi_rxBufferIndex);
     54c:	60 91 be 03 	lds	r22, 0x03BE
     550:	e0 91 58 03 	lds	r30, 0x0358
     554:	f0 91 59 03 	lds	r31, 0x0359
     558:	8e e9       	ldi	r24, 0x9E	; 158
     55a:	93 e0       	ldi	r25, 0x03	; 3
     55c:	70 e0       	ldi	r23, 0x00	; 0
     55e:	09 95       	icall
      // since we submit rx buffer to "wire" library, we can reset it
      twi_rxBufferIndex = 0;
     560:	10 92 be 03 	sts	0x03BE, r1
     564:	2d c0       	rjmp	.+90     	; 0x5c0 <__vector_24+0x2e2>
    
    // Slave Transmitter
    case TW_ST_SLA_ACK:          // addressed, returned ack
    case TW_ST_ARB_LOST_SLA_ACK: // arbitration lost, returned ack
      // enter slave transmitter mode
      twi_state = TWI_STX;
     566:	84 e0       	ldi	r24, 0x04	; 4
     568:	80 93 52 03 	sts	0x0352, r24
      // ready the tx buffer index for iteration
      twi_txBufferIndex = 0;
     56c:	10 92 9c 03 	sts	0x039C, r1
      // set tx buffer length to be zero, to verify if user changes it
      twi_txBufferLength = 0;
     570:	10 92 9d 03 	sts	0x039D, r1
      // request for txBuffer to be filled and length to be set
      // note: user must call twi_transmit(bytes, length) to do this
      twi_onSlaveTransmit();
     574:	e0 91 56 03 	lds	r30, 0x0356
     578:	f0 91 57 03 	lds	r31, 0x0357
     57c:	09 95       	icall
      // if they didn't change buffer & length, initialize it
      if(0 == twi_txBufferLength){
     57e:	80 91 9d 03 	lds	r24, 0x039D
     582:	88 23       	and	r24, r24
     584:	29 f4       	brne	.+10     	; 0x590 <__vector_24+0x2b2>
        twi_txBufferLength = 1;
     586:	81 e0       	ldi	r24, 0x01	; 1
     588:	80 93 9d 03 	sts	0x039D, r24
        twi_txBuffer[0] = 0x00;
     58c:	10 92 7c 03 	sts	0x037C, r1
      }
      // transmit first byte from buffer, fall
    case TW_ST_DATA_ACK: // byte sent, ack returned
      // copy data to output register
      TWDR = twi_txBuffer[twi_txBufferIndex++];
     590:	90 91 9c 03 	lds	r25, 0x039C
     594:	e9 2f       	mov	r30, r25
     596:	f0 e0       	ldi	r31, 0x00	; 0
     598:	e4 58       	subi	r30, 0x84	; 132
     59a:	fc 4f       	sbci	r31, 0xFC	; 252
     59c:	80 81       	ld	r24, Z
     59e:	80 93 bb 00 	sts	0x00BB, r24
     5a2:	9f 5f       	subi	r25, 0xFF	; 255
     5a4:	90 93 9c 03 	sts	0x039C, r25
      // if there is more to send, ack, otherwise nack
      if(twi_txBufferIndex < twi_txBufferLength){
     5a8:	90 91 9c 03 	lds	r25, 0x039C
     5ac:	80 91 9d 03 	lds	r24, 0x039D
     5b0:	98 17       	cp	r25, r24
     5b2:	10 f4       	brcc	.+4      	; 0x5b8 <__vector_24+0x2da>
 */
void twi_reply(uint8_t ack)
{
  // transmit master read ready signal, with or without ack
  if(ack){
    TWCR = _BV(TWEN) | _BV(TWIE) | _BV(TWINT) | _BV(TWEA);
     5b4:	85 ec       	ldi	r24, 0xC5	; 197
     5b6:	01 c0       	rjmp	.+2      	; 0x5ba <__vector_24+0x2dc>
  }else{
	  TWCR = _BV(TWEN) | _BV(TWIE) | _BV(TWINT);
     5b8:	85 e8       	ldi	r24, 0x85	; 133
     5ba:	80 93 bc 00 	sts	0x00BC, r24
     5be:	0f c0       	rjmp	.+30     	; 0x5de <__vector_24+0x300>
 */
void twi_reply(uint8_t ack)
{
  // transmit master read ready signal, with or without ack
  if(ack){
    TWCR = _BV(TWEN) | _BV(TWIE) | _BV(TWINT) | _BV(TWEA);
     5c0:	85 ec       	ldi	r24, 0xC5	; 197
     5c2:	80 93 bc 00 	sts	0x00BC, r24
     5c6:	09 c0       	rjmp	.+18     	; 0x5da <__vector_24+0x2fc>

    // All
    case TW_NO_INFO:   // no state information
      break;
    case TW_BUS_ERROR: // bus error, illegal stop/start
      twi_error = TW_BUS_ERROR;
     5c8:	10 92 bf 03 	sts	0x03BF, r1
 * Output   none
 */
void twi_stop(void)
{
  // send stop condition
  TWCR = _BV(TWEN) | _BV(TWIE) | _BV(TWEA) | _BV(TWINT) | _BV(TWSTO);
     5cc:	85 ed       	ldi	r24, 0xD5	; 213
     5ce:	80 93 bc 00 	sts	0x00BC, r24

  // wait for stop condition to be exectued on bus
  // TWINT is not set after a stop condition!
  while(TWCR & _BV(TWSTO)){
     5d2:	80 91 bc 00 	lds	r24, 0x00BC
     5d6:	84 fd       	sbrc	r24, 4
     5d8:	fc cf       	rjmp	.-8      	; 0x5d2 <__vector_24+0x2f4>
    continue;
  }

  // update twi state
  twi_state = TWI_READY;
     5da:	10 92 52 03 	sts	0x0352, r1
    case TW_BUS_ERROR: // bus error, illegal stop/start
      twi_error = TW_BUS_ERROR;
      twi_stop();
      break;
  }
}
     5de:	ff 91       	pop	r31
     5e0:	ef 91       	pop	r30
     5e2:	bf 91       	pop	r27
     5e4:	af 91       	pop	r26
     5e6:	9f 91       	pop	r25
     5e8:	8f 91       	pop	r24
     5ea:	7f 91       	pop	r23
     5ec:	6f 91       	pop	r22
     5ee:	5f 91       	pop	r21
     5f0:	4f 91       	pop	r20
     5f2:	3f 91       	pop	r19
     5f4:	2f 91       	pop	r18
     5f6:	0f 90       	pop	r0
     5f8:	0f be       	out	0x3f, r0	; 63
     5fa:	0f 90       	pop	r0
     5fc:	1f 90       	pop	r1
     5fe:	18 95       	reti

00000600 <twi_init>:
 * Output   none
 */
void twi_init(void)
{
  // initialize state
  twi_state = TWI_READY;
     600:	10 92 52 03 	sts	0x0352, r1
  twi_sendStop = true;		// default value
     604:	81 e0       	ldi	r24, 0x01	; 1
     606:	80 93 54 03 	sts	0x0354, r24
  twi_inRepStart = false;
     60a:	10 92 55 03 	sts	0x0355, r1
  
  // activate internal pullups for twi.
  digitalWrite(SDA, 1);
     60e:	82 e1       	ldi	r24, 0x12	; 18
     610:	61 e0       	ldi	r22, 0x01	; 1
     612:	0e 94 9b 22 	call	0x4536	; 0x4536 <digitalWrite>
  digitalWrite(SCL, 1);
     616:	83 e1       	ldi	r24, 0x13	; 19
     618:	61 e0       	ldi	r22, 0x01	; 1
     61a:	0e 94 9b 22 	call	0x4536	; 0x4536 <digitalWrite>

  // initialize twi prescaler and bit rate
  cbi(TWSR, TWPS0);
     61e:	e9 eb       	ldi	r30, 0xB9	; 185
     620:	f0 e0       	ldi	r31, 0x00	; 0
     622:	80 81       	ld	r24, Z
     624:	8e 7f       	andi	r24, 0xFE	; 254
     626:	80 83       	st	Z, r24
  cbi(TWSR, TWPS1);
     628:	80 81       	ld	r24, Z
     62a:	8d 7f       	andi	r24, 0xFD	; 253
     62c:	80 83       	st	Z, r24
  TWBR = ((F_CPU / TWI_FREQ) - 16) / 2;
     62e:	88 e4       	ldi	r24, 0x48	; 72
     630:	80 93 b8 00 	sts	0x00B8, r24
  SCL Frequency = CPU Clock Frequency / (16 + (2 * TWBR))
  note: TWBR should be 10 or higher for master mode
  It is 72 for a 16mhz Wiring board with 100kHz TWI */

  // enable twi module, acks, and twi interrupt
  TWCR = _BV(TWEN) | _BV(TWIE) | _BV(TWEA);
     634:	85 e4       	ldi	r24, 0x45	; 69
     636:	80 93 bc 00 	sts	0x00BC, r24
}
     63a:	08 95       	ret

0000063c <lmullkD>:
     63c:	2f 92       	push	r2
     63e:	3f 92       	push	r3
     640:	4f 92       	push	r4
     642:	5f 92       	push	r5
     644:	6f 92       	push	r6
     646:	7f 92       	push	r7
     648:	8f 92       	push	r8
     64a:	9f 92       	push	r9
     64c:	af 92       	push	r10
     64e:	bf 92       	push	r11
     650:	cf 92       	push	r12
     652:	df 92       	push	r13
     654:	ef 92       	push	r14
     656:	ff 92       	push	r15
     658:	0f 93       	push	r16
     65a:	1f 93       	push	r17
     65c:	cf 93       	push	r28
     65e:	df 93       	push	r29
     660:	cd b7       	in	r28, 0x3d	; 61
     662:	de b7       	in	r29, 0x3e	; 62
     664:	2c 97       	sbiw	r28, 0x0c	; 12
     666:	0f b6       	in	r0, 0x3f	; 63
     668:	f8 94       	cli
     66a:	de bf       	out	0x3e, r29	; 62
     66c:	0f be       	out	0x3f, r0	; 63
     66e:	cd bf       	out	0x3d, r28	; 61
     670:	69 83       	std	Y+1, r22	; 0x01
     672:	7a 83       	std	Y+2, r23	; 0x02
     674:	8b 83       	std	Y+3, r24	; 0x03
     676:	9c 83       	std	Y+4, r25	; 0x04
     678:	2d 83       	std	Y+5, r18	; 0x05
     67a:	3e 83       	std	Y+6, r19	; 0x06
     67c:	4f 83       	std	Y+7, r20	; 0x07
     67e:	58 87       	std	Y+8, r21	; 0x08
     680:	8c 81       	ldd	r24, Y+4	; 0x04
     682:	99 27       	eor	r25, r25
     684:	87 fd       	sbrc	r24, 7
     686:	90 95       	com	r25
     688:	a9 2f       	mov	r26, r25
     68a:	b9 2f       	mov	r27, r25
     68c:	bc 01       	movw	r22, r24
     68e:	cd 01       	movw	r24, r26
     690:	0e 94 ef 22 	call	0x45de	; 0x45de <__mulsi3>
     694:	7b 01       	movw	r14, r22
     696:	8c 01       	movw	r16, r24
     698:	88 85       	ldd	r24, Y+8	; 0x08
     69a:	99 27       	eor	r25, r25
     69c:	87 fd       	sbrc	r24, 7
     69e:	90 95       	com	r25
     6a0:	a9 2f       	mov	r26, r25
     6a2:	b9 2f       	mov	r27, r25
     6a4:	29 81       	ldd	r18, Y+1	; 0x01
     6a6:	3a 81       	ldd	r19, Y+2	; 0x02
     6a8:	4b 81       	ldd	r20, Y+3	; 0x03
     6aa:	5c 81       	ldd	r21, Y+4	; 0x04
     6ac:	50 70       	andi	r21, 0x00	; 0
     6ae:	bc 01       	movw	r22, r24
     6b0:	cd 01       	movw	r24, r26
     6b2:	0e 94 ef 22 	call	0x45de	; 0x45de <__mulsi3>
     6b6:	dc 01       	movw	r26, r24
     6b8:	cb 01       	movw	r24, r22
     6ba:	e8 0e       	add	r14, r24
     6bc:	f9 1e       	adc	r15, r25
     6be:	0a 1f       	adc	r16, r26
     6c0:	1b 1f       	adc	r17, r27
     6c2:	8b 81       	ldd	r24, Y+3	; 0x03
     6c4:	68 2e       	mov	r6, r24
     6c6:	77 24       	eor	r7, r7
     6c8:	88 24       	eor	r8, r8
     6ca:	99 24       	eor	r9, r9
     6cc:	8f 81       	ldd	r24, Y+7	; 0x07
     6ce:	28 2e       	mov	r2, r24
     6d0:	33 24       	eor	r3, r3
     6d2:	44 24       	eor	r4, r4
     6d4:	55 24       	eor	r5, r5
     6d6:	c4 01       	movw	r24, r8
     6d8:	b3 01       	movw	r22, r6
     6da:	a2 01       	movw	r20, r4
     6dc:	91 01       	movw	r18, r2
     6de:	0e 94 ef 22 	call	0x45de	; 0x45de <__mulsi3>
     6e2:	dc 01       	movw	r26, r24
     6e4:	cb 01       	movw	r24, r22
     6e6:	aa 24       	eor	r10, r10
     6e8:	b8 2e       	mov	r11, r24
     6ea:	c9 2e       	mov	r12, r25
     6ec:	da 2e       	mov	r13, r26
     6ee:	ae 0c       	add	r10, r14
     6f0:	bf 1c       	adc	r11, r15
     6f2:	c0 1e       	adc	r12, r16
     6f4:	d1 1e       	adc	r13, r17
     6f6:	8d 81       	ldd	r24, Y+5	; 0x05
     6f8:	9e 81       	ldd	r25, Y+6	; 0x06
     6fa:	9c 01       	movw	r18, r24
     6fc:	44 27       	eor	r20, r20
     6fe:	55 27       	eor	r21, r21
     700:	29 87       	std	Y+9, r18	; 0x09
     702:	3a 87       	std	Y+10, r19	; 0x0a
     704:	4b 87       	std	Y+11, r20	; 0x0b
     706:	5c 87       	std	Y+12, r21	; 0x0c
     708:	c4 01       	movw	r24, r8
     70a:	b3 01       	movw	r22, r6
     70c:	0e 94 ef 22 	call	0x45de	; 0x45de <__mulsi3>
     710:	7b 01       	movw	r14, r22
     712:	8c 01       	movw	r16, r24
     714:	89 81       	ldd	r24, Y+1	; 0x01
     716:	9a 81       	ldd	r25, Y+2	; 0x02
     718:	3c 01       	movw	r6, r24
     71a:	88 24       	eor	r8, r8
     71c:	99 24       	eor	r9, r9
     71e:	c4 01       	movw	r24, r8
     720:	b3 01       	movw	r22, r6
     722:	a2 01       	movw	r20, r4
     724:	91 01       	movw	r18, r2
     726:	0e 94 ef 22 	call	0x45de	; 0x45de <__mulsi3>
     72a:	dc 01       	movw	r26, r24
     72c:	cb 01       	movw	r24, r22
     72e:	e8 0e       	add	r14, r24
     730:	f9 1e       	adc	r15, r25
     732:	0a 1f       	adc	r16, r26
     734:	1b 1f       	adc	r17, r27
     736:	bb 27       	eor	r27, r27
     738:	a1 2f       	mov	r26, r17
     73a:	90 2f       	mov	r25, r16
     73c:	8f 2d       	mov	r24, r15
     73e:	8a 0d       	add	r24, r10
     740:	9b 1d       	adc	r25, r11
     742:	ac 1d       	adc	r26, r12
     744:	bd 1d       	adc	r27, r13
     746:	37 e0       	ldi	r19, 0x07	; 7
     748:	16 95       	lsr	r17
     74a:	07 95       	ror	r16
     74c:	f7 94       	ror	r15
     74e:	e7 94       	ror	r14
     750:	3a 95       	dec	r19
     752:	d1 f7       	brne	.-12     	; 0x748 <lmullkD+0x10c>
     754:	21 e0       	ldi	r18, 0x01	; 1
     756:	30 e0       	ldi	r19, 0x00	; 0
     758:	40 e0       	ldi	r20, 0x00	; 0
     75a:	50 e0       	ldi	r21, 0x00	; 0
     75c:	e2 22       	and	r14, r18
     75e:	f3 22       	and	r15, r19
     760:	04 23       	and	r16, r20
     762:	15 23       	and	r17, r21
     764:	e8 0e       	add	r14, r24
     766:	f9 1e       	adc	r15, r25
     768:	0a 1f       	adc	r16, r26
     76a:	1b 1f       	adc	r17, r27
     76c:	c4 01       	movw	r24, r8
     76e:	b3 01       	movw	r22, r6
     770:	29 85       	ldd	r18, Y+9	; 0x09
     772:	3a 85       	ldd	r19, Y+10	; 0x0a
     774:	4b 85       	ldd	r20, Y+11	; 0x0b
     776:	5c 85       	ldd	r21, Y+12	; 0x0c
     778:	0e 94 ef 22 	call	0x45de	; 0x45de <__mulsi3>
     77c:	dc 01       	movw	r26, r24
     77e:	cb 01       	movw	r24, r22
     780:	8b 2f       	mov	r24, r27
     782:	99 27       	eor	r25, r25
     784:	aa 27       	eor	r26, r26
     786:	bb 27       	eor	r27, r27
     788:	8e 0d       	add	r24, r14
     78a:	9f 1d       	adc	r25, r15
     78c:	a0 1f       	adc	r26, r16
     78e:	b1 1f       	adc	r27, r17
     790:	bc 01       	movw	r22, r24
     792:	cd 01       	movw	r24, r26
     794:	2c 96       	adiw	r28, 0x0c	; 12
     796:	0f b6       	in	r0, 0x3f	; 63
     798:	f8 94       	cli
     79a:	de bf       	out	0x3e, r29	; 62
     79c:	0f be       	out	0x3f, r0	; 63
     79e:	cd bf       	out	0x3d, r28	; 61
     7a0:	df 91       	pop	r29
     7a2:	cf 91       	pop	r28
     7a4:	1f 91       	pop	r17
     7a6:	0f 91       	pop	r16
     7a8:	ff 90       	pop	r15
     7aa:	ef 90       	pop	r14
     7ac:	df 90       	pop	r13
     7ae:	cf 90       	pop	r12
     7b0:	bf 90       	pop	r11
     7b2:	af 90       	pop	r10
     7b4:	9f 90       	pop	r9
     7b6:	8f 90       	pop	r8
     7b8:	7f 90       	pop	r7
     7ba:	6f 90       	pop	r6
     7bc:	5f 90       	pop	r5
     7be:	4f 90       	pop	r4
     7c0:	3f 90       	pop	r3
     7c2:	2f 90       	pop	r2
     7c4:	08 95       	ret

000007c6 <ldivlkD>:
     7c6:	ff 92       	push	r15
     7c8:	0f 93       	push	r16
     7ca:	1f 93       	push	r17
     7cc:	cf 93       	push	r28
     7ce:	df 93       	push	r29
     7d0:	00 e0       	ldi	r16, 0x00	; 0
     7d2:	10 e0       	ldi	r17, 0x00	; 0
     7d4:	ff 24       	eor	r15, r15
     7d6:	97 ff       	sbrs	r25, 7
     7d8:	02 c0       	rjmp	.+4      	; 0x7de <ldivlkD+0x18>
     7da:	57 fd       	sbrc	r21, 7
     7dc:	0a c0       	rjmp	.+20     	; 0x7f2 <ldivlkD+0x2c>
     7de:	16 16       	cp	r1, r22
     7e0:	17 06       	cpc	r1, r23
     7e2:	18 06       	cpc	r1, r24
     7e4:	19 06       	cpc	r1, r25
     7e6:	3c f4       	brge	.+14     	; 0x7f6 <ldivlkD+0x30>
     7e8:	12 16       	cp	r1, r18
     7ea:	13 06       	cpc	r1, r19
     7ec:	14 06       	cpc	r1, r20
     7ee:	15 06       	cpc	r1, r21
     7f0:	14 f4       	brge	.+4      	; 0x7f6 <ldivlkD+0x30>
     7f2:	f1 e0       	ldi	r31, 0x01	; 1
     7f4:	ff 2e       	mov	r15, r31
     7f6:	97 ff       	sbrs	r25, 7
     7f8:	07 c0       	rjmp	.+14     	; 0x808 <ldivlkD+0x42>
     7fa:	90 95       	com	r25
     7fc:	80 95       	com	r24
     7fe:	70 95       	com	r23
     800:	61 95       	neg	r22
     802:	7f 4f       	sbci	r23, 0xFF	; 255
     804:	8f 4f       	sbci	r24, 0xFF	; 255
     806:	9f 4f       	sbci	r25, 0xFF	; 255
     808:	57 ff       	sbrs	r21, 7
     80a:	07 c0       	rjmp	.+14     	; 0x81a <ldivlkD+0x54>
     80c:	50 95       	com	r21
     80e:	40 95       	com	r20
     810:	30 95       	com	r19
     812:	21 95       	neg	r18
     814:	3f 4f       	sbci	r19, 0xFF	; 255
     816:	4f 4f       	sbci	r20, 0xFF	; 255
     818:	5f 4f       	sbci	r21, 0xFF	; 255
     81a:	c0 e0       	ldi	r28, 0x00	; 0
     81c:	d0 e0       	ldi	r29, 0x00	; 0
     81e:	6f 3f       	cpi	r22, 0xFF	; 255
     820:	ef ef       	ldi	r30, 0xFF	; 255
     822:	7e 07       	cpc	r23, r30
     824:	ef ef       	ldi	r30, 0xFF	; 255
     826:	8e 07       	cpc	r24, r30
     828:	ef e3       	ldi	r30, 0x3F	; 63
     82a:	9e 07       	cpc	r25, r30
     82c:	44 f4       	brge	.+16     	; 0x83e <ldivlkD+0x78>
     82e:	66 0f       	add	r22, r22
     830:	77 1f       	adc	r23, r23
     832:	88 1f       	adc	r24, r24
     834:	99 1f       	adc	r25, r25
     836:	21 96       	adiw	r28, 0x01	; 1
     838:	c8 31       	cpi	r28, 0x18	; 24
     83a:	d1 05       	cpc	r29, r1
     83c:	84 f3       	brlt	.-32     	; 0x81e <ldivlkD+0x58>
     83e:	20 fd       	sbrc	r18, 0
     840:	08 c0       	rjmp	.+16     	; 0x852 <ldivlkD+0x8c>
     842:	55 95       	asr	r21
     844:	47 95       	ror	r20
     846:	37 95       	ror	r19
     848:	27 95       	ror	r18
     84a:	0f 5f       	subi	r16, 0xFF	; 255
     84c:	1f 4f       	sbci	r17, 0xFF	; 255
     84e:	20 ff       	sbrs	r18, 0
     850:	f8 cf       	rjmp	.-16     	; 0x842 <ldivlkD+0x7c>
     852:	0e 94 44 23 	call	0x4688	; 0x4688 <__divmodsi4>
     856:	d0 95       	com	r29
     858:	c1 95       	neg	r28
     85a:	df 4f       	sbci	r29, 0xFF	; 255
     85c:	c0 1b       	sub	r28, r16
     85e:	d1 0b       	sbc	r29, r17
     860:	68 96       	adiw	r28, 0x18	; 24
     862:	1c 16       	cp	r1, r28
     864:	1d 06       	cpc	r1, r29
     866:	44 f4       	brge	.+16     	; 0x878 <ldivlkD+0xb2>
     868:	04 c0       	rjmp	.+8      	; 0x872 <ldivlkD+0xac>
     86a:	22 0f       	add	r18, r18
     86c:	33 1f       	adc	r19, r19
     86e:	44 1f       	adc	r20, r20
     870:	55 1f       	adc	r21, r21
     872:	ca 95       	dec	r28
     874:	d2 f7       	brpl	.-12     	; 0x86a <ldivlkD+0xa4>
     876:	19 c0       	rjmp	.+50     	; 0x8aa <ldivlkD+0xe4>
     878:	d7 ff       	sbrs	r29, 7
     87a:	17 c0       	rjmp	.+46     	; 0x8aa <ldivlkD+0xe4>
     87c:	c0 95       	com	r28
     87e:	d0 95       	com	r29
     880:	04 c0       	rjmp	.+8      	; 0x88a <ldivlkD+0xc4>
     882:	55 95       	asr	r21
     884:	47 95       	ror	r20
     886:	37 95       	ror	r19
     888:	27 95       	ror	r18
     88a:	ca 95       	dec	r28
     88c:	d2 f7       	brpl	.-12     	; 0x882 <ldivlkD+0xbc>
     88e:	da 01       	movw	r26, r20
     890:	c9 01       	movw	r24, r18
     892:	b5 95       	asr	r27
     894:	a7 95       	ror	r26
     896:	97 95       	ror	r25
     898:	87 95       	ror	r24
     89a:	21 70       	andi	r18, 0x01	; 1
     89c:	30 70       	andi	r19, 0x00	; 0
     89e:	40 70       	andi	r20, 0x00	; 0
     8a0:	50 70       	andi	r21, 0x00	; 0
     8a2:	28 0f       	add	r18, r24
     8a4:	39 1f       	adc	r19, r25
     8a6:	4a 1f       	adc	r20, r26
     8a8:	5b 1f       	adc	r21, r27
     8aa:	ff 20       	and	r15, r15
     8ac:	39 f4       	brne	.+14     	; 0x8bc <ldivlkD+0xf6>
     8ae:	50 95       	com	r21
     8b0:	40 95       	com	r20
     8b2:	30 95       	com	r19
     8b4:	21 95       	neg	r18
     8b6:	3f 4f       	sbci	r19, 0xFF	; 255
     8b8:	4f 4f       	sbci	r20, 0xFF	; 255
     8ba:	5f 4f       	sbci	r21, 0xFF	; 255
     8bc:	ca 01       	movw	r24, r20
     8be:	b9 01       	movw	r22, r18
     8c0:	df 91       	pop	r29
     8c2:	cf 91       	pop	r28
     8c4:	1f 91       	pop	r17
     8c6:	0f 91       	pop	r16
     8c8:	ff 90       	pop	r15
     8ca:	08 95       	ret

000008cc <lsincoslk>:
     8cc:	ef 92       	push	r14
     8ce:	ff 92       	push	r15
     8d0:	0f 93       	push	r16
     8d2:	1f 93       	push	r17
     8d4:	cf 93       	push	r28
     8d6:	df 93       	push	r29
     8d8:	cd b7       	in	r28, 0x3d	; 61
     8da:	de b7       	in	r29, 0x3e	; 62
     8dc:	2c 97       	sbiw	r28, 0x0c	; 12
     8de:	0f b6       	in	r0, 0x3f	; 63
     8e0:	f8 94       	cli
     8e2:	de bf       	out	0x3e, r29	; 62
     8e4:	0f be       	out	0x3f, r0	; 63
     8e6:	cd bf       	out	0x3d, r28	; 61
     8e8:	6d 83       	std	Y+5, r22	; 0x05
     8ea:	7e 83       	std	Y+6, r23	; 0x06
     8ec:	8f 83       	std	Y+7, r24	; 0x07
     8ee:	98 87       	std	Y+8, r25	; 0x08
     8f0:	7a 01       	movw	r14, r20
     8f2:	19 86       	std	Y+9, r1	; 0x09
     8f4:	1a 86       	std	Y+10, r1	; 0x0a
     8f6:	1b 86       	std	Y+11, r1	; 0x0b
     8f8:	1c 86       	std	Y+12, r1	; 0x0c
     8fa:	11 e0       	ldi	r17, 0x01	; 1
     8fc:	45 2b       	or	r20, r21
     8fe:	21 f4       	brne	.+8      	; 0x908 <__stack+0x9>
     900:	7e 01       	movw	r14, r28
     902:	08 94       	sec
     904:	e1 1c       	adc	r14, r1
     906:	f1 1c       	adc	r15, r1
     908:	60 e0       	ldi	r22, 0x00	; 0
     90a:	2d 81       	ldd	r18, Y+5	; 0x05
     90c:	3e 81       	ldd	r19, Y+6	; 0x06
     90e:	4f 81       	ldd	r20, Y+7	; 0x07
     910:	58 85       	ldd	r21, Y+8	; 0x08
     912:	26 3d       	cpi	r18, 0xD6	; 214
     914:	7e e7       	ldi	r23, 0x7E	; 126
     916:	37 07       	cpc	r19, r23
     918:	78 e4       	ldi	r23, 0x48	; 72
     91a:	47 07       	cpc	r20, r23
     91c:	76 e0       	ldi	r23, 0x06	; 6
     91e:	57 07       	cpc	r21, r23
     920:	fc f0       	brlt	.+62     	; 0x960 <__stack+0x61>
     922:	da 01       	movw	r26, r20
     924:	c9 01       	movw	r24, r18
     926:	86 5d       	subi	r24, 0xD6	; 214
     928:	9e 47       	sbci	r25, 0x7E	; 126
     92a:	a8 44       	sbci	r26, 0x48	; 72
     92c:	b6 40       	sbci	r27, 0x06	; 6
     92e:	61 30       	cpi	r22, 0x01	; 1
     930:	41 f4       	brne	.+16     	; 0x942 <__stack+0x43>
     932:	60 e0       	ldi	r22, 0x00	; 0
     934:	da 01       	movw	r26, r20
     936:	c9 01       	movw	r24, r18
     938:	85 5d       	subi	r24, 0xD5	; 213
     93a:	9e 47       	sbci	r25, 0x7E	; 126
     93c:	a8 44       	sbci	r26, 0x48	; 72
     93e:	b6 40       	sbci	r27, 0x06	; 6
     940:	01 c0       	rjmp	.+2      	; 0x944 <__stack+0x45>
     942:	6f 5f       	subi	r22, 0xFF	; 255
     944:	9c 01       	movw	r18, r24
     946:	ad 01       	movw	r20, r26
     948:	86 3d       	cpi	r24, 0xD6	; 214
     94a:	ee e7       	ldi	r30, 0x7E	; 126
     94c:	9e 07       	cpc	r25, r30
     94e:	e8 e4       	ldi	r30, 0x48	; 72
     950:	ae 07       	cpc	r26, r30
     952:	e6 e0       	ldi	r30, 0x06	; 6
     954:	be 07       	cpc	r27, r30
     956:	2c f7       	brge	.-54     	; 0x922 <__stack+0x23>
     958:	8d 83       	std	Y+5, r24	; 0x05
     95a:	9e 83       	std	Y+6, r25	; 0x06
     95c:	af 83       	std	Y+7, r26	; 0x07
     95e:	b8 87       	std	Y+8, r27	; 0x08
     960:	60 e0       	ldi	r22, 0x00	; 0
     962:	8d 81       	ldd	r24, Y+5	; 0x05
     964:	9e 81       	ldd	r25, Y+6	; 0x06
     966:	af 81       	ldd	r26, Y+7	; 0x07
     968:	b8 85       	ldd	r27, Y+8	; 0x08
     96a:	bb 23       	and	r27, r27
     96c:	bc f4       	brge	.+46     	; 0x99c <__stack+0x9d>
     96e:	9c 01       	movw	r18, r24
     970:	ad 01       	movw	r20, r26
     972:	2a 52       	subi	r18, 0x2A	; 42
     974:	31 48       	sbci	r19, 0x81	; 129
     976:	47 4b       	sbci	r20, 0xB7	; 183
     978:	59 4f       	sbci	r21, 0xF9	; 249
     97a:	61 30       	cpi	r22, 0x01	; 1
     97c:	31 f4       	brne	.+12     	; 0x98a <__stack+0x8b>
     97e:	60 e0       	ldi	r22, 0x00	; 0
     980:	21 50       	subi	r18, 0x01	; 1
     982:	30 40       	sbci	r19, 0x00	; 0
     984:	40 40       	sbci	r20, 0x00	; 0
     986:	50 40       	sbci	r21, 0x00	; 0
     988:	01 c0       	rjmp	.+2      	; 0x98c <__stack+0x8d>
     98a:	6f 5f       	subi	r22, 0xFF	; 255
     98c:	da 01       	movw	r26, r20
     98e:	c9 01       	movw	r24, r18
     990:	57 fd       	sbrc	r21, 7
     992:	ed cf       	rjmp	.-38     	; 0x96e <__stack+0x6f>
     994:	2d 83       	std	Y+5, r18	; 0x05
     996:	3e 83       	std	Y+6, r19	; 0x06
     998:	4f 83       	std	Y+7, r20	; 0x07
     99a:	58 87       	std	Y+8, r21	; 0x08
     99c:	8d 81       	ldd	r24, Y+5	; 0x05
     99e:	9e 81       	ldd	r25, Y+6	; 0x06
     9a0:	af 81       	ldd	r26, Y+7	; 0x07
     9a2:	b8 85       	ldd	r27, Y+8	; 0x08
     9a4:	8c 36       	cpi	r24, 0x6C	; 108
     9a6:	ff e3       	ldi	r31, 0x3F	; 63
     9a8:	9f 07       	cpc	r25, r31
     9aa:	f4 e2       	ldi	r31, 0x24	; 36
     9ac:	af 07       	cpc	r26, r31
     9ae:	f3 e0       	ldi	r31, 0x03	; 3
     9b0:	bf 07       	cpc	r27, r31
     9b2:	4c f0       	brlt	.+18     	; 0x9c6 <__stack+0xc7>
     9b4:	8b 56       	subi	r24, 0x6B	; 107
     9b6:	9f 43       	sbci	r25, 0x3F	; 63
     9b8:	a4 42       	sbci	r26, 0x24	; 36
     9ba:	b3 40       	sbci	r27, 0x03	; 3
     9bc:	8d 83       	std	Y+5, r24	; 0x05
     9be:	9e 83       	std	Y+6, r25	; 0x06
     9c0:	af 83       	std	Y+7, r26	; 0x07
     9c2:	b8 87       	std	Y+8, r27	; 0x08
     9c4:	13 e0       	ldi	r17, 0x03	; 3
     9c6:	2d 81       	ldd	r18, Y+5	; 0x05
     9c8:	3e 81       	ldd	r19, Y+6	; 0x06
     9ca:	4f 81       	ldd	r20, Y+7	; 0x07
     9cc:	58 85       	ldd	r21, Y+8	; 0x08
     9ce:	26 3b       	cpi	r18, 0xB6	; 182
     9d0:	7f e1       	ldi	r23, 0x1F	; 31
     9d2:	37 07       	cpc	r19, r23
     9d4:	72 e9       	ldi	r23, 0x92	; 146
     9d6:	47 07       	cpc	r20, r23
     9d8:	71 e0       	ldi	r23, 0x01	; 1
     9da:	57 07       	cpc	r21, r23
     9dc:	6c f0       	brlt	.+26     	; 0x9f8 <__stack+0xf9>
     9de:	8b e6       	ldi	r24, 0x6B	; 107
     9e0:	9f e3       	ldi	r25, 0x3F	; 63
     9e2:	a4 e2       	ldi	r26, 0x24	; 36
     9e4:	b3 e0       	ldi	r27, 0x03	; 3
     9e6:	82 1b       	sub	r24, r18
     9e8:	93 0b       	sbc	r25, r19
     9ea:	a4 0b       	sbc	r26, r20
     9ec:	b5 0b       	sbc	r27, r21
     9ee:	8d 83       	std	Y+5, r24	; 0x05
     9f0:	9e 83       	std	Y+6, r25	; 0x06
     9f2:	af 83       	std	Y+7, r26	; 0x07
     9f4:	b8 87       	std	Y+8, r27	; 0x08
     9f6:	1f 5f       	subi	r17, 0xFF	; 255
     9f8:	8d 81       	ldd	r24, Y+5	; 0x05
     9fa:	9e 81       	ldd	r25, Y+6	; 0x06
     9fc:	af 81       	ldd	r26, Y+7	; 0x07
     9fe:	b8 85       	ldd	r27, Y+8	; 0x08
     a00:	00 97       	sbiw	r24, 0x00	; 0
     a02:	a1 05       	cpc	r26, r1
     a04:	b1 05       	cpc	r27, r1
     a06:	b1 f4       	brne	.+44     	; 0xa34 <__stack+0x135>
     a08:	12 50       	subi	r17, 0x02	; 2
     a0a:	12 30       	cpi	r17, 0x02	; 2
     a0c:	28 f4       	brcc	.+10     	; 0xa18 <__stack+0x119>
     a0e:	80 e0       	ldi	r24, 0x00	; 0
     a10:	90 e0       	ldi	r25, 0x00	; 0
     a12:	a0 e0       	ldi	r26, 0x00	; 0
     a14:	bf ef       	ldi	r27, 0xFF	; 255
     a16:	04 c0       	rjmp	.+8      	; 0xa20 <__stack+0x121>
     a18:	80 e0       	ldi	r24, 0x00	; 0
     a1a:	90 e0       	ldi	r25, 0x00	; 0
     a1c:	a0 e0       	ldi	r26, 0x00	; 0
     a1e:	b1 e0       	ldi	r27, 0x01	; 1
     a20:	f7 01       	movw	r30, r14
     a22:	80 83       	st	Z, r24
     a24:	91 83       	std	Z+1, r25	; 0x01
     a26:	a2 83       	std	Z+2, r26	; 0x02
     a28:	b3 83       	std	Z+3, r27	; 0x03
     a2a:	60 e0       	ldi	r22, 0x00	; 0
     a2c:	70 e0       	ldi	r23, 0x00	; 0
     a2e:	80 e0       	ldi	r24, 0x00	; 0
     a30:	90 e0       	ldi	r25, 0x00	; 0
     a32:	55 c0       	rjmp	.+170    	; 0xade <__stack+0x1df>
     a34:	8c ee       	ldi	r24, 0xEC	; 236
     a36:	94 e7       	ldi	r25, 0x74	; 116
     a38:	ab e9       	ldi	r26, 0x9B	; 155
     a3a:	b0 e0       	ldi	r27, 0x00	; 0
     a3c:	f7 01       	movw	r30, r14
     a3e:	80 83       	st	Z, r24
     a40:	91 83       	std	Z+1, r25	; 0x01
     a42:	a2 83       	std	Z+2, r26	; 0x02
     a44:	b3 83       	std	Z+3, r27	; 0x03
     a46:	00 e0       	ldi	r16, 0x00	; 0
     a48:	28 e1       	ldi	r18, 0x18	; 24
     a4a:	ae 01       	movw	r20, r28
     a4c:	4b 5f       	subi	r20, 0xFB	; 251
     a4e:	5f 4f       	sbci	r21, 0xFF	; 255
     a50:	be 01       	movw	r22, r28
     a52:	67 5f       	subi	r22, 0xF7	; 247
     a54:	7f 4f       	sbci	r23, 0xFF	; 255
     a56:	c7 01       	movw	r24, r14
     a58:	0e 94 52 06 	call	0xca4	; 0xca4 <cordicck>
     a5c:	81 2f       	mov	r24, r17
     a5e:	99 27       	eor	r25, r25
     a60:	83 30       	cpi	r24, 0x03	; 3
     a62:	91 05       	cpc	r25, r1
     a64:	49 f0       	breq	.+18     	; 0xa78 <__stack+0x179>
     a66:	84 30       	cpi	r24, 0x04	; 4
     a68:	91 05       	cpc	r25, r1
     a6a:	1c f4       	brge	.+6      	; 0xa72 <__stack+0x173>
     a6c:	02 97       	sbiw	r24, 0x02	; 2
     a6e:	99 f0       	breq	.+38     	; 0xa96 <__stack+0x197>
     a70:	32 c0       	rjmp	.+100    	; 0xad6 <__stack+0x1d7>
     a72:	04 97       	sbiw	r24, 0x04	; 4
     a74:	09 f1       	breq	.+66     	; 0xab8 <__stack+0x1b9>
     a76:	2f c0       	rjmp	.+94     	; 0xad6 <__stack+0x1d7>
     a78:	89 85       	ldd	r24, Y+9	; 0x09
     a7a:	9a 85       	ldd	r25, Y+10	; 0x0a
     a7c:	ab 85       	ldd	r26, Y+11	; 0x0b
     a7e:	bc 85       	ldd	r27, Y+12	; 0x0c
     a80:	b0 95       	com	r27
     a82:	a0 95       	com	r26
     a84:	90 95       	com	r25
     a86:	81 95       	neg	r24
     a88:	9f 4f       	sbci	r25, 0xFF	; 255
     a8a:	af 4f       	sbci	r26, 0xFF	; 255
     a8c:	bf 4f       	sbci	r27, 0xFF	; 255
     a8e:	89 87       	std	Y+9, r24	; 0x09
     a90:	9a 87       	std	Y+10, r25	; 0x0a
     a92:	ab 87       	std	Y+11, r26	; 0x0b
     a94:	bc 87       	std	Y+12, r27	; 0x0c
     a96:	f7 01       	movw	r30, r14
     a98:	80 81       	ld	r24, Z
     a9a:	91 81       	ldd	r25, Z+1	; 0x01
     a9c:	a2 81       	ldd	r26, Z+2	; 0x02
     a9e:	b3 81       	ldd	r27, Z+3	; 0x03
     aa0:	b0 95       	com	r27
     aa2:	a0 95       	com	r26
     aa4:	90 95       	com	r25
     aa6:	81 95       	neg	r24
     aa8:	9f 4f       	sbci	r25, 0xFF	; 255
     aaa:	af 4f       	sbci	r26, 0xFF	; 255
     aac:	bf 4f       	sbci	r27, 0xFF	; 255
     aae:	80 83       	st	Z, r24
     ab0:	91 83       	std	Z+1, r25	; 0x01
     ab2:	a2 83       	std	Z+2, r26	; 0x02
     ab4:	b3 83       	std	Z+3, r27	; 0x03
     ab6:	0f c0       	rjmp	.+30     	; 0xad6 <__stack+0x1d7>
     ab8:	89 85       	ldd	r24, Y+9	; 0x09
     aba:	9a 85       	ldd	r25, Y+10	; 0x0a
     abc:	ab 85       	ldd	r26, Y+11	; 0x0b
     abe:	bc 85       	ldd	r27, Y+12	; 0x0c
     ac0:	b0 95       	com	r27
     ac2:	a0 95       	com	r26
     ac4:	90 95       	com	r25
     ac6:	81 95       	neg	r24
     ac8:	9f 4f       	sbci	r25, 0xFF	; 255
     aca:	af 4f       	sbci	r26, 0xFF	; 255
     acc:	bf 4f       	sbci	r27, 0xFF	; 255
     ace:	89 87       	std	Y+9, r24	; 0x09
     ad0:	9a 87       	std	Y+10, r25	; 0x0a
     ad2:	ab 87       	std	Y+11, r26	; 0x0b
     ad4:	bc 87       	std	Y+12, r27	; 0x0c
     ad6:	69 85       	ldd	r22, Y+9	; 0x09
     ad8:	7a 85       	ldd	r23, Y+10	; 0x0a
     ada:	8b 85       	ldd	r24, Y+11	; 0x0b
     adc:	9c 85       	ldd	r25, Y+12	; 0x0c
     ade:	2c 96       	adiw	r28, 0x0c	; 12
     ae0:	0f b6       	in	r0, 0x3f	; 63
     ae2:	f8 94       	cli
     ae4:	de bf       	out	0x3e, r29	; 62
     ae6:	0f be       	out	0x3f, r0	; 63
     ae8:	cd bf       	out	0x3d, r28	; 61
     aea:	df 91       	pop	r29
     aec:	cf 91       	pop	r28
     aee:	1f 91       	pop	r17
     af0:	0f 91       	pop	r16
     af2:	ff 90       	pop	r15
     af4:	ef 90       	pop	r14
     af6:	08 95       	ret

00000af8 <latan2lk>:
     af8:	8f 92       	push	r8
     afa:	9f 92       	push	r9
     afc:	af 92       	push	r10
     afe:	bf 92       	push	r11
     b00:	cf 92       	push	r12
     b02:	df 92       	push	r13
     b04:	ef 92       	push	r14
     b06:	ff 92       	push	r15
     b08:	0f 93       	push	r16
     b0a:	1f 93       	push	r17
     b0c:	cf 93       	push	r28
     b0e:	df 93       	push	r29
     b10:	cd b7       	in	r28, 0x3d	; 61
     b12:	de b7       	in	r29, 0x3e	; 62
     b14:	2c 97       	sbiw	r28, 0x0c	; 12
     b16:	0f b6       	in	r0, 0x3f	; 63
     b18:	f8 94       	cli
     b1a:	de bf       	out	0x3e, r29	; 62
     b1c:	0f be       	out	0x3f, r0	; 63
     b1e:	cd bf       	out	0x3d, r28	; 61
     b20:	69 83       	std	Y+1, r22	; 0x01
     b22:	7a 83       	std	Y+2, r23	; 0x02
     b24:	8b 83       	std	Y+3, r24	; 0x03
     b26:	9c 83       	std	Y+4, r25	; 0x04
     b28:	2d 83       	std	Y+5, r18	; 0x05
     b2a:	3e 83       	std	Y+6, r19	; 0x06
     b2c:	4f 83       	std	Y+7, r20	; 0x07
     b2e:	58 87       	std	Y+8, r21	; 0x08
     b30:	19 86       	std	Y+9, r1	; 0x09
     b32:	1a 86       	std	Y+10, r1	; 0x0a
     b34:	1b 86       	std	Y+11, r1	; 0x0b
     b36:	1c 86       	std	Y+12, r1	; 0x0c
     b38:	59 01       	movw	r10, r18
     b3a:	6a 01       	movw	r12, r20
     b3c:	21 15       	cp	r18, r1
     b3e:	31 05       	cpc	r19, r1
     b40:	41 05       	cpc	r20, r1
     b42:	51 05       	cpc	r21, r1
     b44:	19 f4       	brne	.+6      	; 0xb4c <latan2lk+0x54>
     b46:	ca 01       	movw	r24, r20
     b48:	b9 01       	movw	r22, r18
     b4a:	99 c0       	rjmp	.+306    	; 0xc7e <latan2lk+0x186>
     b4c:	79 01       	movw	r14, r18
     b4e:	8a 01       	movw	r16, r20
     b50:	e0 94       	com	r14
     b52:	f0 94       	com	r15
     b54:	00 95       	com	r16
     b56:	10 95       	com	r17
     b58:	ee 24       	eor	r14, r14
     b5a:	17 fd       	sbrc	r17, 7
     b5c:	e3 94       	inc	r14
     b5e:	ff 24       	eor	r15, r15
     b60:	00 27       	eor	r16, r16
     b62:	11 27       	eor	r17, r17
     b64:	8e 2c       	mov	r8, r14
     b66:	29 81       	ldd	r18, Y+1	; 0x01
     b68:	3a 81       	ldd	r19, Y+2	; 0x02
     b6a:	4b 81       	ldd	r20, Y+3	; 0x03
     b6c:	5c 81       	ldd	r21, Y+4	; 0x04
     b6e:	21 15       	cp	r18, r1
     b70:	31 05       	cpc	r19, r1
     b72:	41 05       	cpc	r20, r1
     b74:	51 05       	cpc	r21, r1
     b76:	61 f4       	brne	.+24     	; 0xb90 <latan2lk+0x98>
     b78:	ee 20       	and	r14, r14
     b7a:	29 f0       	breq	.+10     	; 0xb86 <latan2lk+0x8e>
     b7c:	6f ef       	ldi	r22, 0xFF	; 255
     b7e:	7f ef       	ldi	r23, 0xFF	; 255
     b80:	8f ef       	ldi	r24, 0xFF	; 255
     b82:	9f e7       	ldi	r25, 0x7F	; 127
     b84:	7c c0       	rjmp	.+248    	; 0xc7e <latan2lk+0x186>
     b86:	61 e0       	ldi	r22, 0x01	; 1
     b88:	70 e0       	ldi	r23, 0x00	; 0
     b8a:	80 e0       	ldi	r24, 0x00	; 0
     b8c:	90 e8       	ldi	r25, 0x80	; 128
     b8e:	77 c0       	rjmp	.+238    	; 0xc7e <latan2lk+0x186>
     b90:	da 01       	movw	r26, r20
     b92:	c9 01       	movw	r24, r18
     b94:	80 95       	com	r24
     b96:	90 95       	com	r25
     b98:	a0 95       	com	r26
     b9a:	b0 95       	com	r27
     b9c:	88 27       	eor	r24, r24
     b9e:	b7 fd       	sbrc	r27, 7
     ba0:	83 95       	inc	r24
     ba2:	99 27       	eor	r25, r25
     ba4:	aa 27       	eor	r26, r26
     ba6:	bb 27       	eor	r27, r27
     ba8:	98 2e       	mov	r9, r24
     baa:	88 23       	and	r24, r24
     bac:	59 f4       	brne	.+22     	; 0xbc4 <latan2lk+0xcc>
     bae:	88 27       	eor	r24, r24
     bb0:	99 27       	eor	r25, r25
     bb2:	dc 01       	movw	r26, r24
     bb4:	82 1b       	sub	r24, r18
     bb6:	93 0b       	sbc	r25, r19
     bb8:	a4 0b       	sbc	r26, r20
     bba:	b5 0b       	sbc	r27, r21
     bbc:	89 83       	std	Y+1, r24	; 0x01
     bbe:	9a 83       	std	Y+2, r25	; 0x02
     bc0:	ab 83       	std	Y+3, r26	; 0x03
     bc2:	bc 83       	std	Y+4, r27	; 0x04
     bc4:	ee 20       	and	r14, r14
     bc6:	59 f4       	brne	.+22     	; 0xbde <latan2lk+0xe6>
     bc8:	88 27       	eor	r24, r24
     bca:	99 27       	eor	r25, r25
     bcc:	dc 01       	movw	r26, r24
     bce:	8a 19       	sub	r24, r10
     bd0:	9b 09       	sbc	r25, r11
     bd2:	ac 09       	sbc	r26, r12
     bd4:	bd 09       	sbc	r27, r13
     bd6:	8d 83       	std	Y+5, r24	; 0x05
     bd8:	9e 83       	std	Y+6, r25	; 0x06
     bda:	af 83       	std	Y+7, r26	; 0x07
     bdc:	b8 87       	std	Y+8, r27	; 0x08
     bde:	8c 81       	ldd	r24, Y+4	; 0x04
     be0:	86 fd       	sbrc	r24, 6
     be2:	03 c0       	rjmp	.+6      	; 0xbea <latan2lk+0xf2>
     be4:	88 85       	ldd	r24, Y+8	; 0x08
     be6:	86 ff       	sbrs	r24, 6
     be8:	18 c0       	rjmp	.+48     	; 0xc1a <latan2lk+0x122>
     bea:	89 81       	ldd	r24, Y+1	; 0x01
     bec:	9a 81       	ldd	r25, Y+2	; 0x02
     bee:	ab 81       	ldd	r26, Y+3	; 0x03
     bf0:	bc 81       	ldd	r27, Y+4	; 0x04
     bf2:	b5 95       	asr	r27
     bf4:	a7 95       	ror	r26
     bf6:	97 95       	ror	r25
     bf8:	87 95       	ror	r24
     bfa:	89 83       	std	Y+1, r24	; 0x01
     bfc:	9a 83       	std	Y+2, r25	; 0x02
     bfe:	ab 83       	std	Y+3, r26	; 0x03
     c00:	bc 83       	std	Y+4, r27	; 0x04
     c02:	8d 81       	ldd	r24, Y+5	; 0x05
     c04:	9e 81       	ldd	r25, Y+6	; 0x06
     c06:	af 81       	ldd	r26, Y+7	; 0x07
     c08:	b8 85       	ldd	r27, Y+8	; 0x08
     c0a:	b5 95       	asr	r27
     c0c:	a7 95       	ror	r26
     c0e:	97 95       	ror	r25
     c10:	87 95       	ror	r24
     c12:	8d 83       	std	Y+5, r24	; 0x05
     c14:	9e 83       	std	Y+6, r25	; 0x06
     c16:	af 83       	std	Y+7, r26	; 0x07
     c18:	b8 87       	std	Y+8, r27	; 0x08
     c1a:	01 e0       	ldi	r16, 0x01	; 1
     c1c:	28 e1       	ldi	r18, 0x18	; 24
     c1e:	ae 01       	movw	r20, r28
     c20:	47 5f       	subi	r20, 0xF7	; 247
     c22:	5f 4f       	sbci	r21, 0xFF	; 255
     c24:	be 01       	movw	r22, r28
     c26:	6b 5f       	subi	r22, 0xFB	; 251
     c28:	7f 4f       	sbci	r23, 0xFF	; 255
     c2a:	ce 01       	movw	r24, r28
     c2c:	01 96       	adiw	r24, 0x01	; 1
     c2e:	0e 94 52 06 	call	0xca4	; 0xca4 <cordicck>
     c32:	88 20       	and	r8, r8
     c34:	59 f0       	breq	.+22     	; 0xc4c <latan2lk+0x154>
     c36:	69 85       	ldd	r22, Y+9	; 0x09
     c38:	7a 85       	ldd	r23, Y+10	; 0x0a
     c3a:	8b 85       	ldd	r24, Y+11	; 0x0b
     c3c:	9c 85       	ldd	r25, Y+12	; 0x0c
     c3e:	99 20       	and	r9, r9
     c40:	f1 f4       	brne	.+60     	; 0xc7e <latan2lk+0x186>
     c42:	6b 54       	subi	r22, 0x4B	; 75
     c44:	70 4e       	sbci	r23, 0xE0	; 224
     c46:	8d 46       	sbci	r24, 0x6D	; 109
     c48:	9e 4f       	sbci	r25, 0xFE	; 254
     c4a:	19 c0       	rjmp	.+50     	; 0xc7e <latan2lk+0x186>
     c4c:	69 85       	ldd	r22, Y+9	; 0x09
     c4e:	7a 85       	ldd	r23, Y+10	; 0x0a
     c50:	8b 85       	ldd	r24, Y+11	; 0x0b
     c52:	9c 85       	ldd	r25, Y+12	; 0x0c
     c54:	99 20       	and	r9, r9
     c56:	41 f0       	breq	.+16     	; 0xc68 <latan2lk+0x170>
     c58:	90 95       	com	r25
     c5a:	80 95       	com	r24
     c5c:	70 95       	com	r23
     c5e:	61 95       	neg	r22
     c60:	7f 4f       	sbci	r23, 0xFF	; 255
     c62:	8f 4f       	sbci	r24, 0xFF	; 255
     c64:	9f 4f       	sbci	r25, 0xFF	; 255
     c66:	0b c0       	rjmp	.+22     	; 0xc7e <latan2lk+0x186>
     c68:	90 95       	com	r25
     c6a:	80 95       	com	r24
     c6c:	70 95       	com	r23
     c6e:	61 95       	neg	r22
     c70:	7f 4f       	sbci	r23, 0xFF	; 255
     c72:	8f 4f       	sbci	r24, 0xFF	; 255
     c74:	9f 4f       	sbci	r25, 0xFF	; 255
     c76:	65 5b       	subi	r22, 0xB5	; 181
     c78:	7f 41       	sbci	r23, 0x1F	; 31
     c7a:	82 49       	sbci	r24, 0x92	; 146
     c7c:	91 40       	sbci	r25, 0x01	; 1
     c7e:	2c 96       	adiw	r28, 0x0c	; 12
     c80:	0f b6       	in	r0, 0x3f	; 63
     c82:	f8 94       	cli
     c84:	de bf       	out	0x3e, r29	; 62
     c86:	0f be       	out	0x3f, r0	; 63
     c88:	cd bf       	out	0x3d, r28	; 61
     c8a:	df 91       	pop	r29
     c8c:	cf 91       	pop	r28
     c8e:	1f 91       	pop	r17
     c90:	0f 91       	pop	r16
     c92:	ff 90       	pop	r15
     c94:	ef 90       	pop	r14
     c96:	df 90       	pop	r13
     c98:	cf 90       	pop	r12
     c9a:	bf 90       	pop	r11
     c9c:	af 90       	pop	r10
     c9e:	9f 90       	pop	r9
     ca0:	8f 90       	pop	r8
     ca2:	08 95       	ret

00000ca4 <cordicck>:
     ca4:	2f 92       	push	r2
     ca6:	3f 92       	push	r3
     ca8:	4f 92       	push	r4
     caa:	5f 92       	push	r5
     cac:	6f 92       	push	r6
     cae:	7f 92       	push	r7
     cb0:	8f 92       	push	r8
     cb2:	9f 92       	push	r9
     cb4:	af 92       	push	r10
     cb6:	bf 92       	push	r11
     cb8:	cf 92       	push	r12
     cba:	df 92       	push	r13
     cbc:	ef 92       	push	r14
     cbe:	ff 92       	push	r15
     cc0:	0f 93       	push	r16
     cc2:	1f 93       	push	r17
     cc4:	cf 93       	push	r28
     cc6:	df 93       	push	r29
     cc8:	cd b7       	in	r28, 0x3d	; 61
     cca:	de b7       	in	r29, 0x3e	; 62
     ccc:	c7 56       	subi	r28, 0x67	; 103
     cce:	d0 40       	sbci	r29, 0x00	; 0
     cd0:	0f b6       	in	r0, 0x3f	; 63
     cd2:	f8 94       	cli
     cd4:	de bf       	out	0x3e, r29	; 62
     cd6:	0f be       	out	0x3f, r0	; 63
     cd8:	cd bf       	out	0x3d, r28	; 61
     cda:	2c 01       	movw	r4, r24
     cdc:	1b 01       	movw	r2, r22
     cde:	a7 96       	adiw	r28, 0x27	; 39
     ce0:	4e af       	std	Y+62, r20	; 0x3e
     ce2:	5f af       	std	Y+63, r21	; 0x3f
     ce4:	a7 97       	sbiw	r28, 0x27	; 39
     ce6:	a8 96       	adiw	r28, 0x28	; 40
     ce8:	2f af       	std	Y+63, r18	; 0x3f
     cea:	a8 97       	sbiw	r28, 0x28	; 40
     cec:	60 2e       	mov	r6, r16
     cee:	84 e6       	ldi	r24, 0x64	; 100
     cf0:	de 01       	movw	r26, r28
     cf2:	11 96       	adiw	r26, 0x01	; 1
     cf4:	ee ec       	ldi	r30, 0xCE	; 206
     cf6:	f2 e0       	ldi	r31, 0x02	; 2
     cf8:	01 90       	ld	r0, Z+
     cfa:	0d 92       	st	X+, r0
     cfc:	8a 95       	dec	r24
     cfe:	e1 f7       	brne	.-8      	; 0xcf8 <cordicck+0x54>
     d00:	f2 01       	movw	r30, r4
     d02:	c0 80       	ld	r12, Z
     d04:	d1 80       	ldd	r13, Z+1	; 0x01
     d06:	e2 80       	ldd	r14, Z+2	; 0x02
     d08:	f3 80       	ldd	r15, Z+3	; 0x03
     d0a:	fb 01       	movw	r30, r22
     d0c:	40 81       	ld	r20, Z
     d0e:	51 81       	ldd	r21, Z+1	; 0x01
     d10:	62 81       	ldd	r22, Z+2	; 0x02
     d12:	73 81       	ldd	r23, Z+3	; 0x03
     d14:	a7 96       	adiw	r28, 0x27	; 39
     d16:	ee ad       	ldd	r30, Y+62	; 0x3e
     d18:	ff ad       	ldd	r31, Y+63	; 0x3f
     d1a:	a7 97       	sbiw	r28, 0x27	; 39
     d1c:	80 80       	ld	r8, Z
     d1e:	91 80       	ldd	r9, Z+1	; 0x01
     d20:	a2 80       	ldd	r10, Z+2	; 0x02
     d22:	b3 80       	ldd	r11, Z+3	; 0x03
     d24:	77 24       	eor	r7, r7
     d26:	97 01       	movw	r18, r14
     d28:	86 01       	movw	r16, r12
     d2a:	66 20       	and	r6, r6
     d2c:	29 f0       	breq	.+10     	; 0xd38 <cordicck+0x94>
     d2e:	14 16       	cp	r1, r20
     d30:	15 06       	cpc	r1, r21
     d32:	16 06       	cpc	r1, r22
     d34:	17 06       	cpc	r1, r23
     d36:	24 f4       	brge	.+8      	; 0xd40 <cordicck+0x9c>
     d38:	66 20       	and	r6, r6
     d3a:	69 f5       	brne	.+90     	; 0xd96 <cordicck+0xf2>
     d3c:	b7 fc       	sbrc	r11, 7
     d3e:	2b c0       	rjmp	.+86     	; 0xd96 <cordicck+0xf2>
     d40:	e7 2d       	mov	r30, r7
     d42:	ff 27       	eor	r31, r31
     d44:	db 01       	movw	r26, r22
     d46:	ca 01       	movw	r24, r20
     d48:	0e 2e       	mov	r0, r30
     d4a:	04 c0       	rjmp	.+8      	; 0xd54 <cordicck+0xb0>
     d4c:	b5 95       	asr	r27
     d4e:	a7 95       	ror	r26
     d50:	97 95       	ror	r25
     d52:	87 95       	ror	r24
     d54:	0a 94       	dec	r0
     d56:	d2 f7       	brpl	.-12     	; 0xd4c <cordicck+0xa8>
     d58:	c8 1a       	sub	r12, r24
     d5a:	d9 0a       	sbc	r13, r25
     d5c:	ea 0a       	sbc	r14, r26
     d5e:	fb 0a       	sbc	r15, r27
     d60:	0e 2e       	mov	r0, r30
     d62:	04 c0       	rjmp	.+8      	; 0xd6c <cordicck+0xc8>
     d64:	35 95       	asr	r19
     d66:	27 95       	ror	r18
     d68:	17 95       	ror	r17
     d6a:	07 95       	ror	r16
     d6c:	0a 94       	dec	r0
     d6e:	d2 f7       	brpl	.-12     	; 0xd64 <cordicck+0xc0>
     d70:	40 0f       	add	r20, r16
     d72:	51 1f       	adc	r21, r17
     d74:	62 1f       	adc	r22, r18
     d76:	73 1f       	adc	r23, r19
     d78:	ee 0f       	add	r30, r30
     d7a:	ff 1f       	adc	r31, r31
     d7c:	ee 0f       	add	r30, r30
     d7e:	ff 1f       	adc	r31, r31
     d80:	ec 0f       	add	r30, r28
     d82:	fd 1f       	adc	r31, r29
     d84:	81 81       	ldd	r24, Z+1	; 0x01
     d86:	92 81       	ldd	r25, Z+2	; 0x02
     d88:	a3 81       	ldd	r26, Z+3	; 0x03
     d8a:	b4 81       	ldd	r27, Z+4	; 0x04
     d8c:	88 1a       	sub	r8, r24
     d8e:	99 0a       	sbc	r9, r25
     d90:	aa 0a       	sbc	r10, r26
     d92:	bb 0a       	sbc	r11, r27
     d94:	2a c0       	rjmp	.+84     	; 0xdea <cordicck+0x146>
     d96:	e7 2d       	mov	r30, r7
     d98:	ff 27       	eor	r31, r31
     d9a:	db 01       	movw	r26, r22
     d9c:	ca 01       	movw	r24, r20
     d9e:	0e 2e       	mov	r0, r30
     da0:	04 c0       	rjmp	.+8      	; 0xdaa <cordicck+0x106>
     da2:	b5 95       	asr	r27
     da4:	a7 95       	ror	r26
     da6:	97 95       	ror	r25
     da8:	87 95       	ror	r24
     daa:	0a 94       	dec	r0
     dac:	d2 f7       	brpl	.-12     	; 0xda2 <cordicck+0xfe>
     dae:	c8 0e       	add	r12, r24
     db0:	d9 1e       	adc	r13, r25
     db2:	ea 1e       	adc	r14, r26
     db4:	fb 1e       	adc	r15, r27
     db6:	0e 2e       	mov	r0, r30
     db8:	04 c0       	rjmp	.+8      	; 0xdc2 <cordicck+0x11e>
     dba:	35 95       	asr	r19
     dbc:	27 95       	ror	r18
     dbe:	17 95       	ror	r17
     dc0:	07 95       	ror	r16
     dc2:	0a 94       	dec	r0
     dc4:	d2 f7       	brpl	.-12     	; 0xdba <cordicck+0x116>
     dc6:	40 1b       	sub	r20, r16
     dc8:	51 0b       	sbc	r21, r17
     dca:	62 0b       	sbc	r22, r18
     dcc:	73 0b       	sbc	r23, r19
     dce:	ee 0f       	add	r30, r30
     dd0:	ff 1f       	adc	r31, r31
     dd2:	ee 0f       	add	r30, r30
     dd4:	ff 1f       	adc	r31, r31
     dd6:	ec 0f       	add	r30, r28
     dd8:	fd 1f       	adc	r31, r29
     dda:	81 81       	ldd	r24, Z+1	; 0x01
     ddc:	92 81       	ldd	r25, Z+2	; 0x02
     dde:	a3 81       	ldd	r26, Z+3	; 0x03
     de0:	b4 81       	ldd	r27, Z+4	; 0x04
     de2:	88 0e       	add	r8, r24
     de4:	99 1e       	adc	r9, r25
     de6:	aa 1e       	adc	r10, r26
     de8:	bb 1e       	adc	r11, r27
     dea:	73 94       	inc	r7
     dec:	a8 96       	adiw	r28, 0x28	; 40
     dee:	ff ad       	ldd	r31, Y+63	; 0x3f
     df0:	a8 97       	sbiw	r28, 0x28	; 40
     df2:	f7 15       	cp	r31, r7
     df4:	08 f0       	brcs	.+2      	; 0xdf8 <cordicck+0x154>
     df6:	97 cf       	rjmp	.-210    	; 0xd26 <cordicck+0x82>
     df8:	f2 01       	movw	r30, r4
     dfa:	c0 82       	st	Z, r12
     dfc:	d1 82       	std	Z+1, r13	; 0x01
     dfe:	e2 82       	std	Z+2, r14	; 0x02
     e00:	f3 82       	std	Z+3, r15	; 0x03
     e02:	f1 01       	movw	r30, r2
     e04:	40 83       	st	Z, r20
     e06:	51 83       	std	Z+1, r21	; 0x01
     e08:	62 83       	std	Z+2, r22	; 0x02
     e0a:	73 83       	std	Z+3, r23	; 0x03
     e0c:	a7 96       	adiw	r28, 0x27	; 39
     e0e:	ee ad       	ldd	r30, Y+62	; 0x3e
     e10:	ff ad       	ldd	r31, Y+63	; 0x3f
     e12:	a7 97       	sbiw	r28, 0x27	; 39
     e14:	80 82       	st	Z, r8
     e16:	91 82       	std	Z+1, r9	; 0x01
     e18:	a2 82       	std	Z+2, r10	; 0x02
     e1a:	b3 82       	std	Z+3, r11	; 0x03
     e1c:	c9 59       	subi	r28, 0x99	; 153
     e1e:	df 4f       	sbci	r29, 0xFF	; 255
     e20:	0f b6       	in	r0, 0x3f	; 63
     e22:	f8 94       	cli
     e24:	de bf       	out	0x3e, r29	; 62
     e26:	0f be       	out	0x3f, r0	; 63
     e28:	cd bf       	out	0x3d, r28	; 61
     e2a:	df 91       	pop	r29
     e2c:	cf 91       	pop	r28
     e2e:	1f 91       	pop	r17
     e30:	0f 91       	pop	r16
     e32:	ff 90       	pop	r15
     e34:	ef 90       	pop	r14
     e36:	df 90       	pop	r13
     e38:	cf 90       	pop	r12
     e3a:	bf 90       	pop	r11
     e3c:	af 90       	pop	r10
     e3e:	9f 90       	pop	r9
     e40:	8f 90       	pop	r8
     e42:	7f 90       	pop	r7
     e44:	6f 90       	pop	r6
     e46:	5f 90       	pop	r5
     e48:	4f 90       	pop	r4
     e4a:	3f 90       	pop	r3
     e4c:	2f 90       	pop	r2
     e4e:	08 95       	ret

00000e50 <_ZN7TwoWire17beginTransmissionEi>:
}

void TwoWire::beginTransmission(uint8_t address)
{
  // indicate that we are transmitting
  transmitting = 1;
     e50:	81 e0       	ldi	r24, 0x01	; 1
     e52:	80 93 05 04 	sts	0x0405, r24
  // set address of targeted slave
  txAddress = address;
     e56:	60 93 e2 03 	sts	0x03E2, r22
  // reset tx buffer iterator vars
  txBufferIndex = 0;
     e5a:	10 92 03 04 	sts	0x0403, r1
  txBufferLength = 0;
     e5e:	10 92 04 04 	sts	0x0404, r1
}

void TwoWire::beginTransmission(int address)
{
  beginTransmission((uint8_t)address);
}
     e62:	08 95       	ret

00000e64 <_ZN7TwoWire9availableEv>:
}

// must be called in:
// slave rx event callback
// or after requestFrom(address, numBytes)
int TwoWire::available(void)
     e64:	20 91 e1 03 	lds	r18, 0x03E1
     e68:	30 e0       	ldi	r19, 0x00	; 0
     e6a:	80 91 e0 03 	lds	r24, 0x03E0
     e6e:	28 1b       	sub	r18, r24
     e70:	31 09       	sbc	r19, r1
{
  return rxBufferLength - rxBufferIndex;
}
     e72:	c9 01       	movw	r24, r18
     e74:	08 95       	ret

00000e76 <_ZN7TwoWire4readEv>:
int TwoWire::read(void)
{
  int value = -1;
  
  // get each successive byte on each call
  if(rxBufferIndex < rxBufferLength){
     e76:	40 91 e0 03 	lds	r20, 0x03E0
     e7a:	80 91 e1 03 	lds	r24, 0x03E1
     e7e:	48 17       	cp	r20, r24
     e80:	18 f0       	brcs	.+6      	; 0xe88 <_ZN7TwoWire4readEv+0x12>
     e82:	2f ef       	ldi	r18, 0xFF	; 255
     e84:	3f ef       	ldi	r19, 0xFF	; 255
     e86:	0a c0       	rjmp	.+20     	; 0xe9c <_ZN7TwoWire4readEv+0x26>
    value = rxBuffer[rxBufferIndex];
     e88:	e4 2f       	mov	r30, r20
     e8a:	f0 e0       	ldi	r31, 0x00	; 0
     e8c:	e0 54       	subi	r30, 0x40	; 64
     e8e:	fc 4f       	sbci	r31, 0xFC	; 252
     e90:	80 81       	ld	r24, Z
     e92:	28 2f       	mov	r18, r24
     e94:	30 e0       	ldi	r19, 0x00	; 0
    ++rxBufferIndex;
     e96:	4f 5f       	subi	r20, 0xFF	; 255
     e98:	40 93 e0 03 	sts	0x03E0, r20
  }

  return value;
}
     e9c:	c9 01       	movw	r24, r18
     e9e:	08 95       	ret

00000ea0 <_ZN7TwoWire4peekEv>:
// or after requestFrom(address, numBytes)
int TwoWire::peek(void)
{
  int value = -1;
  
  if(rxBufferIndex < rxBufferLength){
     ea0:	e0 91 e0 03 	lds	r30, 0x03E0
     ea4:	80 91 e1 03 	lds	r24, 0x03E1
     ea8:	e8 17       	cp	r30, r24
     eaa:	18 f0       	brcs	.+6      	; 0xeb2 <_ZN7TwoWire4peekEv+0x12>
     eac:	ef ef       	ldi	r30, 0xFF	; 255
     eae:	ff ef       	ldi	r31, 0xFF	; 255
     eb0:	06 c0       	rjmp	.+12     	; 0xebe <_ZN7TwoWire4peekEv+0x1e>
    value = rxBuffer[rxBufferIndex];
     eb2:	f0 e0       	ldi	r31, 0x00	; 0
     eb4:	e0 54       	subi	r30, 0x40	; 64
     eb6:	fc 4f       	sbci	r31, 0xFC	; 252
     eb8:	80 81       	ld	r24, Z
     eba:	e8 2f       	mov	r30, r24
     ebc:	f0 e0       	ldi	r31, 0x00	; 0
  }

  return value;
}
     ebe:	cf 01       	movw	r24, r30
     ec0:	08 95       	ret

00000ec2 <_ZN7TwoWire5flushEv>:

void TwoWire::flush(void)
{
  // XXX: to be implemented.
}
     ec2:	08 95       	ret

00000ec4 <_GLOBAL__I__ZN7TwoWire8rxBufferE>:
    size_t printNumber(unsigned long, uint8_t);
    size_t printFloat(double, uint8_t);
  protected:
    void setWriteError(int err = 1) { write_error = err; }
  public:
    Print() : write_error(0) {}
     ec4:	10 92 09 04 	sts	0x0409, r1
     ec8:	10 92 08 04 	sts	0x0408, r1
    virtual int available() = 0;
    virtual int read() = 0;
    virtual int peek() = 0;
    virtual void flush() = 0;

    Stream() {_timeout=1000;}
     ecc:	88 ee       	ldi	r24, 0xE8	; 232
     ece:	93 e0       	ldi	r25, 0x03	; 3
     ed0:	a0 e0       	ldi	r26, 0x00	; 0
     ed2:	b0 e0       	ldi	r27, 0x00	; 0
     ed4:	80 93 0a 04 	sts	0x040A, r24
     ed8:	90 93 0b 04 	sts	0x040B, r25
     edc:	a0 93 0c 04 	sts	0x040C, r26
     ee0:	b0 93 0d 04 	sts	0x040D, r27
void (*TwoWire::user_onRequest)(void);
void (*TwoWire::user_onReceive)(int);

// Constructors ////////////////////////////////////////////////////////////////

TwoWire::TwoWire()
     ee4:	86 e3       	ldi	r24, 0x36	; 54
     ee6:	93 e0       	ldi	r25, 0x03	; 3
     ee8:	90 93 07 04 	sts	0x0407, r25
     eec:	80 93 06 04 	sts	0x0406, r24
  user_onRequest = function;
}

// Preinstantiate Objects //////////////////////////////////////////////////////

TwoWire Wire = TwoWire();
     ef0:	08 95       	ret

00000ef2 <_ZN7TwoWire5writeEPKhj>:
}

// must be called in:
// slave tx event callback
// or after beginTransmission(address)
size_t TwoWire::write(const uint8_t *data, size_t quantity)
     ef2:	cf 92       	push	r12
     ef4:	df 92       	push	r13
     ef6:	ef 92       	push	r14
     ef8:	ff 92       	push	r15
     efa:	0f 93       	push	r16
     efc:	1f 93       	push	r17
     efe:	cf 93       	push	r28
     f00:	df 93       	push	r29
     f02:	7c 01       	movw	r14, r24
     f04:	6b 01       	movw	r12, r22
     f06:	8a 01       	movw	r16, r20
{
  if(transmitting){
     f08:	80 91 05 04 	lds	r24, 0x0405
     f0c:	88 23       	and	r24, r24
     f0e:	a1 f0       	breq	.+40     	; 0xf38 <_ZN7TwoWire5writeEPKhj+0x46>
     f10:	c0 e0       	ldi	r28, 0x00	; 0
     f12:	d0 e0       	ldi	r29, 0x00	; 0
     f14:	0d c0       	rjmp	.+26     	; 0xf30 <_ZN7TwoWire5writeEPKhj+0x3e>
  // in master transmitter mode
    for(size_t i = 0; i < quantity; ++i){
      write(data[i]);
     f16:	d7 01       	movw	r26, r14
     f18:	ed 91       	ld	r30, X+
     f1a:	fc 91       	ld	r31, X
     f1c:	d6 01       	movw	r26, r12
     f1e:	ac 0f       	add	r26, r28
     f20:	bd 1f       	adc	r27, r29
     f22:	01 90       	ld	r0, Z+
     f24:	f0 81       	ld	r31, Z
     f26:	e0 2d       	mov	r30, r0
     f28:	c7 01       	movw	r24, r14
     f2a:	6c 91       	ld	r22, X
     f2c:	09 95       	icall
// or after beginTransmission(address)
size_t TwoWire::write(const uint8_t *data, size_t quantity)
{
  if(transmitting){
  // in master transmitter mode
    for(size_t i = 0; i < quantity; ++i){
     f2e:	21 96       	adiw	r28, 0x01	; 1
     f30:	c0 17       	cp	r28, r16
     f32:	d1 07       	cpc	r29, r17
     f34:	80 f3       	brcs	.-32     	; 0xf16 <_ZN7TwoWire5writeEPKhj+0x24>
     f36:	04 c0       	rjmp	.+8      	; 0xf40 <_ZN7TwoWire5writeEPKhj+0x4e>
      write(data[i]);
    }
  }else{
  // in slave send mode
    // reply to master
    twi_transmit(data, quantity);
     f38:	cb 01       	movw	r24, r22
     f3a:	64 2f       	mov	r22, r20
     f3c:	0e 94 32 01 	call	0x264	; 0x264 <twi_transmit>
  }
  return quantity;
}
     f40:	c8 01       	movw	r24, r16
     f42:	df 91       	pop	r29
     f44:	cf 91       	pop	r28
     f46:	1f 91       	pop	r17
     f48:	0f 91       	pop	r16
     f4a:	ff 90       	pop	r15
     f4c:	ef 90       	pop	r14
     f4e:	df 90       	pop	r13
     f50:	cf 90       	pop	r12
     f52:	08 95       	ret

00000f54 <_ZN7TwoWire5writeEh>:
}

// must be called in:
// slave tx event callback
// or after beginTransmission(address)
size_t TwoWire::write(uint8_t data)
     f54:	df 93       	push	r29
     f56:	cf 93       	push	r28
     f58:	0f 92       	push	r0
     f5a:	cd b7       	in	r28, 0x3d	; 61
     f5c:	de b7       	in	r29, 0x3e	; 62
     f5e:	fc 01       	movw	r30, r24
     f60:	69 83       	std	Y+1, r22	; 0x01
{
  if(transmitting){
     f62:	80 91 05 04 	lds	r24, 0x0405
     f66:	88 23       	and	r24, r24
     f68:	c9 f0       	breq	.+50     	; 0xf9c <_ZN7TwoWire5writeEh+0x48>
  // in master transmitter mode
    // don't bother if buffer is full
    if(txBufferLength >= BUFFER_LENGTH){
     f6a:	80 91 04 04 	lds	r24, 0x0404
     f6e:	80 32       	cpi	r24, 0x20	; 32
     f70:	38 f0       	brcs	.+14     	; 0xf80 <_ZN7TwoWire5writeEh+0x2c>
  private:
    int write_error;
    size_t printNumber(unsigned long, uint8_t);
    size_t printFloat(double, uint8_t);
  protected:
    void setWriteError(int err = 1) { write_error = err; }
     f72:	81 e0       	ldi	r24, 0x01	; 1
     f74:	90 e0       	ldi	r25, 0x00	; 0
     f76:	93 83       	std	Z+3, r25	; 0x03
     f78:	82 83       	std	Z+2, r24	; 0x02
     f7a:	20 e0       	ldi	r18, 0x00	; 0
     f7c:	30 e0       	ldi	r19, 0x00	; 0
     f7e:	15 c0       	rjmp	.+42     	; 0xfaa <_ZN7TwoWire5writeEh+0x56>
      setWriteError();
      return 0;
    }
    // put byte in tx buffer
    txBuffer[txBufferIndex] = data;
     f80:	80 91 03 04 	lds	r24, 0x0403
     f84:	e8 2f       	mov	r30, r24
     f86:	f0 e0       	ldi	r31, 0x00	; 0
     f88:	ed 51       	subi	r30, 0x1D	; 29
     f8a:	fc 4f       	sbci	r31, 0xFC	; 252
     f8c:	99 81       	ldd	r25, Y+1	; 0x01
     f8e:	90 83       	st	Z, r25
    ++txBufferIndex;
     f90:	8f 5f       	subi	r24, 0xFF	; 255
     f92:	80 93 03 04 	sts	0x0403, r24
    // update amount in buffer   
    txBufferLength = txBufferIndex;
     f96:	80 93 04 04 	sts	0x0404, r24
     f9a:	05 c0       	rjmp	.+10     	; 0xfa6 <_ZN7TwoWire5writeEh+0x52>
  }else{
  // in slave send mode
    // reply to master
    twi_transmit(&data, 1);
     f9c:	ce 01       	movw	r24, r28
     f9e:	01 96       	adiw	r24, 0x01	; 1
     fa0:	61 e0       	ldi	r22, 0x01	; 1
     fa2:	0e 94 32 01 	call	0x264	; 0x264 <twi_transmit>
     fa6:	21 e0       	ldi	r18, 0x01	; 1
     fa8:	30 e0       	ldi	r19, 0x00	; 0
  }
  return 1;
}
     faa:	c9 01       	movw	r24, r18
     fac:	0f 90       	pop	r0
     fae:	cf 91       	pop	r28
     fb0:	df 91       	pop	r29
     fb2:	08 95       	ret

00000fb4 <_ZN7TwoWire15endTransmissionEh>:
//	the bus tenure has been properly ended with a STOP. It
//	is very possible to leave the bus in a hung state if
//	no call to endTransmission(true) is made. Some I2C
//	devices will behave oddly if they do not see a STOP.
//
uint8_t TwoWire::endTransmission(uint8_t sendStop)
     fb4:	0f 93       	push	r16
     fb6:	06 2f       	mov	r16, r22
{
  // transmit buffer (blocking)
  int8_t ret = twi_writeTo(txAddress, txBuffer, txBufferLength, 1, sendStop);
     fb8:	80 91 e2 03 	lds	r24, 0x03E2
     fbc:	63 ee       	ldi	r22, 0xE3	; 227
     fbe:	73 e0       	ldi	r23, 0x03	; 3
     fc0:	40 91 04 04 	lds	r20, 0x0404
     fc4:	21 e0       	ldi	r18, 0x01	; 1
     fc6:	0e 94 dd 00 	call	0x1ba	; 0x1ba <twi_writeTo>
  // reset tx buffer iterator vars
  txBufferIndex = 0;
     fca:	10 92 03 04 	sts	0x0403, r1
  txBufferLength = 0;
     fce:	10 92 04 04 	sts	0x0404, r1
  // indicate that we are done transmitting
  transmitting = 0;
     fd2:	10 92 05 04 	sts	0x0405, r1
  return ret;
}
     fd6:	0f 91       	pop	r16
     fd8:	08 95       	ret

00000fda <_ZN7TwoWire15endTransmissionEv>:
//	This provides backwards compatibility with the original
//	definition, and expected behaviour, of endTransmission
//
uint8_t TwoWire::endTransmission(void)
{
  return endTransmission(true);
     fda:	61 e0       	ldi	r22, 0x01	; 1
     fdc:	0e 94 da 07 	call	0xfb4	; 0xfb4 <_ZN7TwoWire15endTransmissionEh>
}
     fe0:	08 95       	ret

00000fe2 <_ZN7TwoWire11requestFromEhhh>:
  // clamp to buffer length
  if(quantity > BUFFER_LENGTH){
    quantity = BUFFER_LENGTH;
  }
  // perform blocking read into buffer
  uint8_t read = twi_readFrom(address, rxBuffer, quantity, sendStop);
     fe2:	41 32       	cpi	r20, 0x21	; 33
     fe4:	08 f0       	brcs	.+2      	; 0xfe8 <_ZN7TwoWire11requestFromEhhh+0x6>
     fe6:	40 e2       	ldi	r20, 0x20	; 32
     fe8:	86 2f       	mov	r24, r22
     fea:	60 ec       	ldi	r22, 0xC0	; 192
     fec:	73 e0       	ldi	r23, 0x03	; 3
     fee:	0e 94 94 00 	call	0x128	; 0x128 <twi_readFrom>
  // set rx buffer iterator vars
  rxBufferIndex = 0;
     ff2:	10 92 e0 03 	sts	0x03E0, r1
  rxBufferLength = read;
     ff6:	80 93 e1 03 	sts	0x03E1, r24

  return read;
}
     ffa:	08 95       	ret

00000ffc <_ZN7TwoWire11requestFromEhh>:

uint8_t TwoWire::requestFrom(uint8_t address, uint8_t quantity)
{
  return requestFrom((uint8_t)address, (uint8_t)quantity, (uint8_t)true);
     ffc:	21 e0       	ldi	r18, 0x01	; 1
     ffe:	0e 94 f1 07 	call	0xfe2	; 0xfe2 <_ZN7TwoWire11requestFromEhhh>
}
    1002:	08 95       	ret

00001004 <_ZN7TwoWire5beginEv>:

// Public Methods //////////////////////////////////////////////////////////////

void TwoWire::begin(void)
{
  rxBufferIndex = 0;
    1004:	10 92 e0 03 	sts	0x03E0, r1
  rxBufferLength = 0;
    1008:	10 92 e1 03 	sts	0x03E1, r1

  txBufferIndex = 0;
    100c:	10 92 03 04 	sts	0x0403, r1
  txBufferLength = 0;
    1010:	10 92 04 04 	sts	0x0404, r1

  twi_init();
    1014:	0e 94 00 03 	call	0x600	; 0x600 <twi_init>
}
    1018:	08 95       	ret

0000101a <_ZN8SPIClass15setClockDividerEh>:

void SPIClass::setClockDivider(uint8_t rate)
{
  SPCR = (SPCR & ~SPI_CLOCK_MASK) | (rate & SPI_CLOCK_MASK);
    101a:	2c b5       	in	r18, 0x2c	; 44
    101c:	38 2f       	mov	r19, r24
    101e:	33 70       	andi	r19, 0x03	; 3
    1020:	2c 7f       	andi	r18, 0xFC	; 252
    1022:	32 2b       	or	r19, r18
    1024:	3c bd       	out	0x2c, r19	; 44
  SPSR = (SPSR & ~SPI_2XCLOCK_MASK) | ((rate >> 2) & SPI_2XCLOCK_MASK);
    1026:	2d b5       	in	r18, 0x2d	; 45
    1028:	90 e0       	ldi	r25, 0x00	; 0
    102a:	95 95       	asr	r25
    102c:	87 95       	ror	r24
    102e:	95 95       	asr	r25
    1030:	87 95       	ror	r24
    1032:	81 70       	andi	r24, 0x01	; 1
    1034:	2e 7f       	andi	r18, 0xFE	; 254
    1036:	82 2b       	or	r24, r18
    1038:	8d bd       	out	0x2d, r24	; 45
}
    103a:	08 95       	ret

0000103c <_ZN8SPIClass5beginEv>:
SPIClass SPI;

void SPIClass::begin() {

  // Set SS to high so a connected chip will be "deselected" by default
  digitalWrite(SS, HIGH);
    103c:	8a e0       	ldi	r24, 0x0A	; 10
    103e:	61 e0       	ldi	r22, 0x01	; 1
    1040:	0e 94 9b 22 	call	0x4536	; 0x4536 <digitalWrite>

  // When the SS pin is set as OUTPUT, it can be used as
  // a general purpose output port (it doesn't influence
  // SPI operations).
  pinMode(SS, OUTPUT);
    1044:	8a e0       	ldi	r24, 0x0A	; 10
    1046:	61 e0       	ldi	r22, 0x01	; 1
    1048:	0e 94 5c 22 	call	0x44b8	; 0x44b8 <pinMode>

  // Warning: if the SS pin ever becomes a LOW INPUT then SPI
  // automatically switches to Slave, so the data direction of
  // the SS pin MUST be kept as OUTPUT.
  SPCR |= _BV(MSTR);
    104c:	8c b5       	in	r24, 0x2c	; 44
    104e:	80 61       	ori	r24, 0x10	; 16
    1050:	8c bd       	out	0x2c, r24	; 44
  SPCR |= _BV(SPE);
    1052:	8c b5       	in	r24, 0x2c	; 44
    1054:	80 64       	ori	r24, 0x40	; 64
    1056:	8c bd       	out	0x2c, r24	; 44
  // MISO pin automatically overrides to INPUT.
  // By doing this AFTER enabling SPI, we avoid accidentally
  // clocking in a single bit since the lines go directly
  // from "input" to SPI control.  
  // http://code.google.com/p/arduino/issues/detail?id=888
  pinMode(SCK, OUTPUT);
    1058:	8d e0       	ldi	r24, 0x0D	; 13
    105a:	61 e0       	ldi	r22, 0x01	; 1
    105c:	0e 94 5c 22 	call	0x44b8	; 0x44b8 <pinMode>
  pinMode(MOSI, OUTPUT);
    1060:	8b e0       	ldi	r24, 0x0B	; 11
    1062:	61 e0       	ldi	r22, 0x01	; 1
    1064:	0e 94 5c 22 	call	0x44b8	; 0x44b8 <pinMode>
}
    1068:	08 95       	ret

0000106a <_ZN7MPU6000C1Ev>:
 * Function:	MPU6000()
 * Scope:		Public
 * Arguments:	None
 * Description:	Constructor for MPU6000 object
 */
MPU6000::MPU6000(){
    106a:	fc 01       	movw	r30, r24
	accelX = 0;							// Initial value of 0.  X-axis acceleration, scale*m/s^2 (full scale range depends on configuration)
    106c:	10 82       	st	Z, r1
    106e:	11 82       	std	Z+1, r1	; 0x01
    1070:	12 82       	std	Z+2, r1	; 0x02
    1072:	13 82       	std	Z+3, r1	; 0x03
	accelY = 0;							// Initial value of 0.  Y-axis acceleration, scale*m/s^2 (full scale range depends on configuration)
    1074:	14 82       	std	Z+4, r1	; 0x04
    1076:	15 82       	std	Z+5, r1	; 0x05
    1078:	16 82       	std	Z+6, r1	; 0x06
    107a:	17 82       	std	Z+7, r1	; 0x07
	accelZ = 0;							// Initial value of 0.  Z-axis acceleration, scale*m/s^2 (full scale range depends on configuration)
    107c:	10 86       	std	Z+8, r1	; 0x08
    107e:	11 86       	std	Z+9, r1	; 0x09
    1080:	12 86       	std	Z+10, r1	; 0x0a
    1082:	13 86       	std	Z+11, r1	; 0x0b
	accelXoffset = 0;					// Initial value of 0.  X-axis acceleration offset, m/s^2.  The data type _lAccum implies it is stored with a factor of 2^24.
    1084:	14 86       	std	Z+12, r1	; 0x0c
    1086:	15 86       	std	Z+13, r1	; 0x0d
    1088:	16 86       	std	Z+14, r1	; 0x0e
    108a:	17 86       	std	Z+15, r1	; 0x0f
	accelYoffset = 0;					// Initial value of 0.  Y-axis acceleration offset, m/s^2.  The data type _lAccum implies it is stored with a factor of 2^24.
    108c:	10 8a       	std	Z+16, r1	; 0x10
    108e:	11 8a       	std	Z+17, r1	; 0x11
    1090:	12 8a       	std	Z+18, r1	; 0x12
    1092:	13 8a       	std	Z+19, r1	; 0x13
	accelZoffset = 0;					// Initial value of 0.  Z-axis acceleration offset, m/s^2.  The data type _lAccum implies it is stored with a factor of 2^24.
    1094:	14 8a       	std	Z+20, r1	; 0x14
    1096:	15 8a       	std	Z+21, r1	; 0x15
    1098:	16 8a       	std	Z+22, r1	; 0x16
    109a:	17 8a       	std	Z+23, r1	; 0x17
	gyroX = 0;							// Initial value of 0.  X-axis gyroscopic rate, scale*rad/sec (full scale range depends on configuration)
    109c:	10 8e       	std	Z+24, r1	; 0x18
    109e:	11 8e       	std	Z+25, r1	; 0x19
    10a0:	12 8e       	std	Z+26, r1	; 0x1a
    10a2:	13 8e       	std	Z+27, r1	; 0x1b
	gyroY = 0;							// Initial value of 0.  Y-axis gyroscopic rate, scale*rad/sec (full scale range depends on configuration)
    10a4:	14 8e       	std	Z+28, r1	; 0x1c
    10a6:	15 8e       	std	Z+29, r1	; 0x1d
    10a8:	16 8e       	std	Z+30, r1	; 0x1e
    10aa:	17 8e       	std	Z+31, r1	; 0x1f
	gyroZ = 0;							// Initial value of 0.  Z-axis gyroscopic rate, scale*rad/sec (full scale range depends on configuration)
    10ac:	10 a2       	std	Z+32, r1	; 0x20
    10ae:	11 a2       	std	Z+33, r1	; 0x21
    10b0:	12 a2       	std	Z+34, r1	; 0x22
    10b2:	13 a2       	std	Z+35, r1	; 0x23
	gyroXoffset = 0;					// Initial value of 0.  X-axis gyroscopic rate offset, rad/sec.  The data type _lAccum implies it is stored with a factor of 2^24.
    10b4:	14 a2       	std	Z+36, r1	; 0x24
    10b6:	15 a2       	std	Z+37, r1	; 0x25
    10b8:	16 a2       	std	Z+38, r1	; 0x26
    10ba:	17 a2       	std	Z+39, r1	; 0x27
	gyroYoffset = 0;					// Initial value of 0.  Y-axis gyroscopic rate offset, rad/sec.  The data type _lAccum implies it is stored with a factor of 2^24.
    10bc:	10 a6       	std	Z+40, r1	; 0x28
    10be:	11 a6       	std	Z+41, r1	; 0x29
    10c0:	12 a6       	std	Z+42, r1	; 0x2a
    10c2:	13 a6       	std	Z+43, r1	; 0x2b
	gyroZoffset = 0;					// Initial value of 0.  Z-axis gyroscopic rate offset, rad/sec.  The data type _lAccum implies it is stored with a factor of 2^24.
    10c4:	14 a6       	std	Z+44, r1	; 0x2c
    10c6:	15 a6       	std	Z+45, r1	; 0x2d
    10c8:	16 a6       	std	Z+46, r1	; 0x2e
    10ca:	17 a6       	std	Z+47, r1	; 0x2f
	angleX = 0;							// X-axis roll angle, in rad.  Positive value indicates roll right.  Calculated value using location of gravity vector measured from accelerometer values.   The data type _lAccum implies it is stored with a factor of 2^24.
    10cc:	10 aa       	std	Z+48, r1	; 0x30
    10ce:	11 aa       	std	Z+49, r1	; 0x31
    10d0:	12 aa       	std	Z+50, r1	; 0x32
    10d2:	13 aa       	std	Z+51, r1	; 0x33
	angleY = 0;							// Y-axis pitch angle, in rad.  Positive value indicates pitch up.  Calculated value using location of gravity vector measured from accelerometer values.   The data type _lAccum implies it is stored with a factor of 2^24.
    10d4:	14 aa       	std	Z+52, r1	; 0x34
    10d6:	15 aa       	std	Z+53, r1	; 0x35
    10d8:	16 aa       	std	Z+54, r1	; 0x36
    10da:	17 aa       	std	Z+55, r1	; 0x37
	temp = 0;							// Initial value of 0.  temperature of MPU6000, degC*2^8
    10dc:	11 ae       	std	Z+57, r1	; 0x39
    10de:	10 ae       	std	Z+56, r1	; 0x38
	datacount = 0;						// Initial value of 0.  this counter increments whenever new data is available, and decrements when it is read
    10e0:	12 ae       	std	Z+58, r1	; 0x3a
	identity = 0;						// Initial value of 0.  stores the identity code of the MPU6000 processor
    10e2:	13 ae       	std	Z+59, r1	; 0x3b
	Gyro_Select = SEL_GYRO_DEFAULT;		// Initial value of default.  stores the gyroscope scale selection
    10e4:	82 e0       	ldi	r24, 0x02	; 2
    10e6:	84 af       	std	Z+60, r24	; 0x3c
	Accel_Select = SEL_ACCEL_DEFAULT;	// Initial value of default.  stores the accelerometer scale selection
    10e8:	81 e0       	ldi	r24, 0x01	; 1
    10ea:	85 af       	std	Z+61, r24	; 0x3d
	return;
}
    10ec:	08 95       	ret

000010ee <_ZN7MPU600016Set_Gyro_OffsetsElll>:
 * Function:	Set_Gyro_Offsets()
 * Scope:		public
 * Arguments:	none
 * Description:	This function sets offsets for the x, y, and z gyroscope measurements
 */
void MPU6000::Set_Gyro_Offsets(_lAccum offsetX,_lAccum offsetY,_lAccum offsetZ){
    10ee:	cf 92       	push	r12
    10f0:	df 92       	push	r13
    10f2:	ef 92       	push	r14
    10f4:	ff 92       	push	r15
    10f6:	0f 93       	push	r16
    10f8:	1f 93       	push	r17
    10fa:	fc 01       	movw	r30, r24
	gyroXoffset = offsetX;		// set x-axis offset
    10fc:	44 a3       	std	Z+36, r20	; 0x24
    10fe:	55 a3       	std	Z+37, r21	; 0x25
    1100:	66 a3       	std	Z+38, r22	; 0x26
    1102:	77 a3       	std	Z+39, r23	; 0x27
	gyroYoffset = offsetY;		// set y-axis offset
    1104:	00 a7       	std	Z+40, r16	; 0x28
    1106:	11 a7       	std	Z+41, r17	; 0x29
    1108:	22 a7       	std	Z+42, r18	; 0x2a
    110a:	33 a7       	std	Z+43, r19	; 0x2b
	gyroZoffset = offsetZ;		// set z-axis offset
    110c:	c4 a6       	std	Z+44, r12	; 0x2c
    110e:	d5 a6       	std	Z+45, r13	; 0x2d
    1110:	e6 a6       	std	Z+46, r14	; 0x2e
    1112:	f7 a6       	std	Z+47, r15	; 0x2f
	return;
}
    1114:	1f 91       	pop	r17
    1116:	0f 91       	pop	r16
    1118:	ff 90       	pop	r15
    111a:	ef 90       	pop	r14
    111c:	df 90       	pop	r13
    111e:	cf 90       	pop	r12
    1120:	08 95       	ret

00001122 <_ZN7MPU600017Set_Accel_OffsetsElll>:
 * Function:	Set_Accel_Offsets()
 * Scope:		public
 * Arguments:	none
 * Description:	This function sets offsets for the x, y, and z gyroscope measurements
 */
void MPU6000::Set_Accel_Offsets(_lAccum offsetX,_lAccum offsetY,_lAccum offsetZ){
    1122:	cf 92       	push	r12
    1124:	df 92       	push	r13
    1126:	ef 92       	push	r14
    1128:	ff 92       	push	r15
    112a:	0f 93       	push	r16
    112c:	1f 93       	push	r17
    112e:	fc 01       	movw	r30, r24
	accelXoffset = offsetX;		// set x-axis offset
    1130:	44 87       	std	Z+12, r20	; 0x0c
    1132:	55 87       	std	Z+13, r21	; 0x0d
    1134:	66 87       	std	Z+14, r22	; 0x0e
    1136:	77 87       	std	Z+15, r23	; 0x0f
	accelYoffset = offsetY;		// set y-axis offset
    1138:	00 8b       	std	Z+16, r16	; 0x10
    113a:	11 8b       	std	Z+17, r17	; 0x11
    113c:	22 8b       	std	Z+18, r18	; 0x12
    113e:	33 8b       	std	Z+19, r19	; 0x13
	accelZoffset = offsetZ;		// set z-axis offset
    1140:	c4 8a       	std	Z+20, r12	; 0x14
    1142:	d5 8a       	std	Z+21, r13	; 0x15
    1144:	e6 8a       	std	Z+22, r14	; 0x16
    1146:	f7 8a       	std	Z+23, r15	; 0x17
	return;
}
    1148:	1f 91       	pop	r17
    114a:	0f 91       	pop	r16
    114c:	ff 90       	pop	r15
    114e:	ef 90       	pop	r14
    1150:	df 90       	pop	r13
    1152:	cf 90       	pop	r12
    1154:	08 95       	ret

00001156 <_ZN7MPU60009GetAccelXEv>:
 * Function:	GetAccelX()
 * Scope:		public
 * Arguments:	none
 * Description:	returns latest read x-axis accelerometer measurement (does not perform a new read)
 */
_lAccum MPU6000::GetAccelX(void) {
    1156:	fc 01       	movw	r30, r24
    1158:	60 81       	ld	r22, Z
    115a:	71 81       	ldd	r23, Z+1	; 0x01
	return accelX;
}
    115c:	82 81       	ldd	r24, Z+2	; 0x02
    115e:	93 81       	ldd	r25, Z+3	; 0x03
    1160:	08 95       	ret

00001162 <_ZN7MPU60009GetAccelYEv>:
 * Function:	GetAccelY()
 * Scope:		public
 * Arguments:	none
 * Description:	returns latest read y-axis accelerometer measurement (does not perform a new read)
 */
_lAccum MPU6000::GetAccelY(void) {
    1162:	fc 01       	movw	r30, r24
    1164:	64 81       	ldd	r22, Z+4	; 0x04
    1166:	75 81       	ldd	r23, Z+5	; 0x05
	return accelY;
}
    1168:	86 81       	ldd	r24, Z+6	; 0x06
    116a:	97 81       	ldd	r25, Z+7	; 0x07
    116c:	08 95       	ret

0000116e <_ZN7MPU60009GetAccelZEv>:
 * Function:	GetAccelZ()
 * Scope:		public
 * Arguments:	none
 * Description:	returns latest read z-axis accelerometer measurement (does not perform a new read)
 */
_lAccum MPU6000::GetAccelZ(void) {
    116e:	fc 01       	movw	r30, r24
    1170:	60 85       	ldd	r22, Z+8	; 0x08
    1172:	71 85       	ldd	r23, Z+9	; 0x09
	return accelZ;
}
    1174:	82 85       	ldd	r24, Z+10	; 0x0a
    1176:	93 85       	ldd	r25, Z+11	; 0x0b
    1178:	08 95       	ret

0000117a <_ZN7MPU60008GetGyroXEv>:
 * Function:	GetGyroX()
 * Scope:		public
 * Arguments:	none
 * Description:	returns latest read x-axis gyroscopic measurement (does not perform a new read)
 */
_lAccum MPU6000::GetGyroX(void) {
    117a:	fc 01       	movw	r30, r24
    117c:	60 8d       	ldd	r22, Z+24	; 0x18
    117e:	71 8d       	ldd	r23, Z+25	; 0x19
	return gyroX;
}
    1180:	82 8d       	ldd	r24, Z+26	; 0x1a
    1182:	93 8d       	ldd	r25, Z+27	; 0x1b
    1184:	08 95       	ret

00001186 <_ZN7MPU60008GetGyroYEv>:
 * Function:	GetGyroY()
 * Scope:		public
 * Arguments:	none
 * Description:	returns latest read y-axis gyroscopic measurement (does not perform a new read)
 */
_lAccum MPU6000::GetGyroY(void) {
    1186:	fc 01       	movw	r30, r24
    1188:	64 8d       	ldd	r22, Z+28	; 0x1c
    118a:	75 8d       	ldd	r23, Z+29	; 0x1d
	return gyroY;
}
    118c:	86 8d       	ldd	r24, Z+30	; 0x1e
    118e:	97 8d       	ldd	r25, Z+31	; 0x1f
    1190:	08 95       	ret

00001192 <_ZN7MPU60008GetGyroZEv>:
 * Function:	GetGyroZ()
 * Scope:		public
 * Arguments:	none
 * Description:	returns latest read z-axis gyroscopic measurement (does not perform a new read)
 */
_lAccum MPU6000::GetGyroZ(void) {
    1192:	fc 01       	movw	r30, r24
    1194:	60 a1       	ldd	r22, Z+32	; 0x20
    1196:	71 a1       	ldd	r23, Z+33	; 0x21
	return gyroZ;
}
    1198:	82 a1       	ldd	r24, Z+34	; 0x22
    119a:	93 a1       	ldd	r25, Z+35	; 0x23
    119c:	08 95       	ret

0000119e <_ZN7MPU60009GetAngleXEv>:
 * Scope:		public
 * Arguments:	none
 * Description:	returns latest calculated x-axis roll angle (does not perform a new read), rad.
 * 				The data type _lAccum implies it is stored with a factor of 2^24.
 */
_lAccum MPU6000::GetAngleX(void) {
    119e:	fc 01       	movw	r30, r24
    11a0:	60 a9       	ldd	r22, Z+48	; 0x30
    11a2:	71 a9       	ldd	r23, Z+49	; 0x31
	return angleX;
}	// end of GetAngleX()
    11a4:	82 a9       	ldd	r24, Z+50	; 0x32
    11a6:	93 a9       	ldd	r25, Z+51	; 0x33
    11a8:	08 95       	ret

000011aa <_ZN7MPU60009GetAngleYEv>:
 * Scope:		public
 * Arguments:	none
 * Description:	returns latest calculated y-axis pitch angle (does not perform a new read), rad.
 * 				The data type _lAccum implies it is stored with a factor of 2^24.
 */
_lAccum MPU6000::GetAngleY(void) {
    11aa:	fc 01       	movw	r30, r24
    11ac:	64 a9       	ldd	r22, Z+52	; 0x34
    11ae:	75 a9       	ldd	r23, Z+53	; 0x35
	return angleY;
}	// end of GetAngleY()
    11b0:	86 a9       	ldd	r24, Z+54	; 0x36
    11b2:	97 a9       	ldd	r25, Z+55	; 0x37
    11b4:	08 95       	ret

000011b6 <_ZN7MPU600012GetDataCountEv>:
 * Function:	GetDataCount()
 * Scope:		public
 * Arguments:	none
 * Description:	returns number of unread data items waiting in the MPU6000
 */
byte MPU6000::GetDataCount(void) {
    11b6:	fc 01       	movw	r30, r24
	return datacount;
    11b8:	82 ad       	ldd	r24, Z+58	; 0x3a
}
    11ba:	08 95       	ret

000011bc <_Z16MPU6000_data_intv>:
 * Scope:		public
 * Arguments:	none
 * Description:	Increments counter which tells new data is ready
 */
void MPU6000::data_int(void) {
	datacount++;
    11bc:	80 91 4c 04 	lds	r24, 0x044C
    11c0:	8f 5f       	subi	r24, 0xFF	; 255
    11c2:	80 93 4c 04 	sts	0x044C, r24
 */
 void MPU6000_data_int(void)
 {
	 Mpu6000.data_int();
	 return;
 }
    11c6:	08 95       	ret

000011c8 <_GLOBAL__I_Mpu6000>:
 */

#include "MPU6000.h"

// definitions
MPU6000 Mpu6000;
    11c8:	82 e1       	ldi	r24, 0x12	; 18
    11ca:	94 e0       	ldi	r25, 0x04	; 4
    11cc:	0e 94 35 08 	call	0x106a	; 0x106a <_ZN7MPU6000C1Ev>
 */
 void MPU6000_data_int(void)
 {
	 Mpu6000.data_int();
	 return;
 }
    11d0:	08 95       	ret

000011d2 <_ZN7MPU60008SPI_readEh>:
 * Function:	SPI_read()
 * Scope:		private
 * Arguments:	byte reg 	- MPU6000 register to write to
 * Description:	reads a register in the MPU6000 using SPI
 */
byte MPU6000::SPI_read(byte reg){
    11d2:	1f 93       	push	r17
    11d4:	16 2f       	mov	r17, r22
  byte return_value;		// value to return
  byte addr = reg | 0x80; 	// Set most significant bit to signify this is a read operation
    11d6:	10 68       	ori	r17, 0x80	; 128

  digitalWrite(MPU6000_CHIP_SELECT_PIN, LOW);	// set chip select low to enable SPI comms with MPU6000
    11d8:	84 e0       	ldi	r24, 0x04	; 4
    11da:	60 e0       	ldi	r22, 0x00	; 0
    11dc:	0e 94 9b 22 	call	0x4536	; 0x4536 <digitalWrite>
};

extern SPIClass SPI;

byte SPIClass::transfer(byte _data) {
  SPDR = _data;
    11e0:	1e bd       	out	0x2e, r17	; 46
  while (!(SPSR & _BV(SPIF)))
    11e2:	0d b4       	in	r0, 0x2d	; 45
    11e4:	07 fe       	sbrs	r0, 7
    11e6:	fd cf       	rjmp	.-6      	; 0x11e2 <_ZN7MPU60008SPI_readEh+0x10>
    ;
  return SPDR;
    11e8:	8e b5       	in	r24, 0x2e	; 46
};

extern SPIClass SPI;

byte SPIClass::transfer(byte _data) {
  SPDR = _data;
    11ea:	1e bc       	out	0x2e, r1	; 46
  while (!(SPSR & _BV(SPIF)))
    11ec:	0d b4       	in	r0, 0x2d	; 45
    11ee:	07 fe       	sbrs	r0, 7
    11f0:	fd cf       	rjmp	.-6      	; 0x11ec <_ZN7MPU60008SPI_readEh+0x1a>
    ;
  return SPDR;
    11f2:	1e b5       	in	r17, 0x2e	; 46
  SPI.transfer(addr);							// first transmit the register to write to
  return_value = SPI.transfer(0);				// then receive the data from that register
  digitalWrite(MPU6000_CHIP_SELECT_PIN, HIGH);	// return chip select high to disable SPI comms with MPU6000
    11f4:	84 e0       	ldi	r24, 0x04	; 4
    11f6:	61 e0       	ldi	r22, 0x01	; 1
    11f8:	0e 94 9b 22 	call	0x4536	; 0x4536 <digitalWrite>
  return(return_value);
}
    11fc:	81 2f       	mov	r24, r17
    11fe:	1f 91       	pop	r17
    1200:	08 95       	ret

00001202 <_ZN7MPU60009Read_GyroEv>:
 * Function:	Read_Gyro()
 * Scope:		public
 * Arguments:	none
 * Description:	This function reads all gyro data
 */
void MPU6000::Read_Gyro(void){
    1202:	7f 92       	push	r7
    1204:	8f 92       	push	r8
    1206:	9f 92       	push	r9
    1208:	af 92       	push	r10
    120a:	bf 92       	push	r11
    120c:	cf 92       	push	r12
    120e:	df 92       	push	r13
    1210:	ef 92       	push	r14
    1212:	ff 92       	push	r15
    1214:	0f 93       	push	r16
    1216:	1f 93       	push	r17
    1218:	cf 93       	push	r28
    121a:	df 93       	push	r29
    121c:	ec 01       	movw	r28, r24
	int byte_H;
	int byte_L;

	// Read GyroX
	byte_H = SPI_read(MPUREG_GYRO_XOUT_H);
    121e:	63 e4       	ldi	r22, 0x43	; 67
    1220:	0e 94 e9 08 	call	0x11d2	; 0x11d2 <_ZN7MPU60008SPI_readEh>
    1224:	d8 2e       	mov	r13, r24
	byte_L = SPI_read(MPUREG_GYRO_XOUT_L);
    1226:	ce 01       	movw	r24, r28
    1228:	64 e4       	ldi	r22, 0x44	; 68
    122a:	0e 94 e9 08 	call	0x11d2	; 0x11d2 <_ZN7MPU60008SPI_readEh>
	gyroX = (_lAccum)(((long)(((int)byte_H<<8)| byte_L) * GYRO_XAXIS_SIGN)*((long)MAX_RADPSPCNT_LK>>(SEL_GYRO_2000-Gyro_Select))) + gyroXoffset;
    122e:	fd 2c       	mov	r15, r13
    1230:	ee 24       	eor	r14, r14
    1232:	90 e0       	ldi	r25, 0x00	; 0
    1234:	e8 2a       	or	r14, r24
    1236:	f9 2a       	or	r15, r25
    1238:	00 27       	eor	r16, r16
    123a:	f7 fc       	sbrc	r15, 7
    123c:	00 95       	com	r16
    123e:	10 2f       	mov	r17, r16
    1240:	8c ad       	ldd	r24, Y+60	; 0x3c
    1242:	43 e0       	ldi	r20, 0x03	; 3
    1244:	84 2e       	mov	r8, r20
    1246:	91 2c       	mov	r9, r1
    1248:	94 01       	movw	r18, r8
    124a:	28 1b       	sub	r18, r24
    124c:	31 09       	sbc	r19, r1
    124e:	30 ed       	ldi	r19, 0xD0	; 208
    1250:	a3 2e       	mov	r10, r19
    1252:	35 e4       	ldi	r19, 0x45	; 69
    1254:	b3 2e       	mov	r11, r19
    1256:	c1 2c       	mov	r12, r1
    1258:	d1 2c       	mov	r13, r1
    125a:	d6 01       	movw	r26, r12
    125c:	c5 01       	movw	r24, r10
    125e:	04 c0       	rjmp	.+8      	; 0x1268 <_ZN7MPU60009Read_GyroEv+0x66>
    1260:	b5 95       	asr	r27
    1262:	a7 95       	ror	r26
    1264:	97 95       	ror	r25
    1266:	87 95       	ror	r24
    1268:	2a 95       	dec	r18
    126a:	d2 f7       	brpl	.-12     	; 0x1260 <_ZN7MPU60009Read_GyroEv+0x5e>
    126c:	9c 01       	movw	r18, r24
    126e:	ad 01       	movw	r20, r26
    1270:	c8 01       	movw	r24, r16
    1272:	b7 01       	movw	r22, r14
    1274:	0e 94 ef 22 	call	0x45de	; 0x45de <__mulsi3>
    1278:	2c a1       	ldd	r18, Y+36	; 0x24
    127a:	3d a1       	ldd	r19, Y+37	; 0x25
    127c:	4e a1       	ldd	r20, Y+38	; 0x26
    127e:	5f a1       	ldd	r21, Y+39	; 0x27
    1280:	26 0f       	add	r18, r22
    1282:	37 1f       	adc	r19, r23
    1284:	48 1f       	adc	r20, r24
    1286:	59 1f       	adc	r21, r25
    1288:	28 8f       	std	Y+24, r18	; 0x18
    128a:	39 8f       	std	Y+25, r19	; 0x19
    128c:	4a 8f       	std	Y+26, r20	; 0x1a
    128e:	5b 8f       	std	Y+27, r21	; 0x1b

	// Read GyroY
	byte_H = SPI_read(MPUREG_GYRO_YOUT_H);
    1290:	ce 01       	movw	r24, r28
    1292:	65 e4       	ldi	r22, 0x45	; 69
    1294:	0e 94 e9 08 	call	0x11d2	; 0x11d2 <_ZN7MPU60008SPI_readEh>
    1298:	78 2e       	mov	r7, r24
	byte_L = SPI_read(MPUREG_GYRO_YOUT_L);
    129a:	ce 01       	movw	r24, r28
    129c:	66 e4       	ldi	r22, 0x46	; 70
    129e:	0e 94 e9 08 	call	0x11d2	; 0x11d2 <_ZN7MPU60008SPI_readEh>
	gyroY = (_lAccum)(((long)(((int)byte_H<<8)| byte_L) * GYRO_YAXIS_SIGN)*((long)MAX_RADPSPCNT_LK>>(SEL_GYRO_2000-Gyro_Select))) + gyroYoffset;
    12a2:	f7 2c       	mov	r15, r7
    12a4:	ee 24       	eor	r14, r14
    12a6:	90 e0       	ldi	r25, 0x00	; 0
    12a8:	e8 2a       	or	r14, r24
    12aa:	f9 2a       	or	r15, r25
    12ac:	00 27       	eor	r16, r16
    12ae:	f7 fc       	sbrc	r15, 7
    12b0:	00 95       	com	r16
    12b2:	10 2f       	mov	r17, r16
    12b4:	10 95       	com	r17
    12b6:	00 95       	com	r16
    12b8:	f0 94       	com	r15
    12ba:	e0 94       	com	r14
    12bc:	e1 1c       	adc	r14, r1
    12be:	f1 1c       	adc	r15, r1
    12c0:	01 1d       	adc	r16, r1
    12c2:	11 1d       	adc	r17, r1
    12c4:	8c ad       	ldd	r24, Y+60	; 0x3c
    12c6:	94 01       	movw	r18, r8
    12c8:	28 1b       	sub	r18, r24
    12ca:	31 09       	sbc	r19, r1
    12cc:	d6 01       	movw	r26, r12
    12ce:	c5 01       	movw	r24, r10
    12d0:	04 c0       	rjmp	.+8      	; 0x12da <_ZN7MPU60009Read_GyroEv+0xd8>
    12d2:	b5 95       	asr	r27
    12d4:	a7 95       	ror	r26
    12d6:	97 95       	ror	r25
    12d8:	87 95       	ror	r24
    12da:	2a 95       	dec	r18
    12dc:	d2 f7       	brpl	.-12     	; 0x12d2 <_ZN7MPU60009Read_GyroEv+0xd0>
    12de:	9c 01       	movw	r18, r24
    12e0:	ad 01       	movw	r20, r26
    12e2:	c8 01       	movw	r24, r16
    12e4:	b7 01       	movw	r22, r14
    12e6:	0e 94 ef 22 	call	0x45de	; 0x45de <__mulsi3>
    12ea:	28 a5       	ldd	r18, Y+40	; 0x28
    12ec:	39 a5       	ldd	r19, Y+41	; 0x29
    12ee:	4a a5       	ldd	r20, Y+42	; 0x2a
    12f0:	5b a5       	ldd	r21, Y+43	; 0x2b
    12f2:	26 0f       	add	r18, r22
    12f4:	37 1f       	adc	r19, r23
    12f6:	48 1f       	adc	r20, r24
    12f8:	59 1f       	adc	r21, r25
    12fa:	2c 8f       	std	Y+28, r18	; 0x1c
    12fc:	3d 8f       	std	Y+29, r19	; 0x1d
    12fe:	4e 8f       	std	Y+30, r20	; 0x1e
    1300:	5f 8f       	std	Y+31, r21	; 0x1f

	// Read GyroZ
	byte_H = SPI_read(MPUREG_GYRO_ZOUT_H);
    1302:	ce 01       	movw	r24, r28
    1304:	67 e4       	ldi	r22, 0x47	; 71
    1306:	0e 94 e9 08 	call	0x11d2	; 0x11d2 <_ZN7MPU60008SPI_readEh>
    130a:	18 2f       	mov	r17, r24
	byte_L = SPI_read(MPUREG_GYRO_ZOUT_L);
    130c:	ce 01       	movw	r24, r28
    130e:	68 e4       	ldi	r22, 0x48	; 72
    1310:	0e 94 e9 08 	call	0x11d2	; 0x11d2 <_ZN7MPU60008SPI_readEh>
	gyroZ = (_lAccum)(((long)(((int)byte_H<<8)| byte_L) * GYRO_ZAXIS_SIGN)*((long)MAX_RADPSPCNT_LK>>(SEL_GYRO_2000-Gyro_Select))) + gyroZoffset;
    1314:	31 2f       	mov	r19, r17
    1316:	20 e0       	ldi	r18, 0x00	; 0
    1318:	90 e0       	ldi	r25, 0x00	; 0
    131a:	28 2b       	or	r18, r24
    131c:	39 2b       	or	r19, r25
    131e:	44 27       	eor	r20, r20
    1320:	37 fd       	sbrc	r19, 7
    1322:	40 95       	com	r20
    1324:	54 2f       	mov	r21, r20
    1326:	50 95       	com	r21
    1328:	40 95       	com	r20
    132a:	30 95       	com	r19
    132c:	21 95       	neg	r18
    132e:	3f 4f       	sbci	r19, 0xFF	; 255
    1330:	4f 4f       	sbci	r20, 0xFF	; 255
    1332:	5f 4f       	sbci	r21, 0xFF	; 255
    1334:	8c ad       	ldd	r24, Y+60	; 0x3c
    1336:	88 1a       	sub	r8, r24
    1338:	91 08       	sbc	r9, r1
    133a:	04 c0       	rjmp	.+8      	; 0x1344 <_ZN7MPU60009Read_GyroEv+0x142>
    133c:	d5 94       	asr	r13
    133e:	c7 94       	ror	r12
    1340:	b7 94       	ror	r11
    1342:	a7 94       	ror	r10
    1344:	8a 94       	dec	r8
    1346:	d2 f7       	brpl	.-12     	; 0x133c <_ZN7MPU60009Read_GyroEv+0x13a>
    1348:	ca 01       	movw	r24, r20
    134a:	b9 01       	movw	r22, r18
    134c:	a6 01       	movw	r20, r12
    134e:	95 01       	movw	r18, r10
    1350:	0e 94 ef 22 	call	0x45de	; 0x45de <__mulsi3>
    1354:	2c a5       	ldd	r18, Y+44	; 0x2c
    1356:	3d a5       	ldd	r19, Y+45	; 0x2d
    1358:	4e a5       	ldd	r20, Y+46	; 0x2e
    135a:	5f a5       	ldd	r21, Y+47	; 0x2f
    135c:	26 0f       	add	r18, r22
    135e:	37 1f       	adc	r19, r23
    1360:	48 1f       	adc	r20, r24
    1362:	59 1f       	adc	r21, r25
    1364:	28 a3       	std	Y+32, r18	; 0x20
    1366:	39 a3       	std	Y+33, r19	; 0x21
    1368:	4a a3       	std	Y+34, r20	; 0x22
    136a:	5b a3       	std	Y+35, r21	; 0x23

	if (datacount > 0) datacount--;	// decrement data counter
    136c:	8a ad       	ldd	r24, Y+58	; 0x3a
    136e:	88 23       	and	r24, r24
    1370:	19 f0       	breq	.+6      	; 0x1378 <_ZN7MPU60009Read_GyroEv+0x176>
    1372:	8a ad       	ldd	r24, Y+58	; 0x3a
    1374:	81 50       	subi	r24, 0x01	; 1
    1376:	8a af       	std	Y+58, r24	; 0x3a

	return;
}
    1378:	df 91       	pop	r29
    137a:	cf 91       	pop	r28
    137c:	1f 91       	pop	r17
    137e:	0f 91       	pop	r16
    1380:	ff 90       	pop	r15
    1382:	ef 90       	pop	r14
    1384:	df 90       	pop	r13
    1386:	cf 90       	pop	r12
    1388:	bf 90       	pop	r11
    138a:	af 90       	pop	r10
    138c:	9f 90       	pop	r9
    138e:	8f 90       	pop	r8
    1390:	7f 90       	pop	r7
    1392:	08 95       	ret

00001394 <_ZN7MPU60009SPI_writeEhh>:
 * Scope:		private
 * Arguments:	byte reg 	- MPU6000 register to write to
 * 				byte data	- data to write in that register
 * Description:	Writes to a register in the MPU6000 using SPI
 */
void MPU6000::SPI_write(byte reg, byte data){
    1394:	0f 93       	push	r16
    1396:	1f 93       	push	r17
    1398:	16 2f       	mov	r17, r22
    139a:	04 2f       	mov	r16, r20
	  digitalWrite(MPU6000_CHIP_SELECT_PIN, LOW);	// set chip select low to enable SPI comms with MPU6000
    139c:	84 e0       	ldi	r24, 0x04	; 4
    139e:	60 e0       	ldi	r22, 0x00	; 0
    13a0:	0e 94 9b 22 	call	0x4536	; 0x4536 <digitalWrite>
};

extern SPIClass SPI;

byte SPIClass::transfer(byte _data) {
  SPDR = _data;
    13a4:	1e bd       	out	0x2e, r17	; 46
  while (!(SPSR & _BV(SPIF)))
    13a6:	0d b4       	in	r0, 0x2d	; 45
    13a8:	07 fe       	sbrs	r0, 7
    13aa:	fd cf       	rjmp	.-6      	; 0x13a6 <_ZN7MPU60009SPI_writeEhh+0x12>
    ;
  return SPDR;
    13ac:	8e b5       	in	r24, 0x2e	; 46
};

extern SPIClass SPI;

byte SPIClass::transfer(byte _data) {
  SPDR = _data;
    13ae:	0e bd       	out	0x2e, r16	; 46
  while (!(SPSR & _BV(SPIF)))
    13b0:	0d b4       	in	r0, 0x2d	; 45
    13b2:	07 fe       	sbrs	r0, 7
    13b4:	fd cf       	rjmp	.-6      	; 0x13b0 <_ZN7MPU60009SPI_writeEhh+0x1c>
    ;
  return SPDR;
    13b6:	8e b5       	in	r24, 0x2e	; 46
	  SPI.transfer(reg);						// first transmit the register to write to
	  SPI.transfer(data);					// then transmit the data to write
	  digitalWrite(MPU6000_CHIP_SELECT_PIN, HIGH);	// return chip select high to disable SPI comms with MPU6000
    13b8:	84 e0       	ldi	r24, 0x04	; 4
    13ba:	61 e0       	ldi	r22, 0x01	; 1
    13bc:	0e 94 9b 22 	call	0x4536	; 0x4536 <digitalWrite>
	  return;
}
    13c0:	1f 91       	pop	r17
    13c2:	0f 91       	pop	r16
    13c4:	08 95       	ret

000013c6 <_ZN7MPU600016Calculate_AnglesEv>:
 * Scope:		private
 * Arguments:	none
 * Description:	This function calculates x-axis (roll) and y-axis (pitch) angles based on location of gravity vector
 * 				measured from accelerometers.
 */
void MPU6000::Calculate_Angles(void){
    13c6:	ef 92       	push	r14
    13c8:	ff 92       	push	r15
    13ca:	0f 93       	push	r16
    13cc:	1f 93       	push	r17
    13ce:	cf 93       	push	r28
    13d0:	df 93       	push	r29
    13d2:	ec 01       	movw	r28, r24

	if (accelZ >= 0)								// if gravity is down (craft is not upside-down)
    13d4:	28 85       	ldd	r18, Y+8	; 0x08
    13d6:	39 85       	ldd	r19, Y+9	; 0x09
    13d8:	4a 85       	ldd	r20, Y+10	; 0x0a
    13da:	5b 85       	ldd	r21, Y+11	; 0x0b
    13dc:	ec 80       	ldd	r14, Y+4	; 0x04
    13de:	fd 80       	ldd	r15, Y+5	; 0x05
    13e0:	0e 81       	ldd	r16, Y+6	; 0x06
    13e2:	1f 81       	ldd	r17, Y+7	; 0x07
    13e4:	57 fd       	sbrc	r21, 7
    13e6:	1c c0       	rjmp	.+56     	; 0x1420 <_ZN7MPU600016Calculate_AnglesEv+0x5a>
	{
		angleX = latan2lk(accelZ,accelY);			// calculate roll angle
    13e8:	ca 01       	movw	r24, r20
    13ea:	b9 01       	movw	r22, r18
    13ec:	a8 01       	movw	r20, r16
    13ee:	97 01       	movw	r18, r14
    13f0:	0e 94 7c 05 	call	0xaf8	; 0xaf8 <latan2lk>
    13f4:	68 ab       	std	Y+48, r22	; 0x30
    13f6:	79 ab       	std	Y+49, r23	; 0x31
    13f8:	8a ab       	std	Y+50, r24	; 0x32
    13fa:	9b ab       	std	Y+51, r25	; 0x33
		angleY = latan2lk(accelZ,-accelX);			// calculate pitch angle
    13fc:	68 85       	ldd	r22, Y+8	; 0x08
    13fe:	79 85       	ldd	r23, Y+9	; 0x09
    1400:	8a 85       	ldd	r24, Y+10	; 0x0a
    1402:	9b 85       	ldd	r25, Y+11	; 0x0b
    1404:	28 81       	ld	r18, Y
    1406:	39 81       	ldd	r19, Y+1	; 0x01
    1408:	4a 81       	ldd	r20, Y+2	; 0x02
    140a:	5b 81       	ldd	r21, Y+3	; 0x03
    140c:	50 95       	com	r21
    140e:	40 95       	com	r20
    1410:	30 95       	com	r19
    1412:	21 95       	neg	r18
    1414:	3f 4f       	sbci	r19, 0xFF	; 255
    1416:	4f 4f       	sbci	r20, 0xFF	; 255
    1418:	5f 4f       	sbci	r21, 0xFF	; 255
    141a:	0e 94 7c 05 	call	0xaf8	; 0xaf8 <latan2lk>
    141e:	2d c0       	rjmp	.+90     	; 0x147a <_ZN7MPU600016Calculate_AnglesEv+0xb4>
	}
	else											// if gravity is up (craft is upside-down)
	{
		angleX = latan2lk(-accelZ,-accelY) + PILK;	// calculate roll angle as if gravity was down, then reverse angle by adding pi
    1420:	66 27       	eor	r22, r22
    1422:	77 27       	eor	r23, r23
    1424:	cb 01       	movw	r24, r22
    1426:	62 1b       	sub	r22, r18
    1428:	73 0b       	sbc	r23, r19
    142a:	84 0b       	sbc	r24, r20
    142c:	95 0b       	sbc	r25, r21
    142e:	22 27       	eor	r18, r18
    1430:	33 27       	eor	r19, r19
    1432:	a9 01       	movw	r20, r18
    1434:	2e 19       	sub	r18, r14
    1436:	3f 09       	sbc	r19, r15
    1438:	40 0b       	sbc	r20, r16
    143a:	51 0b       	sbc	r21, r17
    143c:	0e 94 7c 05 	call	0xaf8	; 0xaf8 <latan2lk>
    1440:	66 59       	subi	r22, 0x96	; 150
    1442:	70 4c       	sbci	r23, 0xC0	; 192
    1444:	8b 4d       	sbci	r24, 0xDB	; 219
    1446:	9c 4f       	sbci	r25, 0xFC	; 252
    1448:	68 ab       	std	Y+48, r22	; 0x30
    144a:	79 ab       	std	Y+49, r23	; 0x31
    144c:	8a ab       	std	Y+50, r24	; 0x32
    144e:	9b ab       	std	Y+51, r25	; 0x33
		angleY = latan2lk(-accelZ,accelX) + PILK;	// calculate pitch angle as if gravity was down, then reverse angle by adding pi
    1450:	68 85       	ldd	r22, Y+8	; 0x08
    1452:	79 85       	ldd	r23, Y+9	; 0x09
    1454:	8a 85       	ldd	r24, Y+10	; 0x0a
    1456:	9b 85       	ldd	r25, Y+11	; 0x0b
    1458:	90 95       	com	r25
    145a:	80 95       	com	r24
    145c:	70 95       	com	r23
    145e:	61 95       	neg	r22
    1460:	7f 4f       	sbci	r23, 0xFF	; 255
    1462:	8f 4f       	sbci	r24, 0xFF	; 255
    1464:	9f 4f       	sbci	r25, 0xFF	; 255
    1466:	28 81       	ld	r18, Y
    1468:	39 81       	ldd	r19, Y+1	; 0x01
    146a:	4a 81       	ldd	r20, Y+2	; 0x02
    146c:	5b 81       	ldd	r21, Y+3	; 0x03
    146e:	0e 94 7c 05 	call	0xaf8	; 0xaf8 <latan2lk>
    1472:	66 59       	subi	r22, 0x96	; 150
    1474:	70 4c       	sbci	r23, 0xC0	; 192
    1476:	8b 4d       	sbci	r24, 0xDB	; 219
    1478:	9c 4f       	sbci	r25, 0xFC	; 252
    147a:	6c ab       	std	Y+52, r22	; 0x34
    147c:	7d ab       	std	Y+53, r23	; 0x35
    147e:	8e ab       	std	Y+54, r24	; 0x36
    1480:	9f ab       	std	Y+55, r25	; 0x37
	}
	if (angleX > PILK) angleX -= TWOPILK;			// if angle is greater than pi, subtract 2pi to normalize
    1482:	88 a9       	ldd	r24, Y+48	; 0x30
    1484:	99 a9       	ldd	r25, Y+49	; 0x31
    1486:	aa a9       	ldd	r26, Y+50	; 0x32
    1488:	bb a9       	ldd	r27, Y+51	; 0x33
    148a:	8b 36       	cpi	r24, 0x6B	; 107
    148c:	2f e3       	ldi	r18, 0x3F	; 63
    148e:	92 07       	cpc	r25, r18
    1490:	24 e2       	ldi	r18, 0x24	; 36
    1492:	a2 07       	cpc	r26, r18
    1494:	23 e0       	ldi	r18, 0x03	; 3
    1496:	b2 07       	cpc	r27, r18
    1498:	2c f0       	brlt	.+10     	; 0x14a4 <_ZN7MPU600016Calculate_AnglesEv+0xde>
    149a:	85 5d       	subi	r24, 0xD5	; 213
    149c:	9e 47       	sbci	r25, 0x7E	; 126
    149e:	a8 44       	sbci	r26, 0x48	; 72
    14a0:	b6 40       	sbci	r27, 0x06	; 6
    14a2:	0c c0       	rjmp	.+24     	; 0x14bc <_ZN7MPU600016Calculate_AnglesEv+0xf6>
	else if (angleX < -PILK) angleX += TWOPILK;		// else if angle is less than -pi, add 2pi to normalize
    14a4:	86 39       	cpi	r24, 0x96	; 150
    14a6:	20 ec       	ldi	r18, 0xC0	; 192
    14a8:	92 07       	cpc	r25, r18
    14aa:	2b ed       	ldi	r18, 0xDB	; 219
    14ac:	a2 07       	cpc	r26, r18
    14ae:	2c ef       	ldi	r18, 0xFC	; 252
    14b0:	b2 07       	cpc	r27, r18
    14b2:	44 f4       	brge	.+16     	; 0x14c4 <_ZN7MPU600016Calculate_AnglesEv+0xfe>
    14b4:	8b 52       	subi	r24, 0x2B	; 43
    14b6:	91 48       	sbci	r25, 0x81	; 129
    14b8:	a7 4b       	sbci	r26, 0xB7	; 183
    14ba:	b9 4f       	sbci	r27, 0xF9	; 249
    14bc:	88 ab       	std	Y+48, r24	; 0x30
    14be:	99 ab       	std	Y+49, r25	; 0x31
    14c0:	aa ab       	std	Y+50, r26	; 0x32
    14c2:	bb ab       	std	Y+51, r27	; 0x33
	if (angleY > PILK) angleY -= TWOPILK;			// if angle is greater than pi, subtract 2pi to normalize
    14c4:	8c a9       	ldd	r24, Y+52	; 0x34
    14c6:	9d a9       	ldd	r25, Y+53	; 0x35
    14c8:	ae a9       	ldd	r26, Y+54	; 0x36
    14ca:	bf a9       	ldd	r27, Y+55	; 0x37
    14cc:	8b 36       	cpi	r24, 0x6B	; 107
    14ce:	2f e3       	ldi	r18, 0x3F	; 63
    14d0:	92 07       	cpc	r25, r18
    14d2:	24 e2       	ldi	r18, 0x24	; 36
    14d4:	a2 07       	cpc	r26, r18
    14d6:	23 e0       	ldi	r18, 0x03	; 3
    14d8:	b2 07       	cpc	r27, r18
    14da:	2c f0       	brlt	.+10     	; 0x14e6 <_ZN7MPU600016Calculate_AnglesEv+0x120>
    14dc:	85 5d       	subi	r24, 0xD5	; 213
    14de:	9e 47       	sbci	r25, 0x7E	; 126
    14e0:	a8 44       	sbci	r26, 0x48	; 72
    14e2:	b6 40       	sbci	r27, 0x06	; 6
    14e4:	0c c0       	rjmp	.+24     	; 0x14fe <_ZN7MPU600016Calculate_AnglesEv+0x138>
	else if (angleY < -PILK) angleY += TWOPILK;		// else if angle is less than -pi, add 2pi to normalize
    14e6:	86 39       	cpi	r24, 0x96	; 150
    14e8:	20 ec       	ldi	r18, 0xC0	; 192
    14ea:	92 07       	cpc	r25, r18
    14ec:	2b ed       	ldi	r18, 0xDB	; 219
    14ee:	a2 07       	cpc	r26, r18
    14f0:	2c ef       	ldi	r18, 0xFC	; 252
    14f2:	b2 07       	cpc	r27, r18
    14f4:	44 f4       	brge	.+16     	; 0x1506 <_ZN7MPU600016Calculate_AnglesEv+0x140>
    14f6:	8b 52       	subi	r24, 0x2B	; 43
    14f8:	91 48       	sbci	r25, 0x81	; 129
    14fa:	a7 4b       	sbci	r26, 0xB7	; 183
    14fc:	b9 4f       	sbci	r27, 0xF9	; 249
    14fe:	8c ab       	std	Y+52, r24	; 0x34
    1500:	9d ab       	std	Y+53, r25	; 0x35
    1502:	ae ab       	std	Y+54, r26	; 0x36
    1504:	bf ab       	std	Y+55, r27	; 0x37

	return;
} // end of Calculate_Angles()
    1506:	df 91       	pop	r29
    1508:	cf 91       	pop	r28
    150a:	1f 91       	pop	r17
    150c:	0f 91       	pop	r16
    150e:	ff 90       	pop	r15
    1510:	ef 90       	pop	r14
    1512:	08 95       	ret

00001514 <_ZN7MPU600010Read_AccelEv>:
 * Function:	Read_Accel()
 * Scope:		public
 * Arguments:	none
 * Description:	This function reads all accelerometer data
 */
void MPU6000::Read_Accel(void){
    1514:	1f 93       	push	r17
    1516:	cf 93       	push	r28
    1518:	df 93       	push	r29
    151a:	ec 01       	movw	r28, r24
	int byte_H;
	int byte_L;

	// Read AccelX
	byte_H = SPI_read(MPUREG_ACCEL_XOUT_H);
    151c:	6b e3       	ldi	r22, 0x3B	; 59
    151e:	0e 94 e9 08 	call	0x11d2	; 0x11d2 <_ZN7MPU60008SPI_readEh>
    1522:	18 2f       	mov	r17, r24
	byte_L = SPI_read(MPUREG_ACCEL_XOUT_L);
    1524:	ce 01       	movw	r24, r28
    1526:	6c e3       	ldi	r22, 0x3C	; 60
    1528:	0e 94 e9 08 	call	0x11d2	; 0x11d2 <_ZN7MPU60008SPI_readEh>
    152c:	28 2f       	mov	r18, r24
    152e:	30 e0       	ldi	r19, 0x00	; 0
	if (Accel_Select == SEL_ACCEL_16)	// if using the largest scale, the measurement needs to be constrained
    1530:	4d ad       	ldd	r20, Y+61	; 0x3d
    1532:	43 30       	cpi	r20, 0x03	; 3
    1534:	81 f5       	brne	.+96     	; 0x1596 <_ZN7MPU600010Read_AccelEv+0x82>
	{
		accelX = (_lAccum)((constrain((long)(((int)byte_H<<8)| byte_L) * ACCEL_XAXIS_SIGN,-26730,26730))*((long)MAX_MPS2PCNT_LK)) + accelXoffset;
    1536:	91 2f       	mov	r25, r17
    1538:	80 e0       	ldi	r24, 0x00	; 0
    153a:	28 2b       	or	r18, r24
    153c:	39 2b       	or	r19, r25
    153e:	87 e9       	ldi	r24, 0x97	; 151
    1540:	26 39       	cpi	r18, 0x96	; 150
    1542:	38 07       	cpc	r19, r24
    1544:	2c f4       	brge	.+10     	; 0x1550 <_ZN7MPU600010Read_AccelEv+0x3c>
    1546:	26 e7       	ldi	r18, 0x76	; 118
    1548:	37 e2       	ldi	r19, 0x27	; 39
    154a:	41 e0       	ldi	r20, 0x01	; 1
    154c:	50 e8       	ldi	r21, 0x80	; 128
    154e:	16 c0       	rjmp	.+44     	; 0x157c <_ZN7MPU600010Read_AccelEv+0x68>
    1550:	88 e6       	ldi	r24, 0x68	; 104
    1552:	2b 36       	cpi	r18, 0x6B	; 107
    1554:	38 07       	cpc	r19, r24
    1556:	2c f0       	brlt	.+10     	; 0x1562 <_ZN7MPU600010Read_AccelEv+0x4e>
    1558:	2a e8       	ldi	r18, 0x8A	; 138
    155a:	38 ed       	ldi	r19, 0xD8	; 216
    155c:	4e ef       	ldi	r20, 0xFE	; 254
    155e:	5f e7       	ldi	r21, 0x7F	; 127
    1560:	0d c0       	rjmp	.+26     	; 0x157c <_ZN7MPU600010Read_AccelEv+0x68>
    1562:	b9 01       	movw	r22, r18
    1564:	88 27       	eor	r24, r24
    1566:	77 fd       	sbrc	r23, 7
    1568:	80 95       	com	r24
    156a:	98 2f       	mov	r25, r24
    156c:	21 ed       	ldi	r18, 0xD1	; 209
    156e:	39 e3       	ldi	r19, 0x39	; 57
    1570:	41 e0       	ldi	r20, 0x01	; 1
    1572:	50 e0       	ldi	r21, 0x00	; 0
    1574:	0e 94 ef 22 	call	0x45de	; 0x45de <__mulsi3>
    1578:	9b 01       	movw	r18, r22
    157a:	ac 01       	movw	r20, r24
    157c:	8c 85       	ldd	r24, Y+12	; 0x0c
    157e:	9d 85       	ldd	r25, Y+13	; 0x0d
    1580:	ae 85       	ldd	r26, Y+14	; 0x0e
    1582:	bf 85       	ldd	r27, Y+15	; 0x0f
    1584:	82 0f       	add	r24, r18
    1586:	93 1f       	adc	r25, r19
    1588:	a4 1f       	adc	r26, r20
    158a:	b5 1f       	adc	r27, r21
    158c:	88 83       	st	Y, r24
    158e:	99 83       	std	Y+1, r25	; 0x01
    1590:	aa 83       	std	Y+2, r26	; 0x02
    1592:	bb 83       	std	Y+3, r27	; 0x03
    1594:	25 c0       	rjmp	.+74     	; 0x15e0 <_ZN7MPU600010Read_AccelEv+0xcc>
	}
	else
	{
		accelX = (_lAccum)(((long)(((int)byte_H<<8)| byte_L) * ACCEL_XAXIS_SIGN)*((long)MAX_MPS2PCNT_LK>>(SEL_ACCEL_16-Accel_Select))) + accelXoffset;
    1596:	71 2f       	mov	r23, r17
    1598:	60 e0       	ldi	r22, 0x00	; 0
    159a:	62 2b       	or	r22, r18
    159c:	73 2b       	or	r23, r19
    159e:	88 27       	eor	r24, r24
    15a0:	77 fd       	sbrc	r23, 7
    15a2:	80 95       	com	r24
    15a4:	98 2f       	mov	r25, r24
    15a6:	e3 e0       	ldi	r30, 0x03	; 3
    15a8:	f0 e0       	ldi	r31, 0x00	; 0
    15aa:	e4 1b       	sub	r30, r20
    15ac:	f1 09       	sbc	r31, r1
    15ae:	21 ed       	ldi	r18, 0xD1	; 209
    15b0:	39 e3       	ldi	r19, 0x39	; 57
    15b2:	41 e0       	ldi	r20, 0x01	; 1
    15b4:	50 e0       	ldi	r21, 0x00	; 0
    15b6:	04 c0       	rjmp	.+8      	; 0x15c0 <_ZN7MPU600010Read_AccelEv+0xac>
    15b8:	55 95       	asr	r21
    15ba:	47 95       	ror	r20
    15bc:	37 95       	ror	r19
    15be:	27 95       	ror	r18
    15c0:	ea 95       	dec	r30
    15c2:	d2 f7       	brpl	.-12     	; 0x15b8 <_ZN7MPU600010Read_AccelEv+0xa4>
    15c4:	0e 94 ef 22 	call	0x45de	; 0x45de <__mulsi3>
    15c8:	2c 85       	ldd	r18, Y+12	; 0x0c
    15ca:	3d 85       	ldd	r19, Y+13	; 0x0d
    15cc:	4e 85       	ldd	r20, Y+14	; 0x0e
    15ce:	5f 85       	ldd	r21, Y+15	; 0x0f
    15d0:	26 0f       	add	r18, r22
    15d2:	37 1f       	adc	r19, r23
    15d4:	48 1f       	adc	r20, r24
    15d6:	59 1f       	adc	r21, r25
    15d8:	28 83       	st	Y, r18
    15da:	39 83       	std	Y+1, r19	; 0x01
    15dc:	4a 83       	std	Y+2, r20	; 0x02
    15de:	5b 83       	std	Y+3, r21	; 0x03
	}

	// Read AccelY
	byte_H = SPI_read(MPUREG_ACCEL_YOUT_H);
    15e0:	ce 01       	movw	r24, r28
    15e2:	6d e3       	ldi	r22, 0x3D	; 61
    15e4:	0e 94 e9 08 	call	0x11d2	; 0x11d2 <_ZN7MPU60008SPI_readEh>
    15e8:	18 2f       	mov	r17, r24
	byte_L = SPI_read(MPUREG_ACCEL_YOUT_L);
    15ea:	ce 01       	movw	r24, r28
    15ec:	6e e3       	ldi	r22, 0x3E	; 62
    15ee:	0e 94 e9 08 	call	0x11d2	; 0x11d2 <_ZN7MPU60008SPI_readEh>
    15f2:	28 2f       	mov	r18, r24
    15f4:	30 e0       	ldi	r19, 0x00	; 0
	if (Accel_Select == SEL_ACCEL_16)	// if using the largest scale, the measurement needs to be constrained
    15f6:	4d ad       	ldd	r20, Y+61	; 0x3d
    15f8:	43 30       	cpi	r20, 0x03	; 3
    15fa:	09 f0       	breq	.+2      	; 0x15fe <_ZN7MPU600010Read_AccelEv+0xea>
    15fc:	3f c0       	rjmp	.+126    	; 0x167c <_ZN7MPU600010Read_AccelEv+0x168>
	{
		accelY = (_lAccum)((constrain((long)(((int)byte_H<<8)| byte_L) * ACCEL_YAXIS_SIGN,-26730,26730))*((long)MAX_MPS2PCNT_LK)) + accelYoffset;
    15fe:	91 2f       	mov	r25, r17
    1600:	80 e0       	ldi	r24, 0x00	; 0
    1602:	82 2b       	or	r24, r18
    1604:	93 2b       	or	r25, r19
    1606:	aa 27       	eor	r26, r26
    1608:	97 fd       	sbrc	r25, 7
    160a:	a0 95       	com	r26
    160c:	ba 2f       	mov	r27, r26
    160e:	22 27       	eor	r18, r18
    1610:	33 27       	eor	r19, r19
    1612:	a9 01       	movw	r20, r18
    1614:	28 1b       	sub	r18, r24
    1616:	39 0b       	sbc	r19, r25
    1618:	4a 0b       	sbc	r20, r26
    161a:	5b 0b       	sbc	r21, r27
    161c:	26 39       	cpi	r18, 0x96	; 150
    161e:	87 e9       	ldi	r24, 0x97	; 151
    1620:	38 07       	cpc	r19, r24
    1622:	8f ef       	ldi	r24, 0xFF	; 255
    1624:	48 07       	cpc	r20, r24
    1626:	8f ef       	ldi	r24, 0xFF	; 255
    1628:	58 07       	cpc	r21, r24
    162a:	2c f4       	brge	.+10     	; 0x1636 <_ZN7MPU600010Read_AccelEv+0x122>
    162c:	26 e7       	ldi	r18, 0x76	; 118
    162e:	37 e2       	ldi	r19, 0x27	; 39
    1630:	41 e0       	ldi	r20, 0x01	; 1
    1632:	50 e8       	ldi	r21, 0x80	; 128
    1634:	16 c0       	rjmp	.+44     	; 0x1662 <_ZN7MPU600010Read_AccelEv+0x14e>
    1636:	ca 01       	movw	r24, r20
    1638:	b9 01       	movw	r22, r18
    163a:	6b 36       	cpi	r22, 0x6B	; 107
    163c:	28 e6       	ldi	r18, 0x68	; 104
    163e:	72 07       	cpc	r23, r18
    1640:	20 e0       	ldi	r18, 0x00	; 0
    1642:	82 07       	cpc	r24, r18
    1644:	20 e0       	ldi	r18, 0x00	; 0
    1646:	92 07       	cpc	r25, r18
    1648:	24 f0       	brlt	.+8      	; 0x1652 <_ZN7MPU600010Read_AccelEv+0x13e>
    164a:	6a e6       	ldi	r22, 0x6A	; 106
    164c:	78 e6       	ldi	r23, 0x68	; 104
    164e:	80 e0       	ldi	r24, 0x00	; 0
    1650:	90 e0       	ldi	r25, 0x00	; 0
    1652:	21 ed       	ldi	r18, 0xD1	; 209
    1654:	39 e3       	ldi	r19, 0x39	; 57
    1656:	41 e0       	ldi	r20, 0x01	; 1
    1658:	50 e0       	ldi	r21, 0x00	; 0
    165a:	0e 94 ef 22 	call	0x45de	; 0x45de <__mulsi3>
    165e:	9b 01       	movw	r18, r22
    1660:	ac 01       	movw	r20, r24
    1662:	88 89       	ldd	r24, Y+16	; 0x10
    1664:	99 89       	ldd	r25, Y+17	; 0x11
    1666:	aa 89       	ldd	r26, Y+18	; 0x12
    1668:	bb 89       	ldd	r27, Y+19	; 0x13
    166a:	82 0f       	add	r24, r18
    166c:	93 1f       	adc	r25, r19
    166e:	a4 1f       	adc	r26, r20
    1670:	b5 1f       	adc	r27, r21
    1672:	8c 83       	std	Y+4, r24	; 0x04
    1674:	9d 83       	std	Y+5, r25	; 0x05
    1676:	ae 83       	std	Y+6, r26	; 0x06
    1678:	bf 83       	std	Y+7, r27	; 0x07
    167a:	2c c0       	rjmp	.+88     	; 0x16d4 <_ZN7MPU600010Read_AccelEv+0x1c0>
	}
	else
	{
		accelY = (_lAccum)(((long)(((int)byte_H<<8)| byte_L) * ACCEL_YAXIS_SIGN)*((long)MAX_MPS2PCNT_LK>>(SEL_ACCEL_16-Accel_Select))) + accelYoffset;
    167c:	71 2f       	mov	r23, r17
    167e:	60 e0       	ldi	r22, 0x00	; 0
    1680:	62 2b       	or	r22, r18
    1682:	73 2b       	or	r23, r19
    1684:	88 27       	eor	r24, r24
    1686:	77 fd       	sbrc	r23, 7
    1688:	80 95       	com	r24
    168a:	98 2f       	mov	r25, r24
    168c:	90 95       	com	r25
    168e:	80 95       	com	r24
    1690:	70 95       	com	r23
    1692:	61 95       	neg	r22
    1694:	7f 4f       	sbci	r23, 0xFF	; 255
    1696:	8f 4f       	sbci	r24, 0xFF	; 255
    1698:	9f 4f       	sbci	r25, 0xFF	; 255
    169a:	e3 e0       	ldi	r30, 0x03	; 3
    169c:	f0 e0       	ldi	r31, 0x00	; 0
    169e:	e4 1b       	sub	r30, r20
    16a0:	f1 09       	sbc	r31, r1
    16a2:	21 ed       	ldi	r18, 0xD1	; 209
    16a4:	39 e3       	ldi	r19, 0x39	; 57
    16a6:	41 e0       	ldi	r20, 0x01	; 1
    16a8:	50 e0       	ldi	r21, 0x00	; 0
    16aa:	04 c0       	rjmp	.+8      	; 0x16b4 <_ZN7MPU600010Read_AccelEv+0x1a0>
    16ac:	55 95       	asr	r21
    16ae:	47 95       	ror	r20
    16b0:	37 95       	ror	r19
    16b2:	27 95       	ror	r18
    16b4:	ea 95       	dec	r30
    16b6:	d2 f7       	brpl	.-12     	; 0x16ac <_ZN7MPU600010Read_AccelEv+0x198>
    16b8:	0e 94 ef 22 	call	0x45de	; 0x45de <__mulsi3>
    16bc:	28 89       	ldd	r18, Y+16	; 0x10
    16be:	39 89       	ldd	r19, Y+17	; 0x11
    16c0:	4a 89       	ldd	r20, Y+18	; 0x12
    16c2:	5b 89       	ldd	r21, Y+19	; 0x13
    16c4:	26 0f       	add	r18, r22
    16c6:	37 1f       	adc	r19, r23
    16c8:	48 1f       	adc	r20, r24
    16ca:	59 1f       	adc	r21, r25
    16cc:	2c 83       	std	Y+4, r18	; 0x04
    16ce:	3d 83       	std	Y+5, r19	; 0x05
    16d0:	4e 83       	std	Y+6, r20	; 0x06
    16d2:	5f 83       	std	Y+7, r21	; 0x07
	}

	// Read AccelZ
	byte_H = SPI_read(MPUREG_ACCEL_ZOUT_H);
    16d4:	ce 01       	movw	r24, r28
    16d6:	6f e3       	ldi	r22, 0x3F	; 63
    16d8:	0e 94 e9 08 	call	0x11d2	; 0x11d2 <_ZN7MPU60008SPI_readEh>
    16dc:	18 2f       	mov	r17, r24
	byte_L = SPI_read(MPUREG_ACCEL_ZOUT_L);
    16de:	ce 01       	movw	r24, r28
    16e0:	60 e4       	ldi	r22, 0x40	; 64
    16e2:	0e 94 e9 08 	call	0x11d2	; 0x11d2 <_ZN7MPU60008SPI_readEh>
    16e6:	28 2f       	mov	r18, r24
    16e8:	30 e0       	ldi	r19, 0x00	; 0
	if (Accel_Select == SEL_ACCEL_16)	// if using the largest scale, the measurement needs to be constrained
    16ea:	4d ad       	ldd	r20, Y+61	; 0x3d
    16ec:	43 30       	cpi	r20, 0x03	; 3
    16ee:	09 f0       	breq	.+2      	; 0x16f2 <_ZN7MPU600010Read_AccelEv+0x1de>
    16f0:	3f c0       	rjmp	.+126    	; 0x1770 <_ZN7MPU600010Read_AccelEv+0x25c>
	{
		accelZ = (_lAccum)((constrain((long)(((int)byte_H<<8)| byte_L) * ACCEL_ZAXIS_SIGN,-26730,26730))*((long)MAX_MPS2PCNT_LK)) + accelZoffset;
    16f2:	91 2f       	mov	r25, r17
    16f4:	80 e0       	ldi	r24, 0x00	; 0
    16f6:	82 2b       	or	r24, r18
    16f8:	93 2b       	or	r25, r19
    16fa:	aa 27       	eor	r26, r26
    16fc:	97 fd       	sbrc	r25, 7
    16fe:	a0 95       	com	r26
    1700:	ba 2f       	mov	r27, r26
    1702:	22 27       	eor	r18, r18
    1704:	33 27       	eor	r19, r19
    1706:	a9 01       	movw	r20, r18
    1708:	28 1b       	sub	r18, r24
    170a:	39 0b       	sbc	r19, r25
    170c:	4a 0b       	sbc	r20, r26
    170e:	5b 0b       	sbc	r21, r27
    1710:	26 39       	cpi	r18, 0x96	; 150
    1712:	87 e9       	ldi	r24, 0x97	; 151
    1714:	38 07       	cpc	r19, r24
    1716:	8f ef       	ldi	r24, 0xFF	; 255
    1718:	48 07       	cpc	r20, r24
    171a:	8f ef       	ldi	r24, 0xFF	; 255
    171c:	58 07       	cpc	r21, r24
    171e:	2c f4       	brge	.+10     	; 0x172a <_ZN7MPU600010Read_AccelEv+0x216>
    1720:	26 e7       	ldi	r18, 0x76	; 118
    1722:	37 e2       	ldi	r19, 0x27	; 39
    1724:	41 e0       	ldi	r20, 0x01	; 1
    1726:	50 e8       	ldi	r21, 0x80	; 128
    1728:	16 c0       	rjmp	.+44     	; 0x1756 <_ZN7MPU600010Read_AccelEv+0x242>
    172a:	ca 01       	movw	r24, r20
    172c:	b9 01       	movw	r22, r18
    172e:	6b 36       	cpi	r22, 0x6B	; 107
    1730:	28 e6       	ldi	r18, 0x68	; 104
    1732:	72 07       	cpc	r23, r18
    1734:	20 e0       	ldi	r18, 0x00	; 0
    1736:	82 07       	cpc	r24, r18
    1738:	20 e0       	ldi	r18, 0x00	; 0
    173a:	92 07       	cpc	r25, r18
    173c:	24 f0       	brlt	.+8      	; 0x1746 <_ZN7MPU600010Read_AccelEv+0x232>
    173e:	6a e6       	ldi	r22, 0x6A	; 106
    1740:	78 e6       	ldi	r23, 0x68	; 104
    1742:	80 e0       	ldi	r24, 0x00	; 0
    1744:	90 e0       	ldi	r25, 0x00	; 0
    1746:	21 ed       	ldi	r18, 0xD1	; 209
    1748:	39 e3       	ldi	r19, 0x39	; 57
    174a:	41 e0       	ldi	r20, 0x01	; 1
    174c:	50 e0       	ldi	r21, 0x00	; 0
    174e:	0e 94 ef 22 	call	0x45de	; 0x45de <__mulsi3>
    1752:	9b 01       	movw	r18, r22
    1754:	ac 01       	movw	r20, r24
    1756:	8c 89       	ldd	r24, Y+20	; 0x14
    1758:	9d 89       	ldd	r25, Y+21	; 0x15
    175a:	ae 89       	ldd	r26, Y+22	; 0x16
    175c:	bf 89       	ldd	r27, Y+23	; 0x17
    175e:	82 0f       	add	r24, r18
    1760:	93 1f       	adc	r25, r19
    1762:	a4 1f       	adc	r26, r20
    1764:	b5 1f       	adc	r27, r21
    1766:	88 87       	std	Y+8, r24	; 0x08
    1768:	99 87       	std	Y+9, r25	; 0x09
    176a:	aa 87       	std	Y+10, r26	; 0x0a
    176c:	bb 87       	std	Y+11, r27	; 0x0b
    176e:	2c c0       	rjmp	.+88     	; 0x17c8 <_ZN7MPU600010Read_AccelEv+0x2b4>
	}
	else
	{
		accelZ = (_lAccum)(((long)(((int)byte_H<<8)| byte_L) * ACCEL_ZAXIS_SIGN)*((long)MAX_MPS2PCNT_LK>>(SEL_ACCEL_16-Accel_Select))) + accelZoffset;
    1770:	71 2f       	mov	r23, r17
    1772:	60 e0       	ldi	r22, 0x00	; 0
    1774:	62 2b       	or	r22, r18
    1776:	73 2b       	or	r23, r19
    1778:	88 27       	eor	r24, r24
    177a:	77 fd       	sbrc	r23, 7
    177c:	80 95       	com	r24
    177e:	98 2f       	mov	r25, r24
    1780:	90 95       	com	r25
    1782:	80 95       	com	r24
    1784:	70 95       	com	r23
    1786:	61 95       	neg	r22
    1788:	7f 4f       	sbci	r23, 0xFF	; 255
    178a:	8f 4f       	sbci	r24, 0xFF	; 255
    178c:	9f 4f       	sbci	r25, 0xFF	; 255
    178e:	e3 e0       	ldi	r30, 0x03	; 3
    1790:	f0 e0       	ldi	r31, 0x00	; 0
    1792:	e4 1b       	sub	r30, r20
    1794:	f1 09       	sbc	r31, r1
    1796:	21 ed       	ldi	r18, 0xD1	; 209
    1798:	39 e3       	ldi	r19, 0x39	; 57
    179a:	41 e0       	ldi	r20, 0x01	; 1
    179c:	50 e0       	ldi	r21, 0x00	; 0
    179e:	04 c0       	rjmp	.+8      	; 0x17a8 <_ZN7MPU600010Read_AccelEv+0x294>
    17a0:	55 95       	asr	r21
    17a2:	47 95       	ror	r20
    17a4:	37 95       	ror	r19
    17a6:	27 95       	ror	r18
    17a8:	ea 95       	dec	r30
    17aa:	d2 f7       	brpl	.-12     	; 0x17a0 <_ZN7MPU600010Read_AccelEv+0x28c>
    17ac:	0e 94 ef 22 	call	0x45de	; 0x45de <__mulsi3>
    17b0:	2c 89       	ldd	r18, Y+20	; 0x14
    17b2:	3d 89       	ldd	r19, Y+21	; 0x15
    17b4:	4e 89       	ldd	r20, Y+22	; 0x16
    17b6:	5f 89       	ldd	r21, Y+23	; 0x17
    17b8:	26 0f       	add	r18, r22
    17ba:	37 1f       	adc	r19, r23
    17bc:	48 1f       	adc	r20, r24
    17be:	59 1f       	adc	r21, r25
    17c0:	28 87       	std	Y+8, r18	; 0x08
    17c2:	39 87       	std	Y+9, r19	; 0x09
    17c4:	4a 87       	std	Y+10, r20	; 0x0a
    17c6:	5b 87       	std	Y+11, r21	; 0x0b
	}

	Calculate_Angles();
    17c8:	ce 01       	movw	r24, r28
    17ca:	0e 94 e3 09 	call	0x13c6	; 0x13c6 <_ZN7MPU600016Calculate_AnglesEv>

	if (datacount > 0) datacount--;	// decrement data counter
    17ce:	8a ad       	ldd	r24, Y+58	; 0x3a
    17d0:	88 23       	and	r24, r24
    17d2:	19 f0       	breq	.+6      	; 0x17da <_ZN7MPU600010Read_AccelEv+0x2c6>
    17d4:	8a ad       	ldd	r24, Y+58	; 0x3a
    17d6:	81 50       	subi	r24, 0x01	; 1
    17d8:	8a af       	std	Y+58, r24	; 0x3a

	return;
}
    17da:	df 91       	pop	r29
    17dc:	cf 91       	pop	r28
    17de:	1f 91       	pop	r17
    17e0:	08 95       	ret

000017e2 <_ZN7MPU600019Read_Accel_and_GyroEv>:
 * Function:	Read_Accel_and_Gyro()
 * Scope:		public
 * Arguments:	none
 * Description:	This function reads all accelerometer and gyro data
 */
void MPU6000::Read_Accel_and_Gyro(void){
    17e2:	cf 93       	push	r28
    17e4:	df 93       	push	r29
    17e6:	ec 01       	movw	r28, r24
	Read_Accel();		// read accelerometer data
    17e8:	0e 94 8a 0a 	call	0x1514	; 0x1514 <_ZN7MPU600010Read_AccelEv>
	datacount++;		// increment datacount, since the above function decremented it but the function below will decrement it
    17ec:	8a ad       	ldd	r24, Y+58	; 0x3a
    17ee:	8f 5f       	subi	r24, 0xFF	; 255
    17f0:	8a af       	std	Y+58, r24	; 0x3a

	Read_Gyro();		// read gyroscope data
    17f2:	ce 01       	movw	r24, r28
    17f4:	0e 94 01 09 	call	0x1202	; 0x1202 <_ZN7MPU60009Read_GyroEv>
	datacount++;		// increment datacount, since the above function decremented it but the function below will decrement it
    17f8:	8a ad       	ldd	r24, Y+58	; 0x3a
    17fa:	8f 5f       	subi	r24, 0xFF	; 255
    17fc:	8a af       	std	Y+58, r24	; 0x3a

	if (datacount > 0) datacount--;	// decrement data counter
    17fe:	8a ad       	ldd	r24, Y+58	; 0x3a
    1800:	88 23       	and	r24, r24
    1802:	19 f0       	breq	.+6      	; 0x180a <_ZN7MPU600019Read_Accel_and_GyroEv+0x28>
    1804:	8a ad       	ldd	r24, Y+58	; 0x3a
    1806:	81 50       	subi	r24, 0x01	; 1
    1808:	8a af       	std	Y+58, r24	; 0x3a

	return;
}
    180a:	df 91       	pop	r29
    180c:	cf 91       	pop	r28
    180e:	08 95       	ret

00001810 <_ZN7MPU600010InitializeEjhhh>:
 * 												SEL_ACCEL_8 - Full Scale range of +- 8g.
 * 												SEL_ACCEL_16 - Full Scale range of +- 16g.
 * 												anything else - sets full scale range of +- 4g and returns false.
 * Description:	This function initializes the MPU6000 object using settings supplied in argument
 */
boolean MPU6000::Initialize(unsigned int SampleRate, byte DLPFSelect, byte GyroScaleSelect, byte AccelScaleSelect){
    1810:	cf 92       	push	r12
    1812:	df 92       	push	r13
    1814:	ef 92       	push	r14
    1816:	ff 92       	push	r15
    1818:	0f 93       	push	r16
    181a:	1f 93       	push	r17
    181c:	cf 93       	push	r28
    181e:	df 93       	push	r29
    1820:	ec 01       	movw	r28, r24
    1822:	7b 01       	movw	r14, r22
    1824:	14 2f       	mov	r17, r20
    1826:	d2 2e       	mov	r13, r18
    1828:	c0 2e       	mov	r12, r16
	boolean rtn = true;	// value to return at end
	byte SmplRtDiv;		// Sample Rate Divisor value to be stored in MPUREG_SMPLRT_DIV register

	Gyro_Select = GyroScaleSelect;			// store value of gyroscope scale
    182a:	2c af       	std	Y+60, r18	; 0x3c
	Accel_Select = AccelScaleSelect;		// store value of accelerometer scale
    182c:	0d af       	std	Y+61, r16	; 0x3d

	// MPU6000 chip select setup
	pinMode(MPU6000_CHIP_SELECT_PIN, OUTPUT);
    182e:	84 e0       	ldi	r24, 0x04	; 4
    1830:	61 e0       	ldi	r22, 0x01	; 1
    1832:	0e 94 5c 22 	call	0x44b8	; 0x44b8 <pinMode>
	digitalWrite(MPU6000_CHIP_SELECT_PIN, HIGH);
    1836:	84 e0       	ldi	r24, 0x04	; 4
    1838:	61 e0       	ldi	r22, 0x01	; 1
    183a:	0e 94 9b 22 	call	0x4536	; 0x4536 <digitalWrite>

	// SPI initialization
	SPI.begin();
    183e:	0e 94 1e 08 	call	0x103c	; 0x103c <_ZN8SPIClass5beginEv>
	SPI.setClockDivider(SPI_CLOCK_DIV16);      // SPI at 1Mhz (on 16Mhz clock)
    1842:	81 e0       	ldi	r24, 0x01	; 1
    1844:	0e 94 0d 08 	call	0x101a	; 0x101a <_ZN8SPIClass15setClockDividerEh>
	delay(10);
    1848:	6a e0       	ldi	r22, 0x0A	; 10
    184a:	70 e0       	ldi	r23, 0x00	; 0
    184c:	80 e0       	ldi	r24, 0x00	; 0
    184e:	90 e0       	ldi	r25, 0x00	; 0
    1850:	0e 94 c8 21 	call	0x4390	; 0x4390 <delay>

	// Chip reset
	SPI_write(MPUREG_PWR_MGMT_1, BIT_H_RESET);
    1854:	ce 01       	movw	r24, r28
    1856:	6b e6       	ldi	r22, 0x6B	; 107
    1858:	40 e8       	ldi	r20, 0x80	; 128
    185a:	0e 94 ca 09 	call	0x1394	; 0x1394 <_ZN7MPU60009SPI_writeEhh>
	delay(100);
    185e:	64 e6       	ldi	r22, 0x64	; 100
    1860:	70 e0       	ldi	r23, 0x00	; 0
    1862:	80 e0       	ldi	r24, 0x00	; 0
    1864:	90 e0       	ldi	r25, 0x00	; 0
    1866:	0e 94 c8 21 	call	0x4390	; 0x4390 <delay>

	// Wake up device and select GyroZ clock (better performance)
	SPI_write(MPUREG_PWR_MGMT_1, MPU_CLK_SEL_PLLGYROZ);
    186a:	ce 01       	movw	r24, r28
    186c:	6b e6       	ldi	r22, 0x6B	; 107
    186e:	43 e0       	ldi	r20, 0x03	; 3
    1870:	0e 94 ca 09 	call	0x1394	; 0x1394 <_ZN7MPU60009SPI_writeEhh>
	delay(1);
    1874:	61 e0       	ldi	r22, 0x01	; 1
    1876:	70 e0       	ldi	r23, 0x00	; 0
    1878:	80 e0       	ldi	r24, 0x00	; 0
    187a:	90 e0       	ldi	r25, 0x00	; 0
    187c:	0e 94 c8 21 	call	0x4390	; 0x4390 <delay>

	// Disable I2C bus (recommended on datasheet)
	SPI_write(MPUREG_USER_CTRL, BIT_I2C_IF_DIS);
    1880:	ce 01       	movw	r24, r28
    1882:	6a e6       	ldi	r22, 0x6A	; 106
    1884:	40 e1       	ldi	r20, 0x10	; 16
    1886:	0e 94 ca 09 	call	0x1394	; 0x1394 <_ZN7MPU60009SPI_writeEhh>
	delay(1);
    188a:	61 e0       	ldi	r22, 0x01	; 1
    188c:	70 e0       	ldi	r23, 0x00	; 0
    188e:	80 e0       	ldi	r24, 0x00	; 0
    1890:	90 e0       	ldi	r25, 0x00	; 0
    1892:	0e 94 c8 21 	call	0x4390	; 0x4390 <delay>

	// Get identity of the device, 'cause why not.  Note this identifier is only really used for I2C comms which we aren't using.  But here it is.
	identity = (SPI_read(MPUREG_WHOAMI) & 0x7E);
    1896:	ce 01       	movw	r24, r28
    1898:	65 e7       	ldi	r22, 0x75	; 117
    189a:	0e 94 e9 08 	call	0x11d2	; 0x11d2 <_ZN7MPU60008SPI_readEh>
    189e:	8e 77       	andi	r24, 0x7E	; 126
    18a0:	8b af       	std	Y+59, r24	; 0x3b

	// Set No External Sync, and select appropriate DLPF cutoff frequency
	switch (DLPFSelect)
    18a2:	13 30       	cpi	r17, 0x03	; 3
    18a4:	f1 f0       	breq	.+60     	; 0x18e2 <_ZN7MPU600010InitializeEjhhh+0xd2>
    18a6:	14 30       	cpi	r17, 0x04	; 4
    18a8:	28 f4       	brcc	.+10     	; 0x18b4 <_ZN7MPU600010InitializeEjhhh+0xa4>
    18aa:	11 30       	cpi	r17, 0x01	; 1
    18ac:	91 f0       	breq	.+36     	; 0x18d2 <_ZN7MPU600010InitializeEjhhh+0xc2>
    18ae:	12 30       	cpi	r17, 0x02	; 2
    18b0:	a0 f4       	brcc	.+40     	; 0x18da <_ZN7MPU600010InitializeEjhhh+0xca>
    18b2:	07 c0       	rjmp	.+14     	; 0x18c2 <_ZN7MPU600010InitializeEjhhh+0xb2>
    18b4:	15 30       	cpi	r17, 0x05	; 5
    18b6:	e9 f0       	breq	.+58     	; 0x18f2 <_ZN7MPU600010InitializeEjhhh+0xe2>
    18b8:	15 30       	cpi	r17, 0x05	; 5
    18ba:	b8 f0       	brcs	.+46     	; 0x18ea <_ZN7MPU600010InitializeEjhhh+0xda>
    18bc:	16 30       	cpi	r17, 0x06	; 6
    18be:	a1 f5       	brne	.+104    	; 0x1928 <_ZN7MPU600010InitializeEjhhh+0x118>
    18c0:	1c c0       	rjmp	.+56     	; 0x18fa <_ZN7MPU600010InitializeEjhhh+0xea>
	{
	case SEL_DLPF_DIS:	// DLPF disabled, GyroOutRate = 8 kHz.  Also, calculate sample rate divisor value using SmplRtDiv= GyroOutRate/SampleRate - 1.
		SPI_write(MPUREG_CONFIG, MPU_NO_EXT_SYNC | BITS_DLPF_CFG_256HZ_NOLPF);	// set bits of config register
    18c2:	ce 01       	movw	r24, r28
    18c4:	6a e1       	ldi	r22, 0x1A	; 26
    18c6:	40 e0       	ldi	r20, 0x00	; 0
    18c8:	0e 94 ca 09 	call	0x1394	; 0x1394 <_ZN7MPU60009SPI_writeEhh>
		SmplRtDiv = (byte)constrain((unsigned int)8000/SampleRate,1,255) - 1;	// calculate sample rate divisor value
    18cc:	80 e4       	ldi	r24, 0x40	; 64
    18ce:	9f e1       	ldi	r25, 0x1F	; 31
    18d0:	1b c0       	rjmp	.+54     	; 0x1908 <_ZN7MPU600010InitializeEjhhh+0xf8>
		break;
	case SEL_DLPF_188:	// DLPF cutoff 188 Hz, GyroOutRate = 1 kHz.
		SPI_write(MPUREG_CONFIG, MPU_NO_EXT_SYNC | BITS_DLPF_CFG_188HZ);		// set bits of config register
    18d2:	ce 01       	movw	r24, r28
    18d4:	6a e1       	ldi	r22, 0x1A	; 26
    18d6:	41 e0       	ldi	r20, 0x01	; 1
    18d8:	13 c0       	rjmp	.+38     	; 0x1900 <_ZN7MPU600010InitializeEjhhh+0xf0>
		SmplRtDiv = (byte)constrain((unsigned int)1000/SampleRate,1,255) - 1;	// calculate sample rate divisor value
		break;
	case SEL_DLPF_98:	// DLPF cutoff 98 Hz, GyroOutRate = 1 kHz.
		SPI_write(MPUREG_CONFIG, MPU_NO_EXT_SYNC | BITS_DLPF_CFG_98HZ);			// set bits of config register
    18da:	ce 01       	movw	r24, r28
    18dc:	6a e1       	ldi	r22, 0x1A	; 26
    18de:	42 e0       	ldi	r20, 0x02	; 2
    18e0:	0f c0       	rjmp	.+30     	; 0x1900 <_ZN7MPU600010InitializeEjhhh+0xf0>
		SmplRtDiv = (byte)constrain((unsigned int)1000/SampleRate,1,255) - 1;	// calculate sample rate divisor value
		break;
	case SEL_DLPF_42:	// DLPF cutoff 42 Hz, GyroOutRate = 1 kHz.
		SPI_write(MPUREG_CONFIG, MPU_NO_EXT_SYNC | BITS_DLPF_CFG_42HZ);			// set bits of config register
    18e2:	ce 01       	movw	r24, r28
    18e4:	6a e1       	ldi	r22, 0x1A	; 26
    18e6:	43 e0       	ldi	r20, 0x03	; 3
    18e8:	0b c0       	rjmp	.+22     	; 0x1900 <_ZN7MPU600010InitializeEjhhh+0xf0>
		SmplRtDiv = (byte)constrain((unsigned int)1000/SampleRate,1,255) - 1;	// calculate sample rate divisor value
		break;
	case SEL_DLPF_20:	// DLPF cutoff 20 Hz, GyroOutRate = 1 kHz.
		SPI_write(MPUREG_CONFIG, MPU_NO_EXT_SYNC | BITS_DLPF_CFG_20HZ);			// set bits of config register
    18ea:	ce 01       	movw	r24, r28
    18ec:	6a e1       	ldi	r22, 0x1A	; 26
    18ee:	44 e0       	ldi	r20, 0x04	; 4
    18f0:	07 c0       	rjmp	.+14     	; 0x1900 <_ZN7MPU600010InitializeEjhhh+0xf0>
		SmplRtDiv = (byte)constrain((unsigned int)1000/SampleRate,1,255) - 1;	// calculate sample rate divisor value
		break;
	case SEL_DLPF_10:	// DLPF cutoff 10 Hz, GyroOutRate = 1 kHz.
		SPI_write(MPUREG_CONFIG, MPU_NO_EXT_SYNC | BITS_DLPF_CFG_10HZ);			// set bits of config register
    18f2:	ce 01       	movw	r24, r28
    18f4:	6a e1       	ldi	r22, 0x1A	; 26
    18f6:	45 e0       	ldi	r20, 0x05	; 5
    18f8:	03 c0       	rjmp	.+6      	; 0x1900 <_ZN7MPU600010InitializeEjhhh+0xf0>
		SmplRtDiv = (byte)constrain((unsigned int)1000/SampleRate,1,255) - 1;	// calculate sample rate divisor value
		break;
	case SEL_DLPF_5:	// DLPF cutoff 5 Hz, GyroOutRate = 1 kHz.
		SPI_write(MPUREG_CONFIG, MPU_NO_EXT_SYNC | BITS_DLPF_CFG_5HZ);			// set bits of config register
    18fa:	ce 01       	movw	r24, r28
    18fc:	6a e1       	ldi	r22, 0x1A	; 26
    18fe:	46 e0       	ldi	r20, 0x06	; 6
    1900:	0e 94 ca 09 	call	0x1394	; 0x1394 <_ZN7MPU60009SPI_writeEhh>
		SmplRtDiv = (byte)constrain((unsigned int)1000/SampleRate,1,255) - 1;	// calculate sample rate divisor value
    1904:	88 ee       	ldi	r24, 0xE8	; 232
    1906:	93 e0       	ldi	r25, 0x03	; 3
    1908:	b7 01       	movw	r22, r14
    190a:	0e 94 0e 23 	call	0x461c	; 0x461c <__udivmodhi4>
    190e:	61 15       	cp	r22, r1
    1910:	71 05       	cpc	r23, r1
    1912:	19 f1       	breq	.+70     	; 0x195a <_ZN7MPU600010InitializeEjhhh+0x14a>
    1914:	6f 3f       	cpi	r22, 0xFF	; 255
    1916:	71 05       	cpc	r23, r1
    1918:	19 f0       	breq	.+6      	; 0x1920 <_ZN7MPU600010InitializeEjhhh+0x110>
    191a:	10 f0       	brcs	.+4      	; 0x1920 <_ZN7MPU600010InitializeEjhhh+0x110>
    191c:	6f ef       	ldi	r22, 0xFF	; 255
    191e:	70 e0       	ldi	r23, 0x00	; 0
    1920:	16 2f       	mov	r17, r22
    1922:	11 50       	subi	r17, 0x01	; 1
    1924:	01 e0       	ldi	r16, 0x01	; 1
    1926:	1b c0       	rjmp	.+54     	; 0x195e <_ZN7MPU600010InitializeEjhhh+0x14e>
		break;
	default:			// DLPF disabled, GyroOutRate = 8 kHz.  return false.
		SPI_write(MPUREG_CONFIG, MPU_NO_EXT_SYNC | SEL_DLPF_DEFAULT );	// set bits of config register
    1928:	ce 01       	movw	r24, r28
    192a:	6a e1       	ldi	r22, 0x1A	; 26
    192c:	40 e0       	ldi	r20, 0x00	; 0
    192e:	0e 94 ca 09 	call	0x1394	; 0x1394 <_ZN7MPU60009SPI_writeEhh>
		SmplRtDiv = (byte)constrain((unsigned int)(SEL_DLPF_DEFAULT == SEL_DLPF_DIS ? 8000:1000)/SampleRate,1,255) - 1;	// calculate sample rate divisor value
    1932:	80 e4       	ldi	r24, 0x40	; 64
    1934:	9f e1       	ldi	r25, 0x1F	; 31
    1936:	b7 01       	movw	r22, r14
    1938:	0e 94 0e 23 	call	0x461c	; 0x461c <__udivmodhi4>
    193c:	61 15       	cp	r22, r1
    193e:	71 05       	cpc	r23, r1
    1940:	11 f4       	brne	.+4      	; 0x1946 <_ZN7MPU600010InitializeEjhhh+0x136>
    1942:	00 e0       	ldi	r16, 0x00	; 0
    1944:	0b c0       	rjmp	.+22     	; 0x195c <_ZN7MPU600010InitializeEjhhh+0x14c>
    1946:	6f 3f       	cpi	r22, 0xFF	; 255
    1948:	71 05       	cpc	r23, r1
    194a:	19 f0       	breq	.+6      	; 0x1952 <_ZN7MPU600010InitializeEjhhh+0x142>
    194c:	10 f0       	brcs	.+4      	; 0x1952 <_ZN7MPU600010InitializeEjhhh+0x142>
    194e:	6f ef       	ldi	r22, 0xFF	; 255
    1950:	70 e0       	ldi	r23, 0x00	; 0
    1952:	16 2f       	mov	r17, r22
    1954:	11 50       	subi	r17, 0x01	; 1
    1956:	00 e0       	ldi	r16, 0x00	; 0
    1958:	02 c0       	rjmp	.+4      	; 0x195e <_ZN7MPU600010InitializeEjhhh+0x14e>
    195a:	01 e0       	ldi	r16, 0x01	; 1
    195c:	10 e0       	ldi	r17, 0x00	; 0
		rtn = false;
	}
	delay(1);
    195e:	61 e0       	ldi	r22, 0x01	; 1
    1960:	70 e0       	ldi	r23, 0x00	; 0
    1962:	80 e0       	ldi	r24, 0x00	; 0
    1964:	90 e0       	ldi	r25, 0x00	; 0
    1966:	0e 94 c8 21 	call	0x4390	; 0x4390 <delay>

	// SAMPLE RATE
	SPI_write(MPUREG_SMPLRT_DIV,SmplRtDiv);     // Set desired sample rate
    196a:	ce 01       	movw	r24, r28
    196c:	69 e1       	ldi	r22, 0x19	; 25
    196e:	41 2f       	mov	r20, r17
    1970:	0e 94 ca 09 	call	0x1394	; 0x1394 <_ZN7MPU60009SPI_writeEhh>
	delay(1);
    1974:	61 e0       	ldi	r22, 0x01	; 1
    1976:	70 e0       	ldi	r23, 0x00	; 0
    1978:	80 e0       	ldi	r24, 0x00	; 0
    197a:	90 e0       	ldi	r25, 0x00	; 0
    197c:	0e 94 c8 21 	call	0x4390	; 0x4390 <delay>

	// Set Gyroscope Scale and ensure it is not in self-test mode
	switch (GyroScaleSelect)
    1980:	81 e0       	ldi	r24, 0x01	; 1
    1982:	d8 16       	cp	r13, r24
    1984:	69 f0       	breq	.+26     	; 0x19a0 <_ZN7MPU600010InitializeEjhhh+0x190>
    1986:	d8 16       	cp	r13, r24
    1988:	38 f0       	brcs	.+14     	; 0x1998 <_ZN7MPU600010InitializeEjhhh+0x188>
    198a:	82 e0       	ldi	r24, 0x02	; 2
    198c:	d8 16       	cp	r13, r24
    198e:	71 f0       	breq	.+28     	; 0x19ac <_ZN7MPU600010InitializeEjhhh+0x19c>
    1990:	83 e0       	ldi	r24, 0x03	; 3
    1992:	d8 16       	cp	r13, r24
    1994:	99 f4       	brne	.+38     	; 0x19bc <_ZN7MPU600010InitializeEjhhh+0x1ac>
    1996:	0e c0       	rjmp	.+28     	; 0x19b4 <_ZN7MPU600010InitializeEjhhh+0x1a4>
	{
	case SEL_GYRO_250: 	// Gyro scale +-250/s
		SPI_write(MPUREG_GYRO_CONFIG, BITS_GYRO_NOSELFTEST | BITS_GFS_250DPS);  // Set bits of MPUREG_GYRO_CONFIG register to disable self-test and apply Gyro scale 250/s
    1998:	ce 01       	movw	r24, r28
    199a:	6b e1       	ldi	r22, 0x1B	; 27
    199c:	40 e0       	ldi	r20, 0x00	; 0
    199e:	03 c0       	rjmp	.+6      	; 0x19a6 <_ZN7MPU600010InitializeEjhhh+0x196>
		break;
	case SEL_GYRO_500:	// Gyro scale +-500/s
		SPI_write(MPUREG_GYRO_CONFIG, BITS_GYRO_NOSELFTEST | BITS_GFS_500DPS);  // Set bits of MPUREG_GYRO_CONFIG register to disable self-test and apply Gyro scale 500/s
    19a0:	ce 01       	movw	r24, r28
    19a2:	6b e1       	ldi	r22, 0x1B	; 27
    19a4:	48 e0       	ldi	r20, 0x08	; 8
    19a6:	0e 94 ca 09 	call	0x1394	; 0x1394 <_ZN7MPU60009SPI_writeEhh>
    19aa:	10 c0       	rjmp	.+32     	; 0x19cc <_ZN7MPU600010InitializeEjhhh+0x1bc>
		break;
	case SEL_GYRO_1000:	// Gyro scale +-1000/s
		SPI_write(MPUREG_GYRO_CONFIG, BITS_GYRO_NOSELFTEST | BITS_GFS_1000DPS);  // Set bits of MPUREG_GYRO_CONFIG register to disable self-test and apply Gyro scale 1000/s
    19ac:	ce 01       	movw	r24, r28
    19ae:	6b e1       	ldi	r22, 0x1B	; 27
    19b0:	40 e1       	ldi	r20, 0x10	; 16
    19b2:	f9 cf       	rjmp	.-14     	; 0x19a6 <_ZN7MPU600010InitializeEjhhh+0x196>
		break;
	case SEL_GYRO_2000:	// Gyro scale +-2000/s
		SPI_write(MPUREG_GYRO_CONFIG, BITS_GYRO_NOSELFTEST | BITS_GFS_2000DPS);  // Set bits of MPUREG_GYRO_CONFIG register to disable self-test and apply Gyro scale 2000/s
    19b4:	ce 01       	movw	r24, r28
    19b6:	6b e1       	ldi	r22, 0x1B	; 27
    19b8:	48 e1       	ldi	r20, 0x18	; 24
    19ba:	f5 cf       	rjmp	.-22     	; 0x19a6 <_ZN7MPU600010InitializeEjhhh+0x196>
		break;
	default:			// Gyro scale +-1000/s and return false
		SPI_write(MPUREG_GYRO_CONFIG, BITS_GYRO_NOSELFTEST | (SEL_GYRO_DEFAULT<<3));  // Set bits of MPUREG_GYRO_CONFIG register to disable self-test and apply Gyro scale 1000/s
    19bc:	ce 01       	movw	r24, r28
    19be:	6b e1       	ldi	r22, 0x1B	; 27
    19c0:	40 e1       	ldi	r20, 0x10	; 16
    19c2:	0e 94 ca 09 	call	0x1394	; 0x1394 <_ZN7MPU60009SPI_writeEhh>
		Gyro_Select = SEL_GYRO_DEFAULT;		// store default selection
    19c6:	82 e0       	ldi	r24, 0x02	; 2
    19c8:	8c af       	std	Y+60, r24	; 0x3c
    19ca:	00 e0       	ldi	r16, 0x00	; 0
		rtn = false;
	}
	delay(1);
    19cc:	61 e0       	ldi	r22, 0x01	; 1
    19ce:	70 e0       	ldi	r23, 0x00	; 0
    19d0:	80 e0       	ldi	r24, 0x00	; 0
    19d2:	90 e0       	ldi	r25, 0x00	; 0
    19d4:	0e 94 c8 21 	call	0x4390	; 0x4390 <delay>

	// Set Accelerometer Scale and nsure it is not in self-test mode
	switch (AccelScaleSelect)
    19d8:	81 e0       	ldi	r24, 0x01	; 1
    19da:	c8 16       	cp	r12, r24
    19dc:	69 f0       	breq	.+26     	; 0x19f8 <_ZN7MPU600010InitializeEjhhh+0x1e8>
    19de:	c8 16       	cp	r12, r24
    19e0:	38 f0       	brcs	.+14     	; 0x19f0 <_ZN7MPU600010InitializeEjhhh+0x1e0>
    19e2:	82 e0       	ldi	r24, 0x02	; 2
    19e4:	c8 16       	cp	r12, r24
    19e6:	71 f0       	breq	.+28     	; 0x1a04 <_ZN7MPU600010InitializeEjhhh+0x1f4>
    19e8:	83 e0       	ldi	r24, 0x03	; 3
    19ea:	c8 16       	cp	r12, r24
    19ec:	99 f4       	brne	.+38     	; 0x1a14 <_ZN7MPU600010InitializeEjhhh+0x204>
    19ee:	0e c0       	rjmp	.+28     	; 0x1a0c <_ZN7MPU600010InitializeEjhhh+0x1fc>
	{
	case SEL_ACCEL_2:	// Accel scale +-2g
		SPI_write(MPUREG_ACCEL_CONFIG, BITS_ACCEL_NOSELFTEST | BITS_AFS_2G);      // Set bits of MPUREG_ACCEL_CONFIG register to disable self-test and apply Accel scale 2g
    19f0:	ce 01       	movw	r24, r28
    19f2:	6c e1       	ldi	r22, 0x1C	; 28
    19f4:	40 e0       	ldi	r20, 0x00	; 0
    19f6:	03 c0       	rjmp	.+6      	; 0x19fe <_ZN7MPU600010InitializeEjhhh+0x1ee>
		break;
	case SEL_ACCEL_4:	// Accel scale +-4g
		SPI_write(MPUREG_ACCEL_CONFIG, BITS_ACCEL_NOSELFTEST | BITS_AFS_4G);      // Set bits of MPUREG_ACCEL_CONFIG register to disable self-test and apply Accel scale 4g
    19f8:	ce 01       	movw	r24, r28
    19fa:	6c e1       	ldi	r22, 0x1C	; 28
    19fc:	48 e0       	ldi	r20, 0x08	; 8
    19fe:	0e 94 ca 09 	call	0x1394	; 0x1394 <_ZN7MPU60009SPI_writeEhh>
    1a02:	10 c0       	rjmp	.+32     	; 0x1a24 <_ZN7MPU600010InitializeEjhhh+0x214>
		break;
	case SEL_ACCEL_8:	// Accel scale +-8g
		SPI_write(MPUREG_ACCEL_CONFIG, BITS_ACCEL_NOSELFTEST | BITS_AFS_8G);      // Set bits of MPUREG_ACCEL_CONFIG register to disable self-test and apply Accel scale 8g
    1a04:	ce 01       	movw	r24, r28
    1a06:	6c e1       	ldi	r22, 0x1C	; 28
    1a08:	40 e1       	ldi	r20, 0x10	; 16
    1a0a:	f9 cf       	rjmp	.-14     	; 0x19fe <_ZN7MPU600010InitializeEjhhh+0x1ee>
		break;
	case SEL_ACCEL_16:	// Accel scale +-16g
		SPI_write(MPUREG_ACCEL_CONFIG, BITS_ACCEL_NOSELFTEST | BITS_AFS_16G);      // Set bits of MPUREG_ACCEL_CONFIG register to disable self-test and apply Accel scale 16g
    1a0c:	ce 01       	movw	r24, r28
    1a0e:	6c e1       	ldi	r22, 0x1C	; 28
    1a10:	48 e1       	ldi	r20, 0x18	; 24
    1a12:	f5 cf       	rjmp	.-22     	; 0x19fe <_ZN7MPU600010InitializeEjhhh+0x1ee>
		break;
	default:			// Accel scale +-4g and return false
		SPI_write(MPUREG_ACCEL_CONFIG, BITS_ACCEL_NOSELFTEST | (SEL_ACCEL_DEFAULT<<3));      // Set bits of MPUREG_ACCEL_CONFIG register to disable self-test and apply Accel scale 4g
    1a14:	ce 01       	movw	r24, r28
    1a16:	6c e1       	ldi	r22, 0x1C	; 28
    1a18:	48 e0       	ldi	r20, 0x08	; 8
    1a1a:	0e 94 ca 09 	call	0x1394	; 0x1394 <_ZN7MPU60009SPI_writeEhh>
		Accel_Select = SEL_ACCEL_DEFAULT;	// store default selection
    1a1e:	81 e0       	ldi	r24, 0x01	; 1
    1a20:	8d af       	std	Y+61, r24	; 0x3d
    1a22:	00 e0       	ldi	r16, 0x00	; 0
		rtn = false;
	}
	delay(1);
    1a24:	61 e0       	ldi	r22, 0x01	; 1
    1a26:	70 e0       	ldi	r23, 0x00	; 0
    1a28:	80 e0       	ldi	r24, 0x00	; 0
    1a2a:	90 e0       	ldi	r25, 0x00	; 0
    1a2c:	0e 94 c8 21 	call	0x4390	; 0x4390 <delay>

	// INT CFG => Interrupt on Data Ready
	SPI_write(MPUREG_INT_ENABLE,BIT_RAW_RDY_EN);         // INT: Raw data ready
    1a30:	ce 01       	movw	r24, r28
    1a32:	68 e3       	ldi	r22, 0x38	; 56
    1a34:	41 e0       	ldi	r20, 0x01	; 1
    1a36:	0e 94 ca 09 	call	0x1394	; 0x1394 <_ZN7MPU60009SPI_writeEhh>
	delay(1);
    1a3a:	61 e0       	ldi	r22, 0x01	; 1
    1a3c:	70 e0       	ldi	r23, 0x00	; 0
    1a3e:	80 e0       	ldi	r24, 0x00	; 0
    1a40:	90 e0       	ldi	r25, 0x00	; 0
    1a42:	0e 94 c8 21 	call	0x4390	; 0x4390 <delay>
	SPI_write(MPUREG_INT_PIN_CFG,BIT_INT_ANYRD_2CLEAR);  // INT: Clear on any read
    1a46:	ce 01       	movw	r24, r28
    1a48:	67 e3       	ldi	r22, 0x37	; 55
    1a4a:	40 e1       	ldi	r20, 0x10	; 16
    1a4c:	0e 94 ca 09 	call	0x1394	; 0x1394 <_ZN7MPU60009SPI_writeEhh>
	delay(1);
    1a50:	61 e0       	ldi	r22, 0x01	; 1
    1a52:	70 e0       	ldi	r23, 0x00	; 0
    1a54:	80 e0       	ldi	r24, 0x00	; 0
    1a56:	90 e0       	ldi	r25, 0x00	; 0
    1a58:	0e 94 c8 21 	call	0x4390	; 0x4390 <delay>

	// MPU_INT is connected to INT 0. Enable interrupt on INT0
	attachInterrupt(0,MPU6000_data_int,RISING);
    1a5c:	80 e0       	ldi	r24, 0x00	; 0
    1a5e:	6e ed       	ldi	r22, 0xDE	; 222
    1a60:	78 e0       	ldi	r23, 0x08	; 8
    1a62:	43 e0       	ldi	r20, 0x03	; 3
    1a64:	50 e0       	ldi	r21, 0x00	; 0
    1a66:	0e 94 ce 20 	call	0x419c	; 0x419c <attachInterrupt>

	return rtn;
}
    1a6a:	80 2f       	mov	r24, r16
    1a6c:	df 91       	pop	r29
    1a6e:	cf 91       	pop	r28
    1a70:	1f 91       	pop	r17
    1a72:	0f 91       	pop	r16
    1a74:	ff 90       	pop	r15
    1a76:	ef 90       	pop	r14
    1a78:	df 90       	pop	r13
    1a7a:	cf 90       	pop	r12
    1a7c:	08 95       	ret

00001a7e <_ZN10GyroKalmanC1Ev>:
 * Function:	GyroKalman()
 * Scope:		Public
 * Arguments:	None
 * Description:	Constructor for GyroKalman object
 */
GyroKalman::GyroKalman(void) {
    1a7e:	fc 01       	movw	r30, r24
	rate_proc_noise_var = 0;				// Initial value of 0.  variance in process noise affecting angular rate (rad^2/s^2*2^24).  In the case of an aircraft, this could be noise such as wind.
    1a80:	14 82       	std	Z+4, r1	; 0x04
    1a82:	15 82       	std	Z+5, r1	; 0x05
    1a84:	16 82       	std	Z+6, r1	; 0x06
    1a86:	17 82       	std	Z+7, r1	; 0x07
	rate_obs_noise_var = 0;					// Initial value of 0.  variance in observation noise affecting rate measurement (rad^2/s^2*2^24).  This is the variance of the gyroscope signal noise.
    1a88:	14 86       	std	Z+12, r1	; 0x0c
    1a8a:	15 86       	std	Z+13, r1	; 0x0d
    1a8c:	16 86       	std	Z+14, r1	; 0x0e
    1a8e:	17 86       	std	Z+15, r1	; 0x0f
	angle_proc_noise_var = 0;				// Initial value of 0.  variance in process noise affecting angle (rad^2 * 2^24).
    1a90:	10 82       	st	Z, r1
    1a92:	11 82       	std	Z+1, r1	; 0x01
    1a94:	12 82       	std	Z+2, r1	; 0x02
    1a96:	13 82       	std	Z+3, r1	; 0x03
	angle_obs_noise_var = 0;				// Initial value of 0.  variance in observation noise affecting angle (rad^2 * 2^24).  This is the variance of the compass signal noise.
    1a98:	10 86       	std	Z+8, r1	; 0x08
    1a9a:	11 86       	std	Z+9, r1	; 0x09
    1a9c:	12 86       	std	Z+10, r1	; 0x0a
    1a9e:	13 86       	std	Z+11, r1	; 0x0b
	angle_pred = 0;							// Initial value of 0.  predicted angle (radians*2^24) at current time, based only on past information
    1aa0:	10 aa       	std	Z+48, r1	; 0x30
    1aa2:	11 aa       	std	Z+49, r1	; 0x31
    1aa4:	12 aa       	std	Z+50, r1	; 0x32
    1aa6:	13 aa       	std	Z+51, r1	; 0x33
	angle_est = 0;							// Initial value of 0.  estimated angle (radians*2^24) at current time, updated with latest measurements
    1aa8:	10 ae       	std	Z+56, r1	; 0x38
    1aaa:	11 ae       	std	Z+57, r1	; 0x39
    1aac:	12 ae       	std	Z+58, r1	; 0x3a
    1aae:	13 ae       	std	Z+59, r1	; 0x3b
	rate_pred = 0;							// Initial value of 0.  predicted angular velocity (radians/sec * 2^24) at current time, based only on past information
    1ab0:	14 aa       	std	Z+52, r1	; 0x34
    1ab2:	15 aa       	std	Z+53, r1	; 0x35
    1ab4:	16 aa       	std	Z+54, r1	; 0x36
    1ab6:	17 aa       	std	Z+55, r1	; 0x37
	rate_est = 0;							// Initial value of 0.  estimated angular velocity (radians/sec * 2^24), updated with latest measurements
    1ab8:	14 ae       	std	Z+60, r1	; 0x3c
    1aba:	15 ae       	std	Z+61, r1	; 0x3d
    1abc:	16 ae       	std	Z+62, r1	; 0x3e
    1abe:	17 ae       	std	Z+63, r1	; 0x3f
	est_cov_apriori[0] = 0;					// Initial value of 0.  a-priori estimate covariance matrix (calculated after prediction step, befure updating with measurements)
    1ac0:	10 8a       	std	Z+16, r1	; 0x10
    1ac2:	11 8a       	std	Z+17, r1	; 0x11
    1ac4:	12 8a       	std	Z+18, r1	; 0x12
    1ac6:	13 8a       	std	Z+19, r1	; 0x13
	est_cov_apriori[1] = 0;					// Initial value of 0.  a-priori estimate covariance matrix (calculated after prediction step, befure updating with measurements)
    1ac8:	14 8a       	std	Z+20, r1	; 0x14
    1aca:	15 8a       	std	Z+21, r1	; 0x15
    1acc:	16 8a       	std	Z+22, r1	; 0x16
    1ace:	17 8a       	std	Z+23, r1	; 0x17
	est_cov_apriori[2] = 0;					// Initial value of 0.  a-priori estimate covariance matrix (calculated after prediction step, befure updating with measurements)
    1ad0:	10 8e       	std	Z+24, r1	; 0x18
    1ad2:	11 8e       	std	Z+25, r1	; 0x19
    1ad4:	12 8e       	std	Z+26, r1	; 0x1a
    1ad6:	13 8e       	std	Z+27, r1	; 0x1b
	est_cov_apriori[3] = 0;					// Initial value of 0.  a-priori estimate covariance matrix (calculated after prediction step, befure updating with measurements)
    1ad8:	14 8e       	std	Z+28, r1	; 0x1c
    1ada:	15 8e       	std	Z+29, r1	; 0x1d
    1adc:	16 8e       	std	Z+30, r1	; 0x1e
    1ade:	17 8e       	std	Z+31, r1	; 0x1f
	est_cov_aposteriori[0] = 0;				// Initial value of 0.  a-posteriori estimate covariance matrix (calculated after estimates are updated with measurements)
    1ae0:	10 a2       	std	Z+32, r1	; 0x20
    1ae2:	11 a2       	std	Z+33, r1	; 0x21
    1ae4:	12 a2       	std	Z+34, r1	; 0x22
    1ae6:	13 a2       	std	Z+35, r1	; 0x23
	est_cov_aposteriori[1] = 0;				// Initial value of 0.  a-posteriori estimate covariance matrix (calculated after estimates are updated with measurements)
    1ae8:	14 a2       	std	Z+36, r1	; 0x24
    1aea:	15 a2       	std	Z+37, r1	; 0x25
    1aec:	16 a2       	std	Z+38, r1	; 0x26
    1aee:	17 a2       	std	Z+39, r1	; 0x27
	est_cov_aposteriori[2] = 0;				// Initial value of 0.  a-posteriori estimate covariance matrix (calculated after estimates are updated with measurements)
    1af0:	10 a6       	std	Z+40, r1	; 0x28
    1af2:	11 a6       	std	Z+41, r1	; 0x29
    1af4:	12 a6       	std	Z+42, r1	; 0x2a
    1af6:	13 a6       	std	Z+43, r1	; 0x2b
	est_cov_aposteriori[3] = 0;				// Initial value of 0.  a-posteriori estimate covariance matrix (calculated after estimates are updated with measurements)
    1af8:	14 a6       	std	Z+44, r1	; 0x2c
    1afa:	15 a6       	std	Z+45, r1	; 0x2d
    1afc:	16 a6       	std	Z+46, r1	; 0x2e
    1afe:	17 a6       	std	Z+47, r1	; 0x2f

	return;
} // end of GyroKalman()
    1b00:	08 95       	ret

00001b02 <_ZN10GyroKalman10InitializeEllllllll>:
								_lAccum angleobsnoisevar,
								_lAccum rateobsnoisevar,
								_lAccum InitialAngle,
								_lAccum InitialRate,
								_lAccum InitialAngleEstVar,
								_lAccum InitialRateEstVar){
    1b02:	4f 92       	push	r4
    1b04:	5f 92       	push	r5
    1b06:	6f 92       	push	r6
    1b08:	7f 92       	push	r7
    1b0a:	8f 92       	push	r8
    1b0c:	9f 92       	push	r9
    1b0e:	af 92       	push	r10
    1b10:	bf 92       	push	r11
    1b12:	cf 92       	push	r12
    1b14:	df 92       	push	r13
    1b16:	ef 92       	push	r14
    1b18:	ff 92       	push	r15
    1b1a:	0f 93       	push	r16
    1b1c:	1f 93       	push	r17
    1b1e:	df 93       	push	r29
    1b20:	cf 93       	push	r28
    1b22:	cd b7       	in	r28, 0x3d	; 61
    1b24:	de b7       	in	r29, 0x3e	; 62
    1b26:	fc 01       	movw	r30, r24
    1b28:	40 83       	st	Z, r20
    1b2a:	51 83       	std	Z+1, r21	; 0x01
    1b2c:	62 83       	std	Z+2, r22	; 0x02
    1b2e:	73 83       	std	Z+3, r23	; 0x03
    1b30:	8b 89       	ldd	r24, Y+19	; 0x13
    1b32:	9c 89       	ldd	r25, Y+20	; 0x14
    1b34:	ad 89       	ldd	r26, Y+21	; 0x15
    1b36:	be 89       	ldd	r27, Y+22	; 0x16
    1b38:	4f 88       	ldd	r4, Y+23	; 0x17
    1b3a:	58 8c       	ldd	r5, Y+24	; 0x18
    1b3c:	69 8c       	ldd	r6, Y+25	; 0x19
    1b3e:	7a 8c       	ldd	r7, Y+26	; 0x1a
	rate_proc_noise_var = rateprocnoisevar;			// variance in process noise affecting angular rate (rad^2/s^2*2^24).  In the case of an aircraft, this could be noise such as wind.
    1b40:	04 83       	std	Z+4, r16	; 0x04
    1b42:	15 83       	std	Z+5, r17	; 0x05
    1b44:	26 83       	std	Z+6, r18	; 0x06
    1b46:	37 83       	std	Z+7, r19	; 0x07
	rate_obs_noise_var = rateobsnoisevar;			// variance in observation noise affecting rate measurement (rad^2/s^2*2^24).  This is the variance of the gyroscope signal noise.
    1b48:	84 86       	std	Z+12, r8	; 0x0c
    1b4a:	95 86       	std	Z+13, r9	; 0x0d
    1b4c:	a6 86       	std	Z+14, r10	; 0x0e
    1b4e:	b7 86       	std	Z+15, r11	; 0x0f
	angle_proc_noise_var = angleprocnoisevar;		// variance in process noise affecting angle (rad^2 * 2^24).
	angle_obs_noise_var = angleobsnoisevar;			// variance in observation noise affecting angle (rad^2 * 2^24).  This is the variance of the compass signal noise.
    1b50:	c0 86       	std	Z+8, r12	; 0x08
    1b52:	d1 86       	std	Z+9, r13	; 0x09
    1b54:	e2 86       	std	Z+10, r14	; 0x0a
    1b56:	f3 86       	std	Z+11, r15	; 0x0b
	angle_pred = InitialAngle;						// predicted angle (radians*2^24) at current time, based only on past information
    1b58:	80 ab       	std	Z+48, r24	; 0x30
    1b5a:	91 ab       	std	Z+49, r25	; 0x31
    1b5c:	a2 ab       	std	Z+50, r26	; 0x32
    1b5e:	b3 ab       	std	Z+51, r27	; 0x33
	angle_est = InitialAngle;						// estimated angle (radians*2^24) at current time, updated with latest measurements
    1b60:	80 af       	std	Z+56, r24	; 0x38
    1b62:	91 af       	std	Z+57, r25	; 0x39
    1b64:	a2 af       	std	Z+58, r26	; 0x3a
    1b66:	b3 af       	std	Z+59, r27	; 0x3b
	rate_pred = InitialRate;						// predicted angular velocity (radians/sec * 2^24) at current time, based only on past information
    1b68:	44 aa       	std	Z+52, r4	; 0x34
    1b6a:	55 aa       	std	Z+53, r5	; 0x35
    1b6c:	66 aa       	std	Z+54, r6	; 0x36
    1b6e:	77 aa       	std	Z+55, r7	; 0x37
	rate_est = InitialRate;							// estimated angular velocity (radians/sec * 2^24), updated with latest measurements
    1b70:	44 ae       	std	Z+60, r4	; 0x3c
    1b72:	55 ae       	std	Z+61, r5	; 0x3d
    1b74:	66 ae       	std	Z+62, r6	; 0x3e
    1b76:	77 ae       	std	Z+63, r7	; 0x3f
	est_cov_apriori[0] = InitialAngleEstVar;		// a-priori estimate covariance matrix (calculated after prediction step, befure updating with measurements)
    1b78:	2b 8d       	ldd	r18, Y+27	; 0x1b
    1b7a:	3c 8d       	ldd	r19, Y+28	; 0x1c
    1b7c:	4d 8d       	ldd	r20, Y+29	; 0x1d
    1b7e:	5e 8d       	ldd	r21, Y+30	; 0x1e
    1b80:	20 8b       	std	Z+16, r18	; 0x10
    1b82:	31 8b       	std	Z+17, r19	; 0x11
    1b84:	42 8b       	std	Z+18, r20	; 0x12
    1b86:	53 8b       	std	Z+19, r21	; 0x13
	est_cov_apriori[1] = 0;							// a-priori estimate covariance matrix (calculated after prediction step, befure updating with measurements)
    1b88:	14 8a       	std	Z+20, r1	; 0x14
    1b8a:	15 8a       	std	Z+21, r1	; 0x15
    1b8c:	16 8a       	std	Z+22, r1	; 0x16
    1b8e:	17 8a       	std	Z+23, r1	; 0x17
	est_cov_apriori[2] = 0;							// a-priori estimate covariance matrix (calculated after prediction step, befure updating with measurements)
    1b90:	10 8e       	std	Z+24, r1	; 0x18
    1b92:	11 8e       	std	Z+25, r1	; 0x19
    1b94:	12 8e       	std	Z+26, r1	; 0x1a
    1b96:	13 8e       	std	Z+27, r1	; 0x1b
	est_cov_apriori[3] = InitialRateEstVar;			// a-priori estimate covariance matrix (calculated after prediction step, befure updating with measurements)
    1b98:	4f 8d       	ldd	r20, Y+31	; 0x1f
    1b9a:	58 a1       	ldd	r21, Y+32	; 0x20
    1b9c:	69 a1       	ldd	r22, Y+33	; 0x21
    1b9e:	7a a1       	ldd	r23, Y+34	; 0x22
    1ba0:	44 8f       	std	Z+28, r20	; 0x1c
    1ba2:	55 8f       	std	Z+29, r21	; 0x1d
    1ba4:	66 8f       	std	Z+30, r22	; 0x1e
    1ba6:	77 8f       	std	Z+31, r23	; 0x1f
	est_cov_aposteriori[0] = InitialAngleEstVar;	// a-posteriori estimate covariance matrix (calculated after estimates are updated with measurements)
    1ba8:	6b 8d       	ldd	r22, Y+27	; 0x1b
    1baa:	7c 8d       	ldd	r23, Y+28	; 0x1c
    1bac:	8d 8d       	ldd	r24, Y+29	; 0x1d
    1bae:	9e 8d       	ldd	r25, Y+30	; 0x1e
    1bb0:	60 a3       	std	Z+32, r22	; 0x20
    1bb2:	71 a3       	std	Z+33, r23	; 0x21
    1bb4:	82 a3       	std	Z+34, r24	; 0x22
    1bb6:	93 a3       	std	Z+35, r25	; 0x23
	est_cov_aposteriori[1] = 0;						// a-posteriori estimate covariance matrix (calculated after estimates are updated with measurements)
    1bb8:	14 a2       	std	Z+36, r1	; 0x24
    1bba:	15 a2       	std	Z+37, r1	; 0x25
    1bbc:	16 a2       	std	Z+38, r1	; 0x26
    1bbe:	17 a2       	std	Z+39, r1	; 0x27
	est_cov_aposteriori[2] = 0;						// a-posteriori estimate covariance matrix (calculated after estimates are updated with measurements)
    1bc0:	10 a6       	std	Z+40, r1	; 0x28
    1bc2:	11 a6       	std	Z+41, r1	; 0x29
    1bc4:	12 a6       	std	Z+42, r1	; 0x2a
    1bc6:	13 a6       	std	Z+43, r1	; 0x2b
	est_cov_aposteriori[3] = InitialRateEstVar;		// a-posteriori estimate covariance matrix (calculated after estimates are updated with measurements)
    1bc8:	8f 8d       	ldd	r24, Y+31	; 0x1f
    1bca:	98 a1       	ldd	r25, Y+32	; 0x20
    1bcc:	a9 a1       	ldd	r26, Y+33	; 0x21
    1bce:	ba a1       	ldd	r27, Y+34	; 0x22
    1bd0:	84 a7       	std	Z+44, r24	; 0x2c
    1bd2:	95 a7       	std	Z+45, r25	; 0x2d
    1bd4:	a6 a7       	std	Z+46, r26	; 0x2e
    1bd6:	b7 a7       	std	Z+47, r27	; 0x2f
	return;
} // end of Initialize()
    1bd8:	cf 91       	pop	r28
    1bda:	df 91       	pop	r29
    1bdc:	1f 91       	pop	r17
    1bde:	0f 91       	pop	r16
    1be0:	ff 90       	pop	r15
    1be2:	ef 90       	pop	r14
    1be4:	df 90       	pop	r13
    1be6:	cf 90       	pop	r12
    1be8:	bf 90       	pop	r11
    1bea:	af 90       	pop	r10
    1bec:	9f 90       	pop	r9
    1bee:	8f 90       	pop	r8
    1bf0:	7f 90       	pop	r7
    1bf2:	6f 90       	pop	r6
    1bf4:	5f 90       	pop	r5
    1bf6:	4f 90       	pop	r4
    1bf8:	08 95       	ret

00001bfa <_ZN10GyroKalman8GetAngleEv>:
 * Function:	GetAngle()
 * Scope:		Public
 * Arguments:	None
 * Description:	returns estimated angle, in radians
 */
_lAccum GyroKalman::GetAngle(void){
    1bfa:	fc 01       	movw	r30, r24
    1bfc:	60 ad       	ldd	r22, Z+56	; 0x38
    1bfe:	71 ad       	ldd	r23, Z+57	; 0x39
	return angle_est;		// returns estimated angle, in radians
} // end of GetAngle()
    1c00:	82 ad       	ldd	r24, Z+58	; 0x3a
    1c02:	93 ad       	ldd	r25, Z+59	; 0x3b
    1c04:	08 95       	ret

00001c06 <_ZN10GyroKalman7GetRateEv>:
 * Function:	GetRate()
 * Scope:		Public
 * Arguments:	None
 * Description:	returns estimated rate, in radians/sec
 */
_lAccum GyroKalman::GetRate(void){
    1c06:	fc 01       	movw	r30, r24
    1c08:	64 ad       	ldd	r22, Z+60	; 0x3c
    1c0a:	75 ad       	ldd	r23, Z+61	; 0x3d
	return rate_est;		// returns estimated rate, in radians/sec
} // end of GetRate()
    1c0c:	86 ad       	ldd	r24, Z+62	; 0x3e
    1c0e:	97 ad       	ldd	r25, Z+63	; 0x3f
    1c10:	08 95       	ret

00001c12 <_ZN10GyroKalman18Update_with_NoDataEv>:
 * Scope:		private
 * Arguments:	None
 * Description:	performs update step without any measured data - really just skips the update step and places prediction
 * 				in estimate instead
 */
void GyroKalman::Update_with_NoData(void){
    1c12:	fc 01       	movw	r30, r24
	// Update State estimates
	angle_est = angle_pred;			// set angle estimate to predicted value (no measurement)
    1c14:	20 a9       	ldd	r18, Z+48	; 0x30
    1c16:	31 a9       	ldd	r19, Z+49	; 0x31
    1c18:	42 a9       	ldd	r20, Z+50	; 0x32
    1c1a:	53 a9       	ldd	r21, Z+51	; 0x33
    1c1c:	20 af       	std	Z+56, r18	; 0x38
    1c1e:	31 af       	std	Z+57, r19	; 0x39
    1c20:	42 af       	std	Z+58, r20	; 0x3a
    1c22:	53 af       	std	Z+59, r21	; 0x3b
	rate_est = rate_pred;			// set rate estimate to predicted value (no measurement)
    1c24:	84 a9       	ldd	r24, Z+52	; 0x34
    1c26:	95 a9       	ldd	r25, Z+53	; 0x35
    1c28:	a6 a9       	ldd	r26, Z+54	; 0x36
    1c2a:	b7 a9       	ldd	r27, Z+55	; 0x37
    1c2c:	84 af       	std	Z+60, r24	; 0x3c
    1c2e:	95 af       	std	Z+61, r25	; 0x3d
    1c30:	a6 af       	std	Z+62, r26	; 0x3e
    1c32:	b7 af       	std	Z+63, r27	; 0x3f

	if (angle_est > PILK)	angle_est -= TWOPILK;			// if angle is greater than pi, subtract 2pi to normalize
    1c34:	2b 36       	cpi	r18, 0x6B	; 107
    1c36:	8f e3       	ldi	r24, 0x3F	; 63
    1c38:	38 07       	cpc	r19, r24
    1c3a:	84 e2       	ldi	r24, 0x24	; 36
    1c3c:	48 07       	cpc	r20, r24
    1c3e:	83 e0       	ldi	r24, 0x03	; 3
    1c40:	58 07       	cpc	r21, r24
    1c42:	2c f0       	brlt	.+10     	; 0x1c4e <_ZN10GyroKalman18Update_with_NoDataEv+0x3c>
    1c44:	25 5d       	subi	r18, 0xD5	; 213
    1c46:	3e 47       	sbci	r19, 0x7E	; 126
    1c48:	48 44       	sbci	r20, 0x48	; 72
    1c4a:	56 40       	sbci	r21, 0x06	; 6
    1c4c:	0c c0       	rjmp	.+24     	; 0x1c66 <_ZN10GyroKalman18Update_with_NoDataEv+0x54>
	else if (angle_est < -PILK) angle_est += TWOPILK;		// else if angle is less than -pi, add 2pi to normalize
    1c4e:	26 39       	cpi	r18, 0x96	; 150
    1c50:	80 ec       	ldi	r24, 0xC0	; 192
    1c52:	38 07       	cpc	r19, r24
    1c54:	8b ed       	ldi	r24, 0xDB	; 219
    1c56:	48 07       	cpc	r20, r24
    1c58:	8c ef       	ldi	r24, 0xFC	; 252
    1c5a:	58 07       	cpc	r21, r24
    1c5c:	44 f4       	brge	.+16     	; 0x1c6e <_ZN10GyroKalman18Update_with_NoDataEv+0x5c>
    1c5e:	2b 52       	subi	r18, 0x2B	; 43
    1c60:	31 48       	sbci	r19, 0x81	; 129
    1c62:	47 4b       	sbci	r20, 0xB7	; 183
    1c64:	59 4f       	sbci	r21, 0xF9	; 249
    1c66:	20 af       	std	Z+56, r18	; 0x38
    1c68:	31 af       	std	Z+57, r19	; 0x39
    1c6a:	42 af       	std	Z+58, r20	; 0x3a
    1c6c:	53 af       	std	Z+59, r21	; 0x3b

	// Update Estimate Covariance Matrix
	est_cov_aposteriori[0] = est_cov_apriori[0];	// update first row, first column of estimate covariance matrix
    1c6e:	80 89       	ldd	r24, Z+16	; 0x10
    1c70:	91 89       	ldd	r25, Z+17	; 0x11
    1c72:	a2 89       	ldd	r26, Z+18	; 0x12
    1c74:	b3 89       	ldd	r27, Z+19	; 0x13
    1c76:	80 a3       	std	Z+32, r24	; 0x20
    1c78:	91 a3       	std	Z+33, r25	; 0x21
    1c7a:	a2 a3       	std	Z+34, r26	; 0x22
    1c7c:	b3 a3       	std	Z+35, r27	; 0x23
	est_cov_aposteriori[1] = est_cov_apriori[1];	// update first row, second column of estimate covariance matrix
    1c7e:	84 89       	ldd	r24, Z+20	; 0x14
    1c80:	95 89       	ldd	r25, Z+21	; 0x15
    1c82:	a6 89       	ldd	r26, Z+22	; 0x16
    1c84:	b7 89       	ldd	r27, Z+23	; 0x17
    1c86:	84 a3       	std	Z+36, r24	; 0x24
    1c88:	95 a3       	std	Z+37, r25	; 0x25
    1c8a:	a6 a3       	std	Z+38, r26	; 0x26
    1c8c:	b7 a3       	std	Z+39, r27	; 0x27
	est_cov_aposteriori[2] = est_cov_apriori[2];	// update second row, first column of estimate covariance matrix
    1c8e:	80 8d       	ldd	r24, Z+24	; 0x18
    1c90:	91 8d       	ldd	r25, Z+25	; 0x19
    1c92:	a2 8d       	ldd	r26, Z+26	; 0x1a
    1c94:	b3 8d       	ldd	r27, Z+27	; 0x1b
    1c96:	80 a7       	std	Z+40, r24	; 0x28
    1c98:	91 a7       	std	Z+41, r25	; 0x29
    1c9a:	a2 a7       	std	Z+42, r26	; 0x2a
    1c9c:	b3 a7       	std	Z+43, r27	; 0x2b
	est_cov_aposteriori[3] = est_cov_apriori[3];	// update second row, second column of estimate covariance matrix
    1c9e:	84 8d       	ldd	r24, Z+28	; 0x1c
    1ca0:	95 8d       	ldd	r25, Z+29	; 0x1d
    1ca2:	a6 8d       	ldd	r26, Z+30	; 0x1e
    1ca4:	b7 8d       	ldd	r27, Z+31	; 0x1f
    1ca6:	84 a7       	std	Z+44, r24	; 0x2c
    1ca8:	95 a7       	std	Z+45, r25	; 0x2d
    1caa:	a6 a7       	std	Z+46, r26	; 0x2e
    1cac:	b7 a7       	std	Z+47, r27	; 0x2f

	return;
} // end of Update_with_NoData()
    1cae:	08 95       	ret

00001cb0 <_GLOBAL__I_XAxisGyroKalman>:
 */

#include "GyroKalman.h"

// definitions
GyroKalman XAxisGyroKalman;	// Kalman filter for x-axis gyro measurement
    1cb0:	80 e5       	ldi	r24, 0x50	; 80
    1cb2:	94 e0       	ldi	r25, 0x04	; 4
    1cb4:	0e 94 3f 0d 	call	0x1a7e	; 0x1a7e <_ZN10GyroKalmanC1Ev>
GyroKalman YAxisGyroKalman;	// Kalman filter for y-axis gyro measurement
    1cb8:	80 e9       	ldi	r24, 0x90	; 144
    1cba:	94 e0       	ldi	r25, 0x04	; 4
    1cbc:	0e 94 3f 0d 	call	0x1a7e	; 0x1a7e <_ZN10GyroKalmanC1Ev>
GyroKalman ZAxisGyroKalman;	// Kalman filter for z-axis gyro measurement
    1cc0:	80 ed       	ldi	r24, 0xD0	; 208
    1cc2:	94 e0       	ldi	r25, 0x04	; 4
    1cc4:	0e 94 3f 0d 	call	0x1a7e	; 0x1a7e <_ZN10GyroKalmanC1Ev>
								lmullk(est_cov_apriori[2],opt_gain[3]);	// update second row, first column of estimate covariance matrix
	est_cov_aposteriori[3] = 	est_cov_apriori[3] -
								lmullk(est_cov_apriori[1],opt_gain[2]) -
								lmullk(est_cov_apriori[3],opt_gain[3]);	// update second row, second column of estimate covariance matrix
	return;
} // end of Update_with_Angle_and_Rate()
    1cc8:	08 95       	ret

00001cca <_ZN10GyroKalman7PredictEll>:
 * Arguments:	long	StepTime_us				- step time taken between this prediction and last estimation step, in microseconds.  Limit of 999992 (0.999992 seconds)
 * 				_lAccum	rateActuation_radps2	- known controller's angular acceleration (from torque) input to system at last time interval, in rad/sec^2
 * Description:	performs prediction step based on past information, only knowing time step to take.  Includes optional
 * 				controller actuation input (rad/s*2^24), if known.
 */
void GyroKalman::Predict(long StepTime_us, _lAccum rateActuation_radps2){
    1cca:	2f 92       	push	r2
    1ccc:	3f 92       	push	r3
    1cce:	4f 92       	push	r4
    1cd0:	5f 92       	push	r5
    1cd2:	6f 92       	push	r6
    1cd4:	7f 92       	push	r7
    1cd6:	8f 92       	push	r8
    1cd8:	9f 92       	push	r9
    1cda:	af 92       	push	r10
    1cdc:	bf 92       	push	r11
    1cde:	cf 92       	push	r12
    1ce0:	df 92       	push	r13
    1ce2:	ef 92       	push	r14
    1ce4:	ff 92       	push	r15
    1ce6:	0f 93       	push	r16
    1ce8:	1f 93       	push	r17
    1cea:	df 93       	push	r29
    1cec:	cf 93       	push	r28
    1cee:	00 d0       	rcall	.+0      	; 0x1cf0 <_ZN10GyroKalman7PredictEll+0x26>
    1cf0:	00 d0       	rcall	.+0      	; 0x1cf2 <_ZN10GyroKalman7PredictEll+0x28>
    1cf2:	00 d0       	rcall	.+0      	; 0x1cf4 <_ZN10GyroKalman7PredictEll+0x2a>
    1cf4:	cd b7       	in	r28, 0x3d	; 61
    1cf6:	de b7       	in	r29, 0x3e	; 62
    1cf8:	9e 83       	std	Y+6, r25	; 0x06
    1cfa:	8d 83       	std	Y+5, r24	; 0x05
    1cfc:	78 01       	movw	r14, r16
    1cfe:	89 01       	movw	r16, r18
	_lAccum	StepTime_slk;			// step time in seconds*2^24 (using _lAccum datatype, instead of long microseconds)
	_lAccum StepTime_x_input;		// step time times rate actuation (rad/sec * 2^24)
	_lAccum StepTime_x_lastcov;		// step time times  last element of a-posteriori estimate covariance matrix

	StepTime_slk = (_lAccum)((constrain(StepTime_us,1,999992)*MICROSECONDTIMES2_32PWR)>>8);	// rewrite step time in seconds * 2^24, which is the _lAccum datatype.  This operation constrains to a limit of 0.999992 seconds.
    1d00:	14 16       	cp	r1, r20
    1d02:	15 06       	cpc	r1, r21
    1d04:	16 06       	cpc	r1, r22
    1d06:	17 06       	cpc	r1, r23
    1d08:	2c f0       	brlt	.+10     	; 0x1d14 <_ZN10GyroKalman7PredictEll+0x4a>
    1d0a:	20 e1       	ldi	r18, 0x10	; 16
    1d0c:	30 e0       	ldi	r19, 0x00	; 0
    1d0e:	40 e0       	ldi	r20, 0x00	; 0
    1d10:	50 e0       	ldi	r21, 0x00	; 0
    1d12:	1a c0       	rjmp	.+52     	; 0x1d48 <_ZN10GyroKalman7PredictEll+0x7e>
    1d14:	49 33       	cpi	r20, 0x39	; 57
    1d16:	32 e4       	ldi	r19, 0x42	; 66
    1d18:	53 07       	cpc	r21, r19
    1d1a:	3f e0       	ldi	r19, 0x0F	; 15
    1d1c:	63 07       	cpc	r22, r19
    1d1e:	30 e0       	ldi	r19, 0x00	; 0
    1d20:	73 07       	cpc	r23, r19
    1d22:	24 f0       	brlt	.+8      	; 0x1d2c <_ZN10GyroKalman7PredictEll+0x62>
    1d24:	48 e3       	ldi	r20, 0x38	; 56
    1d26:	52 e4       	ldi	r21, 0x42	; 66
    1d28:	6f e0       	ldi	r22, 0x0F	; 15
    1d2a:	70 e0       	ldi	r23, 0x00	; 0
    1d2c:	cb 01       	movw	r24, r22
    1d2e:	ba 01       	movw	r22, r20
    1d30:	27 ec       	ldi	r18, 0xC7	; 199
    1d32:	30 e1       	ldi	r19, 0x10	; 16
    1d34:	40 e0       	ldi	r20, 0x00	; 0
    1d36:	50 e0       	ldi	r21, 0x00	; 0
    1d38:	0e 94 ef 22 	call	0x45de	; 0x45de <__mulsi3>
    1d3c:	27 2f       	mov	r18, r23
    1d3e:	38 2f       	mov	r19, r24
    1d40:	49 2f       	mov	r20, r25
    1d42:	55 27       	eor	r21, r21
    1d44:	47 fd       	sbrc	r20, 7
    1d46:	5a 95       	dec	r21
    1d48:	29 83       	std	Y+1, r18	; 0x01
    1d4a:	3a 83       	std	Y+2, r19	; 0x02
    1d4c:	4b 83       	std	Y+3, r20	; 0x03
    1d4e:	5c 83       	std	Y+4, r21	; 0x04
	if (rateActuation_radps2 == 0)								// if no control input was specified
    1d50:	e1 14       	cp	r14, r1
    1d52:	f1 04       	cpc	r15, r1
    1d54:	01 05       	cpc	r16, r1
    1d56:	11 05       	cpc	r17, r1
    1d58:	19 f5       	brne	.+70     	; 0x1da0 <_ZN10GyroKalman7PredictEll+0xd6>
	{
		angle_pred = angle_est + lmullk(rate_est,StepTime_slk);	// calculate predicted angle
    1d5a:	ad 81       	ldd	r26, Y+5	; 0x05
    1d5c:	be 81       	ldd	r27, Y+6	; 0x06
    1d5e:	d8 96       	adiw	r26, 0x38	; 56
    1d60:	ed 90       	ld	r14, X+
    1d62:	fd 90       	ld	r15, X+
    1d64:	0d 91       	ld	r16, X+
    1d66:	1c 91       	ld	r17, X
    1d68:	db 97       	sbiw	r26, 0x3b	; 59
    1d6a:	dc 96       	adiw	r26, 0x3c	; 60
    1d6c:	6d 91       	ld	r22, X+
    1d6e:	7d 91       	ld	r23, X+
    1d70:	8d 91       	ld	r24, X+
    1d72:	9c 91       	ld	r25, X
    1d74:	df 97       	sbiw	r26, 0x3f	; 63
    1d76:	29 81       	ldd	r18, Y+1	; 0x01
    1d78:	3a 81       	ldd	r19, Y+2	; 0x02
    1d7a:	4b 81       	ldd	r20, Y+3	; 0x03
    1d7c:	5c 81       	ldd	r21, Y+4	; 0x04
    1d7e:	0e 94 1e 03 	call	0x63c	; 0x63c <lmullkD>
    1d82:	e6 0e       	add	r14, r22
    1d84:	f7 1e       	adc	r15, r23
    1d86:	08 1f       	adc	r16, r24
    1d88:	19 1f       	adc	r17, r25
    1d8a:	ed 81       	ldd	r30, Y+5	; 0x05
    1d8c:	fe 81       	ldd	r31, Y+6	; 0x06
    1d8e:	e0 aa       	std	Z+48, r14	; 0x30
    1d90:	f1 aa       	std	Z+49, r15	; 0x31
    1d92:	02 ab       	std	Z+50, r16	; 0x32
    1d94:	13 ab       	std	Z+51, r17	; 0x33
		rate_pred = rate_est;									// calculate angular velocity prediction
    1d96:	84 ad       	ldd	r24, Z+60	; 0x3c
    1d98:	95 ad       	ldd	r25, Z+61	; 0x3d
    1d9a:	a6 ad       	ldd	r26, Z+62	; 0x3e
    1d9c:	b7 ad       	ldd	r27, Z+63	; 0x3f
    1d9e:	3e c0       	rjmp	.+124    	; 0x1e1c <_ZN10GyroKalman7PredictEll+0x152>
	}
	else														// if control input was specified
	{
		StepTime_x_input = lmullk(rateActuation_radps2,StepTime_slk);				// calculate step time times rate actuation (rad/sec * 2^24)
    1da0:	c8 01       	movw	r24, r16
    1da2:	b7 01       	movw	r22, r14
    1da4:	29 81       	ldd	r18, Y+1	; 0x01
    1da6:	3a 81       	ldd	r19, Y+2	; 0x02
    1da8:	4b 81       	ldd	r20, Y+3	; 0x03
    1daa:	5c 81       	ldd	r21, Y+4	; 0x04
    1dac:	0e 94 1e 03 	call	0x63c	; 0x63c <lmullkD>
    1db0:	3b 01       	movw	r6, r22
    1db2:	4c 01       	movw	r8, r24
		angle_pred = angle_est + lmullk(rate_est,StepTime_slk) + lmullk(StepTime_x_input,StepTime_slk);	// calculate predicted angle
    1db4:	ad 81       	ldd	r26, Y+5	; 0x05
    1db6:	be 81       	ldd	r27, Y+6	; 0x06
    1db8:	d8 96       	adiw	r26, 0x38	; 56
    1dba:	ad 90       	ld	r10, X+
    1dbc:	bd 90       	ld	r11, X+
    1dbe:	cd 90       	ld	r12, X+
    1dc0:	dc 90       	ld	r13, X
    1dc2:	db 97       	sbiw	r26, 0x3b	; 59
    1dc4:	dc 96       	adiw	r26, 0x3c	; 60
    1dc6:	6d 91       	ld	r22, X+
    1dc8:	7d 91       	ld	r23, X+
    1dca:	8d 91       	ld	r24, X+
    1dcc:	9c 91       	ld	r25, X
    1dce:	df 97       	sbiw	r26, 0x3f	; 63
    1dd0:	29 81       	ldd	r18, Y+1	; 0x01
    1dd2:	3a 81       	ldd	r19, Y+2	; 0x02
    1dd4:	4b 81       	ldd	r20, Y+3	; 0x03
    1dd6:	5c 81       	ldd	r21, Y+4	; 0x04
    1dd8:	0e 94 1e 03 	call	0x63c	; 0x63c <lmullkD>
    1ddc:	7b 01       	movw	r14, r22
    1dde:	8c 01       	movw	r16, r24
    1de0:	c4 01       	movw	r24, r8
    1de2:	b3 01       	movw	r22, r6
    1de4:	29 81       	ldd	r18, Y+1	; 0x01
    1de6:	3a 81       	ldd	r19, Y+2	; 0x02
    1de8:	4b 81       	ldd	r20, Y+3	; 0x03
    1dea:	5c 81       	ldd	r21, Y+4	; 0x04
    1dec:	0e 94 1e 03 	call	0x63c	; 0x63c <lmullkD>
    1df0:	e6 0e       	add	r14, r22
    1df2:	f7 1e       	adc	r15, r23
    1df4:	08 1f       	adc	r16, r24
    1df6:	19 1f       	adc	r17, r25
    1df8:	ae 0c       	add	r10, r14
    1dfa:	bf 1c       	adc	r11, r15
    1dfc:	c0 1e       	adc	r12, r16
    1dfe:	d1 1e       	adc	r13, r17
    1e00:	ed 81       	ldd	r30, Y+5	; 0x05
    1e02:	fe 81       	ldd	r31, Y+6	; 0x06
    1e04:	a0 aa       	std	Z+48, r10	; 0x30
    1e06:	b1 aa       	std	Z+49, r11	; 0x31
    1e08:	c2 aa       	std	Z+50, r12	; 0x32
    1e0a:	d3 aa       	std	Z+51, r13	; 0x33
		rate_pred = rate_est + StepTime_x_input;			// calculate angular velocity prediction
    1e0c:	84 ad       	ldd	r24, Z+60	; 0x3c
    1e0e:	95 ad       	ldd	r25, Z+61	; 0x3d
    1e10:	a6 ad       	ldd	r26, Z+62	; 0x3e
    1e12:	b7 ad       	ldd	r27, Z+63	; 0x3f
    1e14:	86 0d       	add	r24, r6
    1e16:	97 1d       	adc	r25, r7
    1e18:	a8 1d       	adc	r26, r8
    1e1a:	b9 1d       	adc	r27, r9
    1e1c:	84 ab       	std	Z+52, r24	; 0x34
    1e1e:	95 ab       	std	Z+53, r25	; 0x35
    1e20:	a6 ab       	std	Z+54, r26	; 0x36
    1e22:	b7 ab       	std	Z+55, r27	; 0x37
	}

	if (angle_pred > PILK) angle_pred -= TWOPILK;			// if angle is greater than pi, subtract 2pi to normalize
    1e24:	ed 81       	ldd	r30, Y+5	; 0x05
    1e26:	fe 81       	ldd	r31, Y+6	; 0x06
    1e28:	80 a9       	ldd	r24, Z+48	; 0x30
    1e2a:	91 a9       	ldd	r25, Z+49	; 0x31
    1e2c:	a2 a9       	ldd	r26, Z+50	; 0x32
    1e2e:	b3 a9       	ldd	r27, Z+51	; 0x33
    1e30:	8b 36       	cpi	r24, 0x6B	; 107
    1e32:	ff e3       	ldi	r31, 0x3F	; 63
    1e34:	9f 07       	cpc	r25, r31
    1e36:	f4 e2       	ldi	r31, 0x24	; 36
    1e38:	af 07       	cpc	r26, r31
    1e3a:	f3 e0       	ldi	r31, 0x03	; 3
    1e3c:	bf 07       	cpc	r27, r31
    1e3e:	2c f0       	brlt	.+10     	; 0x1e4a <_ZN10GyroKalman7PredictEll+0x180>
    1e40:	85 5d       	subi	r24, 0xD5	; 213
    1e42:	9e 47       	sbci	r25, 0x7E	; 126
    1e44:	a8 44       	sbci	r26, 0x48	; 72
    1e46:	b6 40       	sbci	r27, 0x06	; 6
    1e48:	0c c0       	rjmp	.+24     	; 0x1e62 <_ZN10GyroKalman7PredictEll+0x198>
	else if (angle_pred < -PILK) angle_pred += TWOPILK;		// else if angle is less than -pi, add 2pi to normalize
    1e4a:	86 39       	cpi	r24, 0x96	; 150
    1e4c:	f0 ec       	ldi	r31, 0xC0	; 192
    1e4e:	9f 07       	cpc	r25, r31
    1e50:	fb ed       	ldi	r31, 0xDB	; 219
    1e52:	af 07       	cpc	r26, r31
    1e54:	fc ef       	ldi	r31, 0xFC	; 252
    1e56:	bf 07       	cpc	r27, r31
    1e58:	54 f4       	brge	.+20     	; 0x1e6e <_ZN10GyroKalman7PredictEll+0x1a4>
    1e5a:	8b 52       	subi	r24, 0x2B	; 43
    1e5c:	91 48       	sbci	r25, 0x81	; 129
    1e5e:	a7 4b       	sbci	r26, 0xB7	; 183
    1e60:	b9 4f       	sbci	r27, 0xF9	; 249
    1e62:	ed 81       	ldd	r30, Y+5	; 0x05
    1e64:	fe 81       	ldd	r31, Y+6	; 0x06
    1e66:	80 ab       	std	Z+48, r24	; 0x30
    1e68:	91 ab       	std	Z+49, r25	; 0x31
    1e6a:	a2 ab       	std	Z+50, r26	; 0x32
    1e6c:	b3 ab       	std	Z+51, r27	; 0x33

	StepTime_x_lastcov = lmullk(est_cov_aposteriori[3],StepTime_slk);								// calculate step time times  last element of a-posteriori estimate covariance matrix
    1e6e:	ad 81       	ldd	r26, Y+5	; 0x05
    1e70:	be 81       	ldd	r27, Y+6	; 0x06
    1e72:	9c 96       	adiw	r26, 0x2c	; 44
    1e74:	6d 91       	ld	r22, X+
    1e76:	7d 91       	ld	r23, X+
    1e78:	8d 91       	ld	r24, X+
    1e7a:	9c 91       	ld	r25, X
    1e7c:	9f 97       	sbiw	r26, 0x2f	; 47
    1e7e:	29 81       	ldd	r18, Y+1	; 0x01
    1e80:	3a 81       	ldd	r19, Y+2	; 0x02
    1e82:	4b 81       	ldd	r20, Y+3	; 0x03
    1e84:	5c 81       	ldd	r21, Y+4	; 0x04
    1e86:	0e 94 1e 03 	call	0x63c	; 0x63c <lmullkD>
    1e8a:	5b 01       	movw	r10, r22
    1e8c:	6c 01       	movw	r12, r24
	est_cov_apriori[0] = 	est_cov_aposteriori[0] + lmullk(est_cov_aposteriori[1],StepTime_slk) +
							lmullk(est_cov_aposteriori[2],StepTime_slk) +
							lmullk(StepTime_slk,StepTime_x_lastcov) +
							angle_proc_noise_var;													// update first row, first column of a-priori estimate covariance matrix
    1e8e:	ed 81       	ldd	r30, Y+5	; 0x05
    1e90:	fe 81       	ldd	r31, Y+6	; 0x06
    1e92:	e0 a0       	ldd	r14, Z+32	; 0x20
    1e94:	f1 a0       	ldd	r15, Z+33	; 0x21
    1e96:	02 a1       	ldd	r16, Z+34	; 0x22
    1e98:	13 a1       	ldd	r17, Z+35	; 0x23
    1e9a:	64 a1       	ldd	r22, Z+36	; 0x24
    1e9c:	75 a1       	ldd	r23, Z+37	; 0x25
    1e9e:	86 a1       	ldd	r24, Z+38	; 0x26
    1ea0:	97 a1       	ldd	r25, Z+39	; 0x27
    1ea2:	29 81       	ldd	r18, Y+1	; 0x01
    1ea4:	3a 81       	ldd	r19, Y+2	; 0x02
    1ea6:	4b 81       	ldd	r20, Y+3	; 0x03
    1ea8:	5c 81       	ldd	r21, Y+4	; 0x04
    1eaa:	0e 94 1e 03 	call	0x63c	; 0x63c <lmullkD>
    1eae:	1b 01       	movw	r2, r22
    1eb0:	2c 01       	movw	r4, r24
    1eb2:	ad 81       	ldd	r26, Y+5	; 0x05
    1eb4:	be 81       	ldd	r27, Y+6	; 0x06
    1eb6:	98 96       	adiw	r26, 0x28	; 40
    1eb8:	6d 91       	ld	r22, X+
    1eba:	7d 91       	ld	r23, X+
    1ebc:	8d 91       	ld	r24, X+
    1ebe:	9c 91       	ld	r25, X
    1ec0:	9b 97       	sbiw	r26, 0x2b	; 43
    1ec2:	29 81       	ldd	r18, Y+1	; 0x01
    1ec4:	3a 81       	ldd	r19, Y+2	; 0x02
    1ec6:	4b 81       	ldd	r20, Y+3	; 0x03
    1ec8:	5c 81       	ldd	r21, Y+4	; 0x04
    1eca:	0e 94 1e 03 	call	0x63c	; 0x63c <lmullkD>
    1ece:	3b 01       	movw	r6, r22
    1ed0:	4c 01       	movw	r8, r24
    1ed2:	69 81       	ldd	r22, Y+1	; 0x01
    1ed4:	7a 81       	ldd	r23, Y+2	; 0x02
    1ed6:	8b 81       	ldd	r24, Y+3	; 0x03
    1ed8:	9c 81       	ldd	r25, Y+4	; 0x04
    1eda:	a6 01       	movw	r20, r12
    1edc:	95 01       	movw	r18, r10
    1ede:	0e 94 1e 03 	call	0x63c	; 0x63c <lmullkD>
    1ee2:	ed 81       	ldd	r30, Y+5	; 0x05
    1ee4:	fe 81       	ldd	r31, Y+6	; 0x06
    1ee6:	20 81       	ld	r18, Z
    1ee8:	31 81       	ldd	r19, Z+1	; 0x01
    1eea:	42 81       	ldd	r20, Z+2	; 0x02
    1eec:	53 81       	ldd	r21, Z+3	; 0x03
    1eee:	e2 0e       	add	r14, r18
    1ef0:	f3 1e       	adc	r15, r19
    1ef2:	04 1f       	adc	r16, r20
    1ef4:	15 1f       	adc	r17, r21
    1ef6:	e2 0c       	add	r14, r2
    1ef8:	f3 1c       	adc	r15, r3
    1efa:	04 1d       	adc	r16, r4
    1efc:	15 1d       	adc	r17, r5
    1efe:	e6 0c       	add	r14, r6
    1f00:	f7 1c       	adc	r15, r7
    1f02:	08 1d       	adc	r16, r8
    1f04:	19 1d       	adc	r17, r9
    1f06:	e6 0e       	add	r14, r22
    1f08:	f7 1e       	adc	r15, r23
    1f0a:	08 1f       	adc	r16, r24
    1f0c:	19 1f       	adc	r17, r25
    1f0e:	e0 8a       	std	Z+16, r14	; 0x10
    1f10:	f1 8a       	std	Z+17, r15	; 0x11
    1f12:	02 8b       	std	Z+18, r16	; 0x12
    1f14:	13 8b       	std	Z+19, r17	; 0x13
	est_cov_apriori[1] = 	est_cov_aposteriori[1] + StepTime_x_lastcov;							// update first row, second column of a-priori estimate covariance matrix
    1f16:	84 a1       	ldd	r24, Z+36	; 0x24
    1f18:	95 a1       	ldd	r25, Z+37	; 0x25
    1f1a:	a6 a1       	ldd	r26, Z+38	; 0x26
    1f1c:	b7 a1       	ldd	r27, Z+39	; 0x27
    1f1e:	8a 0d       	add	r24, r10
    1f20:	9b 1d       	adc	r25, r11
    1f22:	ac 1d       	adc	r26, r12
    1f24:	bd 1d       	adc	r27, r13
    1f26:	84 8b       	std	Z+20, r24	; 0x14
    1f28:	95 8b       	std	Z+21, r25	; 0x15
    1f2a:	a6 8b       	std	Z+22, r26	; 0x16
    1f2c:	b7 8b       	std	Z+23, r27	; 0x17
	est_cov_apriori[2] =	est_cov_aposteriori[2] + StepTime_x_lastcov;							// update second row, first column of a-priori estimate covariance matrix
    1f2e:	80 a5       	ldd	r24, Z+40	; 0x28
    1f30:	91 a5       	ldd	r25, Z+41	; 0x29
    1f32:	a2 a5       	ldd	r26, Z+42	; 0x2a
    1f34:	b3 a5       	ldd	r27, Z+43	; 0x2b
    1f36:	8a 0d       	add	r24, r10
    1f38:	9b 1d       	adc	r25, r11
    1f3a:	ac 1d       	adc	r26, r12
    1f3c:	bd 1d       	adc	r27, r13
    1f3e:	80 8f       	std	Z+24, r24	; 0x18
    1f40:	91 8f       	std	Z+25, r25	; 0x19
    1f42:	a2 8f       	std	Z+26, r26	; 0x1a
    1f44:	b3 8f       	std	Z+27, r27	; 0x1b
	est_cov_apriori[3] =	est_cov_aposteriori[3] + rate_proc_noise_var;							// update second row, second column of a-priori estimate covariance matrix
    1f46:	84 81       	ldd	r24, Z+4	; 0x04
    1f48:	95 81       	ldd	r25, Z+5	; 0x05
    1f4a:	a6 81       	ldd	r26, Z+6	; 0x06
    1f4c:	b7 81       	ldd	r27, Z+7	; 0x07
    1f4e:	24 a5       	ldd	r18, Z+44	; 0x2c
    1f50:	35 a5       	ldd	r19, Z+45	; 0x2d
    1f52:	46 a5       	ldd	r20, Z+46	; 0x2e
    1f54:	57 a5       	ldd	r21, Z+47	; 0x2f
    1f56:	82 0f       	add	r24, r18
    1f58:	93 1f       	adc	r25, r19
    1f5a:	a4 1f       	adc	r26, r20
    1f5c:	b5 1f       	adc	r27, r21
    1f5e:	84 8f       	std	Z+28, r24	; 0x1c
    1f60:	95 8f       	std	Z+29, r25	; 0x1d
    1f62:	a6 8f       	std	Z+30, r26	; 0x1e
    1f64:	b7 8f       	std	Z+31, r27	; 0x1f

	return;
} // end of Predict()
    1f66:	26 96       	adiw	r28, 0x06	; 6
    1f68:	0f b6       	in	r0, 0x3f	; 63
    1f6a:	f8 94       	cli
    1f6c:	de bf       	out	0x3e, r29	; 62
    1f6e:	0f be       	out	0x3f, r0	; 63
    1f70:	cd bf       	out	0x3d, r28	; 61
    1f72:	cf 91       	pop	r28
    1f74:	df 91       	pop	r29
    1f76:	1f 91       	pop	r17
    1f78:	0f 91       	pop	r16
    1f7a:	ff 90       	pop	r15
    1f7c:	ef 90       	pop	r14
    1f7e:	df 90       	pop	r13
    1f80:	cf 90       	pop	r12
    1f82:	bf 90       	pop	r11
    1f84:	af 90       	pop	r10
    1f86:	9f 90       	pop	r9
    1f88:	8f 90       	pop	r8
    1f8a:	7f 90       	pop	r7
    1f8c:	6f 90       	pop	r6
    1f8e:	5f 90       	pop	r5
    1f90:	4f 90       	pop	r4
    1f92:	3f 90       	pop	r3
    1f94:	2f 90       	pop	r2
    1f96:	08 95       	ret

00001f98 <_ZN10GyroKalman7PredictEl>:
 * Function:	Predict()
 * Scope:		private
 * Arguments:	long	StepTime_us		- step time taken between this prediction and last estimation step, in microseconds
 * Description:	performs prediction step based on past information, only knowing time step to take
 */
void GyroKalman::Predict(long StepTime_us){
    1f98:	0f 93       	push	r16
    1f9a:	1f 93       	push	r17
	Predict(StepTime_us,0);		// calls prediction step with zero known control input
    1f9c:	00 e0       	ldi	r16, 0x00	; 0
    1f9e:	10 e0       	ldi	r17, 0x00	; 0
    1fa0:	20 e0       	ldi	r18, 0x00	; 0
    1fa2:	30 e0       	ldi	r19, 0x00	; 0
    1fa4:	0e 94 65 0e 	call	0x1cca	; 0x1cca <_ZN10GyroKalman7PredictEll>
	return;
} // end of Predict()
    1fa8:	1f 91       	pop	r17
    1faa:	0f 91       	pop	r16
    1fac:	08 95       	ret

00001fae <_ZN10GyroKalman17Est_NoCtrl_NoMeasEl>:
 * Function:	Est_NoCtrl_NoMeas()
 * Scope:		Public
 * Arguments:	long	StepTime_us		- step time taken between this prediction and last estimation step, in microseconds
 * Description:	Performs estimation step with no known control inputs and no measured states
 */
void GyroKalman::Est_NoCtrl_NoMeas(long StepTime_us){
    1fae:	0f 93       	push	r16
    1fb0:	1f 93       	push	r17
    1fb2:	8c 01       	movw	r16, r24
	Predict(StepTime_us);						// predict state estimates and estimate covariances based on past data alone
    1fb4:	0e 94 cc 0f 	call	0x1f98	; 0x1f98 <_ZN10GyroKalman7PredictEl>
	Update_with_NoData();						// update state estimates and covariances with new measurements (none in this case)
    1fb8:	c8 01       	movw	r24, r16
    1fba:	0e 94 09 0e 	call	0x1c12	; 0x1c12 <_ZN10GyroKalman18Update_with_NoDataEv>
	return;
} // end of Est_NoCtrl_NoMeas()
    1fbe:	1f 91       	pop	r17
    1fc0:	0f 91       	pop	r16
    1fc2:	08 95       	ret

00001fc4 <_ZN10GyroKalman26Update_with_Angle_and_RateEll>:
 * Scope:		private
 * Arguments:	_lAccum	angle	- angle measured at this time step, in radians *2^24
 * 				_lAccum	rate	- rate measured at this time step, in radians/sec *2^24
 * Description:	performs update step with both measured angle and rate data
 */
void GyroKalman::Update_with_Angle_and_Rate(_lAccum angle, _lAccum rate){
    1fc4:	2f 92       	push	r2
    1fc6:	3f 92       	push	r3
    1fc8:	4f 92       	push	r4
    1fca:	5f 92       	push	r5
    1fcc:	6f 92       	push	r6
    1fce:	7f 92       	push	r7
    1fd0:	8f 92       	push	r8
    1fd2:	9f 92       	push	r9
    1fd4:	af 92       	push	r10
    1fd6:	bf 92       	push	r11
    1fd8:	cf 92       	push	r12
    1fda:	df 92       	push	r13
    1fdc:	ef 92       	push	r14
    1fde:	ff 92       	push	r15
    1fe0:	0f 93       	push	r16
    1fe2:	1f 93       	push	r17
    1fe4:	df 93       	push	r29
    1fe6:	cf 93       	push	r28
    1fe8:	cd b7       	in	r28, 0x3d	; 61
    1fea:	de b7       	in	r29, 0x3e	; 62
    1fec:	a2 97       	sbiw	r28, 0x22	; 34
    1fee:	0f b6       	in	r0, 0x3f	; 63
    1ff0:	f8 94       	cli
    1ff2:	de bf       	out	0x3e, r29	; 62
    1ff4:	0f be       	out	0x3f, r0	; 63
    1ff6:	cd bf       	out	0x3d, r28	; 61
    1ff8:	9a a3       	std	Y+34, r25	; 0x22
    1ffa:	89 a3       	std	Y+33, r24	; 0x21
    1ffc:	1a 01       	movw	r2, r20
    1ffe:	2b 01       	movw	r4, r22
	_lAccum inv_det_res_cov;			// inverse of the determinant of the residual covariance matrix
	_lAccum opt_gain[4];				// optimal Kalman gain matrix
	_lAccum tempvalue;					// temporary _lAccum value used in Kalman gain calculations

	// calculate residual and variances
	meas_residual[0] = angle - angle_pred;	// calculate first element of measurement residual
    2000:	fc 01       	movw	r30, r24
    2002:	80 a9       	ldd	r24, Z+48	; 0x30
    2004:	91 a9       	ldd	r25, Z+49	; 0x31
    2006:	a2 a9       	ldd	r26, Z+50	; 0x32
    2008:	b3 a9       	ldd	r27, Z+51	; 0x33
    200a:	28 1a       	sub	r2, r24
    200c:	39 0a       	sbc	r3, r25
    200e:	4a 0a       	sbc	r4, r26
    2010:	5b 0a       	sbc	r5, r27
	meas_residual[1] = rate - rate_pred;	// calculate second element of measurement residual
    2012:	84 a9       	ldd	r24, Z+52	; 0x34
    2014:	95 a9       	ldd	r25, Z+53	; 0x35
    2016:	a6 a9       	ldd	r26, Z+54	; 0x36
    2018:	b7 a9       	ldd	r27, Z+55	; 0x37
    201a:	a9 01       	movw	r20, r18
    201c:	98 01       	movw	r18, r16
    201e:	28 1b       	sub	r18, r24
    2020:	39 0b       	sbc	r19, r25
    2022:	4a 0b       	sbc	r20, r26
    2024:	5b 0b       	sbc	r21, r27
    2026:	2d 8f       	std	Y+29, r18	; 0x1d
    2028:	3e 8f       	std	Y+30, r19	; 0x1e
    202a:	4f 8f       	std	Y+31, r20	; 0x1f
    202c:	58 a3       	std	Y+32, r21	; 0x20
	 * as an intermediate step, since the matrix inverse is used in Kalman gain calculation
	 */

	// calculate determinate of residual covariance matrix
	det_res_cov = 	lmullk((est_cov_apriori[0]+angle_obs_noise_var),(est_cov_apriori[3]+rate_obs_noise_var)) -
					lmullk(est_cov_apriori[1],est_cov_apriori[2]);
    202e:	60 85       	ldd	r22, Z+8	; 0x08
    2030:	71 85       	ldd	r23, Z+9	; 0x09
    2032:	82 85       	ldd	r24, Z+10	; 0x0a
    2034:	93 85       	ldd	r25, Z+11	; 0x0b
    2036:	20 89       	ldd	r18, Z+16	; 0x10
    2038:	31 89       	ldd	r19, Z+17	; 0x11
    203a:	42 89       	ldd	r20, Z+18	; 0x12
    203c:	53 89       	ldd	r21, Z+19	; 0x13
    203e:	62 0f       	add	r22, r18
    2040:	73 1f       	adc	r23, r19
    2042:	84 1f       	adc	r24, r20
    2044:	95 1f       	adc	r25, r21
    2046:	24 85       	ldd	r18, Z+12	; 0x0c
    2048:	35 85       	ldd	r19, Z+13	; 0x0d
    204a:	46 85       	ldd	r20, Z+14	; 0x0e
    204c:	57 85       	ldd	r21, Z+15	; 0x0f
    204e:	e4 8c       	ldd	r14, Z+28	; 0x1c
    2050:	f5 8c       	ldd	r15, Z+29	; 0x1d
    2052:	06 8d       	ldd	r16, Z+30	; 0x1e
    2054:	17 8d       	ldd	r17, Z+31	; 0x1f
    2056:	2e 0d       	add	r18, r14
    2058:	3f 1d       	adc	r19, r15
    205a:	40 1f       	adc	r20, r16
    205c:	51 1f       	adc	r21, r17
    205e:	0e 94 1e 03 	call	0x63c	; 0x63c <lmullkD>
    2062:	7b 01       	movw	r14, r22
    2064:	8c 01       	movw	r16, r24
    2066:	a9 a1       	ldd	r26, Y+33	; 0x21
    2068:	ba a1       	ldd	r27, Y+34	; 0x22
    206a:	54 96       	adiw	r26, 0x14	; 20
    206c:	6d 91       	ld	r22, X+
    206e:	7d 91       	ld	r23, X+
    2070:	8d 91       	ld	r24, X+
    2072:	9c 91       	ld	r25, X
    2074:	57 97       	sbiw	r26, 0x17	; 23
    2076:	58 96       	adiw	r26, 0x18	; 24
    2078:	2d 91       	ld	r18, X+
    207a:	3d 91       	ld	r19, X+
    207c:	4d 91       	ld	r20, X+
    207e:	5c 91       	ld	r21, X
    2080:	5b 97       	sbiw	r26, 0x1b	; 27
    2082:	0e 94 1e 03 	call	0x63c	; 0x63c <lmullkD>
	inv_det_res_cov = ldivlk(ONE_LK,det_res_cov);				// calculate inverse of the determinant of the residual covariance matrix
    2086:	e6 1a       	sub	r14, r22
    2088:	f7 0a       	sbc	r15, r23
    208a:	08 0b       	sbc	r16, r24
    208c:	19 0b       	sbc	r17, r25
    208e:	60 e0       	ldi	r22, 0x00	; 0
    2090:	70 e0       	ldi	r23, 0x00	; 0
    2092:	80 e0       	ldi	r24, 0x00	; 0
    2094:	91 e0       	ldi	r25, 0x01	; 1
    2096:	a8 01       	movw	r20, r16
    2098:	97 01       	movw	r18, r14
    209a:	0e 94 e3 03 	call	0x7c6	; 0x7c6 <ldivlkD>
    209e:	3b 01       	movw	r6, r22
    20a0:	4c 01       	movw	r8, r24

	// calculate the optimal Kalman gain
	tempvalue = 	lmullk(est_cov_apriori[0],est_cov_apriori[3]) -
					lmullk(est_cov_apriori[1],est_cov_apriori[2]) +
					lmullk(est_cov_apriori[0],rate_obs_noise_var);	// calculate first element of optimal gain, with exception of division by determinant
    20a2:	e9 a1       	ldd	r30, Y+33	; 0x21
    20a4:	fa a1       	ldd	r31, Y+34	; 0x22
    20a6:	60 89       	ldd	r22, Z+16	; 0x10
    20a8:	71 89       	ldd	r23, Z+17	; 0x11
    20aa:	82 89       	ldd	r24, Z+18	; 0x12
    20ac:	93 89       	ldd	r25, Z+19	; 0x13
    20ae:	24 8d       	ldd	r18, Z+28	; 0x1c
    20b0:	35 8d       	ldd	r19, Z+29	; 0x1d
    20b2:	46 8d       	ldd	r20, Z+30	; 0x1e
    20b4:	57 8d       	ldd	r21, Z+31	; 0x1f
    20b6:	0e 94 1e 03 	call	0x63c	; 0x63c <lmullkD>
    20ba:	5b 01       	movw	r10, r22
    20bc:	6c 01       	movw	r12, r24
    20be:	a9 a1       	ldd	r26, Y+33	; 0x21
    20c0:	ba a1       	ldd	r27, Y+34	; 0x22
    20c2:	54 96       	adiw	r26, 0x14	; 20
    20c4:	6d 91       	ld	r22, X+
    20c6:	7d 91       	ld	r23, X+
    20c8:	8d 91       	ld	r24, X+
    20ca:	9c 91       	ld	r25, X
    20cc:	57 97       	sbiw	r26, 0x17	; 23
    20ce:	58 96       	adiw	r26, 0x18	; 24
    20d0:	2d 91       	ld	r18, X+
    20d2:	3d 91       	ld	r19, X+
    20d4:	4d 91       	ld	r20, X+
    20d6:	5c 91       	ld	r21, X
    20d8:	5b 97       	sbiw	r26, 0x1b	; 27
    20da:	0e 94 1e 03 	call	0x63c	; 0x63c <lmullkD>
    20de:	7b 01       	movw	r14, r22
    20e0:	8c 01       	movw	r16, r24
    20e2:	e9 a1       	ldd	r30, Y+33	; 0x21
    20e4:	fa a1       	ldd	r31, Y+34	; 0x22
    20e6:	60 89       	ldd	r22, Z+16	; 0x10
    20e8:	71 89       	ldd	r23, Z+17	; 0x11
    20ea:	82 89       	ldd	r24, Z+18	; 0x12
    20ec:	93 89       	ldd	r25, Z+19	; 0x13
    20ee:	24 85       	ldd	r18, Z+12	; 0x0c
    20f0:	35 85       	ldd	r19, Z+13	; 0x0d
    20f2:	46 85       	ldd	r20, Z+14	; 0x0e
    20f4:	57 85       	ldd	r21, Z+15	; 0x0f
    20f6:	0e 94 1e 03 	call	0x63c	; 0x63c <lmullkD>
    20fa:	9b 01       	movw	r18, r22
    20fc:	ac 01       	movw	r20, r24
	opt_gain[0] = lmullk(inv_det_res_cov,tempvalue);				// finish calculation of first element of optimal Kalman gain
    20fe:	2a 0d       	add	r18, r10
    2100:	3b 1d       	adc	r19, r11
    2102:	4c 1d       	adc	r20, r12
    2104:	5d 1d       	adc	r21, r13
    2106:	2e 19       	sub	r18, r14
    2108:	3f 09       	sbc	r19, r15
    210a:	40 0b       	sbc	r20, r16
    210c:	51 0b       	sbc	r21, r17
    210e:	c4 01       	movw	r24, r8
    2110:	b3 01       	movw	r22, r6
    2112:	0e 94 1e 03 	call	0x63c	; 0x63c <lmullkD>
    2116:	69 8f       	std	Y+25, r22	; 0x19
    2118:	7a 8f       	std	Y+26, r23	; 0x1a
    211a:	8b 8f       	std	Y+27, r24	; 0x1b
    211c:	9c 8f       	std	Y+28, r25	; 0x1c
    211e:	69 83       	std	Y+1, r22	; 0x01
    2120:	7a 83       	std	Y+2, r23	; 0x02
    2122:	8b 83       	std	Y+3, r24	; 0x03
    2124:	9c 83       	std	Y+4, r25	; 0x04
	tempvalue =		lmullk(est_cov_apriori[1],angle_obs_noise_var);	// calculate second element of optimal gain, with exception of division by determinant
    2126:	a9 a1       	ldd	r26, Y+33	; 0x21
    2128:	ba a1       	ldd	r27, Y+34	; 0x22
    212a:	54 96       	adiw	r26, 0x14	; 20
    212c:	6d 91       	ld	r22, X+
    212e:	7d 91       	ld	r23, X+
    2130:	8d 91       	ld	r24, X+
    2132:	9c 91       	ld	r25, X
    2134:	57 97       	sbiw	r26, 0x17	; 23
    2136:	18 96       	adiw	r26, 0x08	; 8
    2138:	2d 91       	ld	r18, X+
    213a:	3d 91       	ld	r19, X+
    213c:	4d 91       	ld	r20, X+
    213e:	5c 91       	ld	r21, X
    2140:	1b 97       	sbiw	r26, 0x0b	; 11
    2142:	0e 94 1e 03 	call	0x63c	; 0x63c <lmullkD>
    2146:	9b 01       	movw	r18, r22
    2148:	ac 01       	movw	r20, r24
	opt_gain[1] = lmullk(inv_det_res_cov,tempvalue);				// finish calculation of second element of optimal Kalman gain
    214a:	c4 01       	movw	r24, r8
    214c:	b3 01       	movw	r22, r6
    214e:	0e 94 1e 03 	call	0x63c	; 0x63c <lmullkD>
    2152:	6d 8b       	std	Y+21, r22	; 0x15
    2154:	7e 8b       	std	Y+22, r23	; 0x16
    2156:	8f 8b       	std	Y+23, r24	; 0x17
    2158:	98 8f       	std	Y+24, r25	; 0x18
    215a:	6d 83       	std	Y+5, r22	; 0x05
    215c:	7e 83       	std	Y+6, r23	; 0x06
    215e:	8f 83       	std	Y+7, r24	; 0x07
    2160:	98 87       	std	Y+8, r25	; 0x08
	tempvalue =		lmullk(est_cov_apriori[2],rate_obs_noise_var);	// calculate third element of optimal gain, with exception of division by determinant
    2162:	e9 a1       	ldd	r30, Y+33	; 0x21
    2164:	fa a1       	ldd	r31, Y+34	; 0x22
    2166:	60 8d       	ldd	r22, Z+24	; 0x18
    2168:	71 8d       	ldd	r23, Z+25	; 0x19
    216a:	82 8d       	ldd	r24, Z+26	; 0x1a
    216c:	93 8d       	ldd	r25, Z+27	; 0x1b
    216e:	24 85       	ldd	r18, Z+12	; 0x0c
    2170:	35 85       	ldd	r19, Z+13	; 0x0d
    2172:	46 85       	ldd	r20, Z+14	; 0x0e
    2174:	57 85       	ldd	r21, Z+15	; 0x0f
    2176:	0e 94 1e 03 	call	0x63c	; 0x63c <lmullkD>
    217a:	9b 01       	movw	r18, r22
    217c:	ac 01       	movw	r20, r24
	opt_gain[2] = lmullk(inv_det_res_cov,tempvalue);				// finish calculation of third element of optimal Kalman gain
    217e:	c4 01       	movw	r24, r8
    2180:	b3 01       	movw	r22, r6
    2182:	0e 94 1e 03 	call	0x63c	; 0x63c <lmullkD>
    2186:	69 8b       	std	Y+17, r22	; 0x11
    2188:	7a 8b       	std	Y+18, r23	; 0x12
    218a:	8b 8b       	std	Y+19, r24	; 0x13
    218c:	9c 8b       	std	Y+20, r25	; 0x14
    218e:	69 87       	std	Y+9, r22	; 0x09
    2190:	7a 87       	std	Y+10, r23	; 0x0a
    2192:	8b 87       	std	Y+11, r24	; 0x0b
    2194:	9c 87       	std	Y+12, r25	; 0x0c
	tempvalue = 	lmullk(est_cov_apriori[0],est_cov_apriori[3]) -
					lmullk(est_cov_apriori[1],est_cov_apriori[2]) +
					lmullk(est_cov_apriori[3],angle_obs_noise_var);	// calculate fourth element of optimal gain, with exception of division by determinant
    2196:	a9 a1       	ldd	r26, Y+33	; 0x21
    2198:	ba a1       	ldd	r27, Y+34	; 0x22
    219a:	50 96       	adiw	r26, 0x10	; 16
    219c:	6d 91       	ld	r22, X+
    219e:	7d 91       	ld	r23, X+
    21a0:	8d 91       	ld	r24, X+
    21a2:	9c 91       	ld	r25, X
    21a4:	53 97       	sbiw	r26, 0x13	; 19
    21a6:	5c 96       	adiw	r26, 0x1c	; 28
    21a8:	2d 91       	ld	r18, X+
    21aa:	3d 91       	ld	r19, X+
    21ac:	4d 91       	ld	r20, X+
    21ae:	5c 91       	ld	r21, X
    21b0:	5f 97       	sbiw	r26, 0x1f	; 31
    21b2:	0e 94 1e 03 	call	0x63c	; 0x63c <lmullkD>
    21b6:	5b 01       	movw	r10, r22
    21b8:	6c 01       	movw	r12, r24
    21ba:	e9 a1       	ldd	r30, Y+33	; 0x21
    21bc:	fa a1       	ldd	r31, Y+34	; 0x22
    21be:	64 89       	ldd	r22, Z+20	; 0x14
    21c0:	75 89       	ldd	r23, Z+21	; 0x15
    21c2:	86 89       	ldd	r24, Z+22	; 0x16
    21c4:	97 89       	ldd	r25, Z+23	; 0x17
    21c6:	20 8d       	ldd	r18, Z+24	; 0x18
    21c8:	31 8d       	ldd	r19, Z+25	; 0x19
    21ca:	42 8d       	ldd	r20, Z+26	; 0x1a
    21cc:	53 8d       	ldd	r21, Z+27	; 0x1b
    21ce:	0e 94 1e 03 	call	0x63c	; 0x63c <lmullkD>
    21d2:	7b 01       	movw	r14, r22
    21d4:	8c 01       	movw	r16, r24
    21d6:	a9 a1       	ldd	r26, Y+33	; 0x21
    21d8:	ba a1       	ldd	r27, Y+34	; 0x22
    21da:	5c 96       	adiw	r26, 0x1c	; 28
    21dc:	6d 91       	ld	r22, X+
    21de:	7d 91       	ld	r23, X+
    21e0:	8d 91       	ld	r24, X+
    21e2:	9c 91       	ld	r25, X
    21e4:	5f 97       	sbiw	r26, 0x1f	; 31
    21e6:	18 96       	adiw	r26, 0x08	; 8
    21e8:	2d 91       	ld	r18, X+
    21ea:	3d 91       	ld	r19, X+
    21ec:	4d 91       	ld	r20, X+
    21ee:	5c 91       	ld	r21, X
    21f0:	1b 97       	sbiw	r26, 0x0b	; 11
    21f2:	0e 94 1e 03 	call	0x63c	; 0x63c <lmullkD>
    21f6:	9b 01       	movw	r18, r22
    21f8:	ac 01       	movw	r20, r24
	opt_gain[3] = lmullk(inv_det_res_cov,tempvalue);				// finish calculation of fourth element of optimal Kalman gain
    21fa:	2a 0d       	add	r18, r10
    21fc:	3b 1d       	adc	r19, r11
    21fe:	4c 1d       	adc	r20, r12
    2200:	5d 1d       	adc	r21, r13
    2202:	2e 19       	sub	r18, r14
    2204:	3f 09       	sbc	r19, r15
    2206:	40 0b       	sbc	r20, r16
    2208:	51 0b       	sbc	r21, r17
    220a:	c4 01       	movw	r24, r8
    220c:	b3 01       	movw	r22, r6
    220e:	0e 94 1e 03 	call	0x63c	; 0x63c <lmullkD>
    2212:	3b 01       	movw	r6, r22
    2214:	4c 01       	movw	r8, r24
    2216:	6d 87       	std	Y+13, r22	; 0x0d
    2218:	7e 87       	std	Y+14, r23	; 0x0e
    221a:	8f 87       	std	Y+15, r24	; 0x0f
    221c:	98 8b       	std	Y+16, r25	; 0x10

	// Update state estimates
	angle_est = angle_pred + 	lmullk(opt_gain[0],meas_residual[0]) +
								lmullk(opt_gain[1],meas_residual[1]);	// update (a posteriori) angle state estimate
    221e:	e9 a1       	ldd	r30, Y+33	; 0x21
    2220:	fa a1       	ldd	r31, Y+34	; 0x22
    2222:	a0 a8       	ldd	r10, Z+48	; 0x30
    2224:	b1 a8       	ldd	r11, Z+49	; 0x31
    2226:	c2 a8       	ldd	r12, Z+50	; 0x32
    2228:	d3 a8       	ldd	r13, Z+51	; 0x33
    222a:	69 8d       	ldd	r22, Y+25	; 0x19
    222c:	7a 8d       	ldd	r23, Y+26	; 0x1a
    222e:	8b 8d       	ldd	r24, Y+27	; 0x1b
    2230:	9c 8d       	ldd	r25, Y+28	; 0x1c
    2232:	a2 01       	movw	r20, r4
    2234:	91 01       	movw	r18, r2
    2236:	0e 94 1e 03 	call	0x63c	; 0x63c <lmullkD>
    223a:	7b 01       	movw	r14, r22
    223c:	8c 01       	movw	r16, r24
    223e:	6d 89       	ldd	r22, Y+21	; 0x15
    2240:	7e 89       	ldd	r23, Y+22	; 0x16
    2242:	8f 89       	ldd	r24, Y+23	; 0x17
    2244:	98 8d       	ldd	r25, Y+24	; 0x18
    2246:	2d 8d       	ldd	r18, Y+29	; 0x1d
    2248:	3e 8d       	ldd	r19, Y+30	; 0x1e
    224a:	4f 8d       	ldd	r20, Y+31	; 0x1f
    224c:	58 a1       	ldd	r21, Y+32	; 0x20
    224e:	0e 94 1e 03 	call	0x63c	; 0x63c <lmullkD>
    2252:	e6 0e       	add	r14, r22
    2254:	f7 1e       	adc	r15, r23
    2256:	08 1f       	adc	r16, r24
    2258:	19 1f       	adc	r17, r25
    225a:	ae 0c       	add	r10, r14
    225c:	bf 1c       	adc	r11, r15
    225e:	c0 1e       	adc	r12, r16
    2260:	d1 1e       	adc	r13, r17
    2262:	a9 a1       	ldd	r26, Y+33	; 0x21
    2264:	ba a1       	ldd	r27, Y+34	; 0x22
    2266:	d8 96       	adiw	r26, 0x38	; 56
    2268:	ad 92       	st	X+, r10
    226a:	bd 92       	st	X+, r11
    226c:	cd 92       	st	X+, r12
    226e:	dc 92       	st	X, r13
    2270:	db 97       	sbiw	r26, 0x3b	; 59
	rate_est = rate_pred + 		lmullk(opt_gain[3],meas_residual[0]) +
								lmullk(opt_gain[4],meas_residual[1]);	// update (a posteriori) rate state estimate
    2272:	d4 96       	adiw	r26, 0x34	; 52
    2274:	ad 90       	ld	r10, X+
    2276:	bd 90       	ld	r11, X+
    2278:	cd 90       	ld	r12, X+
    227a:	dc 90       	ld	r13, X
    227c:	d7 97       	sbiw	r26, 0x37	; 55
    227e:	c4 01       	movw	r24, r8
    2280:	b3 01       	movw	r22, r6
    2282:	a2 01       	movw	r20, r4
    2284:	91 01       	movw	r18, r2
    2286:	0e 94 1e 03 	call	0x63c	; 0x63c <lmullkD>
    228a:	7b 01       	movw	r14, r22
    228c:	8c 01       	movw	r16, r24
    228e:	69 89       	ldd	r22, Y+17	; 0x11
    2290:	7a 89       	ldd	r23, Y+18	; 0x12
    2292:	8b 89       	ldd	r24, Y+19	; 0x13
    2294:	9c 89       	ldd	r25, Y+20	; 0x14
    2296:	2d 8d       	ldd	r18, Y+29	; 0x1d
    2298:	3e 8d       	ldd	r19, Y+30	; 0x1e
    229a:	4f 8d       	ldd	r20, Y+31	; 0x1f
    229c:	58 a1       	ldd	r21, Y+32	; 0x20
    229e:	0e 94 1e 03 	call	0x63c	; 0x63c <lmullkD>
    22a2:	e6 0e       	add	r14, r22
    22a4:	f7 1e       	adc	r15, r23
    22a6:	08 1f       	adc	r16, r24
    22a8:	19 1f       	adc	r17, r25
    22aa:	ae 0c       	add	r10, r14
    22ac:	bf 1c       	adc	r11, r15
    22ae:	c0 1e       	adc	r12, r16
    22b0:	d1 1e       	adc	r13, r17
    22b2:	e9 a1       	ldd	r30, Y+33	; 0x21
    22b4:	fa a1       	ldd	r31, Y+34	; 0x22
    22b6:	a4 ae       	std	Z+60, r10	; 0x3c
    22b8:	b5 ae       	std	Z+61, r11	; 0x3d
    22ba:	c6 ae       	std	Z+62, r12	; 0x3e
    22bc:	d7 ae       	std	Z+63, r13	; 0x3f

	if (angle_est > PILK)	angle_est -= TWOPILK;			// if angle is greater than pi, subtract 2pi to normalize
    22be:	80 ad       	ldd	r24, Z+56	; 0x38
    22c0:	91 ad       	ldd	r25, Z+57	; 0x39
    22c2:	a2 ad       	ldd	r26, Z+58	; 0x3a
    22c4:	b3 ad       	ldd	r27, Z+59	; 0x3b
    22c6:	8b 36       	cpi	r24, 0x6B	; 107
    22c8:	ff e3       	ldi	r31, 0x3F	; 63
    22ca:	9f 07       	cpc	r25, r31
    22cc:	f4 e2       	ldi	r31, 0x24	; 36
    22ce:	af 07       	cpc	r26, r31
    22d0:	f3 e0       	ldi	r31, 0x03	; 3
    22d2:	bf 07       	cpc	r27, r31
    22d4:	2c f0       	brlt	.+10     	; 0x22e0 <_ZN10GyroKalman26Update_with_Angle_and_RateEll+0x31c>
    22d6:	85 5d       	subi	r24, 0xD5	; 213
    22d8:	9e 47       	sbci	r25, 0x7E	; 126
    22da:	a8 44       	sbci	r26, 0x48	; 72
    22dc:	b6 40       	sbci	r27, 0x06	; 6
    22de:	0c c0       	rjmp	.+24     	; 0x22f8 <_ZN10GyroKalman26Update_with_Angle_and_RateEll+0x334>
	else if (angle_est < -PILK) angle_est += TWOPILK;		// else if angle is less than -pi, add 2pi to normalize
    22e0:	86 39       	cpi	r24, 0x96	; 150
    22e2:	f0 ec       	ldi	r31, 0xC0	; 192
    22e4:	9f 07       	cpc	r25, r31
    22e6:	fb ed       	ldi	r31, 0xDB	; 219
    22e8:	af 07       	cpc	r26, r31
    22ea:	fc ef       	ldi	r31, 0xFC	; 252
    22ec:	bf 07       	cpc	r27, r31
    22ee:	54 f4       	brge	.+20     	; 0x2304 <_ZN10GyroKalman26Update_with_Angle_and_RateEll+0x340>
    22f0:	8b 52       	subi	r24, 0x2B	; 43
    22f2:	91 48       	sbci	r25, 0x81	; 129
    22f4:	a7 4b       	sbci	r26, 0xB7	; 183
    22f6:	b9 4f       	sbci	r27, 0xF9	; 249
    22f8:	e9 a1       	ldd	r30, Y+33	; 0x21
    22fa:	fa a1       	ldd	r31, Y+34	; 0x22
    22fc:	80 af       	std	Z+56, r24	; 0x38
    22fe:	91 af       	std	Z+57, r25	; 0x39
    2300:	a2 af       	std	Z+58, r26	; 0x3a
    2302:	b3 af       	std	Z+59, r27	; 0x3b

	// Update Estimate Covariance Matrix
	est_cov_aposteriori[0] = 	est_cov_apriori[0] -
								lmullk(est_cov_apriori[0],opt_gain[0]) -
								lmullk(est_cov_apriori[2],opt_gain[1]);	// update first row, first column of estimate covariance matrix
    2304:	a9 a1       	ldd	r26, Y+33	; 0x21
    2306:	ba a1       	ldd	r27, Y+34	; 0x22
    2308:	50 96       	adiw	r26, 0x10	; 16
    230a:	ed 90       	ld	r14, X+
    230c:	fd 90       	ld	r15, X+
    230e:	0d 91       	ld	r16, X+
    2310:	1c 91       	ld	r17, X
    2312:	53 97       	sbiw	r26, 0x13	; 19
    2314:	c8 01       	movw	r24, r16
    2316:	b7 01       	movw	r22, r14
    2318:	29 8d       	ldd	r18, Y+25	; 0x19
    231a:	3a 8d       	ldd	r19, Y+26	; 0x1a
    231c:	4b 8d       	ldd	r20, Y+27	; 0x1b
    231e:	5c 8d       	ldd	r21, Y+28	; 0x1c
    2320:	0e 94 1e 03 	call	0x63c	; 0x63c <lmullkD>
    2324:	5b 01       	movw	r10, r22
    2326:	6c 01       	movw	r12, r24
    2328:	e9 a1       	ldd	r30, Y+33	; 0x21
    232a:	fa a1       	ldd	r31, Y+34	; 0x22
    232c:	60 8d       	ldd	r22, Z+24	; 0x18
    232e:	71 8d       	ldd	r23, Z+25	; 0x19
    2330:	82 8d       	ldd	r24, Z+26	; 0x1a
    2332:	93 8d       	ldd	r25, Z+27	; 0x1b
    2334:	2d 89       	ldd	r18, Y+21	; 0x15
    2336:	3e 89       	ldd	r19, Y+22	; 0x16
    2338:	4f 89       	ldd	r20, Y+23	; 0x17
    233a:	58 8d       	ldd	r21, Y+24	; 0x18
    233c:	0e 94 1e 03 	call	0x63c	; 0x63c <lmullkD>
    2340:	ea 18       	sub	r14, r10
    2342:	fb 08       	sbc	r15, r11
    2344:	0c 09       	sbc	r16, r12
    2346:	1d 09       	sbc	r17, r13
    2348:	e6 1a       	sub	r14, r22
    234a:	f7 0a       	sbc	r15, r23
    234c:	08 0b       	sbc	r16, r24
    234e:	19 0b       	sbc	r17, r25
    2350:	a9 a1       	ldd	r26, Y+33	; 0x21
    2352:	ba a1       	ldd	r27, Y+34	; 0x22
    2354:	90 96       	adiw	r26, 0x20	; 32
    2356:	ed 92       	st	X+, r14
    2358:	fd 92       	st	X+, r15
    235a:	0d 93       	st	X+, r16
    235c:	1c 93       	st	X, r17
    235e:	93 97       	sbiw	r26, 0x23	; 35
	est_cov_aposteriori[1] = 	est_cov_apriori[1] -
								lmullk(est_cov_apriori[1],opt_gain[0]) -
								lmullk(est_cov_apriori[3],opt_gain[1]);	// update first row, second column of estimate covariance matrix
    2360:	54 96       	adiw	r26, 0x14	; 20
    2362:	ed 90       	ld	r14, X+
    2364:	fd 90       	ld	r15, X+
    2366:	0d 91       	ld	r16, X+
    2368:	1c 91       	ld	r17, X
    236a:	57 97       	sbiw	r26, 0x17	; 23
    236c:	c8 01       	movw	r24, r16
    236e:	b7 01       	movw	r22, r14
    2370:	29 8d       	ldd	r18, Y+25	; 0x19
    2372:	3a 8d       	ldd	r19, Y+26	; 0x1a
    2374:	4b 8d       	ldd	r20, Y+27	; 0x1b
    2376:	5c 8d       	ldd	r21, Y+28	; 0x1c
    2378:	0e 94 1e 03 	call	0x63c	; 0x63c <lmullkD>
    237c:	5b 01       	movw	r10, r22
    237e:	6c 01       	movw	r12, r24
    2380:	e9 a1       	ldd	r30, Y+33	; 0x21
    2382:	fa a1       	ldd	r31, Y+34	; 0x22
    2384:	64 8d       	ldd	r22, Z+28	; 0x1c
    2386:	75 8d       	ldd	r23, Z+29	; 0x1d
    2388:	86 8d       	ldd	r24, Z+30	; 0x1e
    238a:	97 8d       	ldd	r25, Z+31	; 0x1f
    238c:	2d 89       	ldd	r18, Y+21	; 0x15
    238e:	3e 89       	ldd	r19, Y+22	; 0x16
    2390:	4f 89       	ldd	r20, Y+23	; 0x17
    2392:	58 8d       	ldd	r21, Y+24	; 0x18
    2394:	0e 94 1e 03 	call	0x63c	; 0x63c <lmullkD>
    2398:	ea 18       	sub	r14, r10
    239a:	fb 08       	sbc	r15, r11
    239c:	0c 09       	sbc	r16, r12
    239e:	1d 09       	sbc	r17, r13
    23a0:	e6 1a       	sub	r14, r22
    23a2:	f7 0a       	sbc	r15, r23
    23a4:	08 0b       	sbc	r16, r24
    23a6:	19 0b       	sbc	r17, r25
    23a8:	a9 a1       	ldd	r26, Y+33	; 0x21
    23aa:	ba a1       	ldd	r27, Y+34	; 0x22
    23ac:	94 96       	adiw	r26, 0x24	; 36
    23ae:	ed 92       	st	X+, r14
    23b0:	fd 92       	st	X+, r15
    23b2:	0d 93       	st	X+, r16
    23b4:	1c 93       	st	X, r17
    23b6:	97 97       	sbiw	r26, 0x27	; 39
	est_cov_aposteriori[2] = 	est_cov_apriori[2] -
								lmullk(est_cov_apriori[0],opt_gain[2]) -
								lmullk(est_cov_apriori[2],opt_gain[3]);	// update second row, first column of estimate covariance matrix
    23b8:	58 96       	adiw	r26, 0x18	; 24
    23ba:	ed 90       	ld	r14, X+
    23bc:	fd 90       	ld	r15, X+
    23be:	0d 91       	ld	r16, X+
    23c0:	1c 91       	ld	r17, X
    23c2:	5b 97       	sbiw	r26, 0x1b	; 27
    23c4:	50 96       	adiw	r26, 0x10	; 16
    23c6:	6d 91       	ld	r22, X+
    23c8:	7d 91       	ld	r23, X+
    23ca:	8d 91       	ld	r24, X+
    23cc:	9c 91       	ld	r25, X
    23ce:	53 97       	sbiw	r26, 0x13	; 19
    23d0:	29 89       	ldd	r18, Y+17	; 0x11
    23d2:	3a 89       	ldd	r19, Y+18	; 0x12
    23d4:	4b 89       	ldd	r20, Y+19	; 0x13
    23d6:	5c 89       	ldd	r21, Y+20	; 0x14
    23d8:	0e 94 1e 03 	call	0x63c	; 0x63c <lmullkD>
    23dc:	5b 01       	movw	r10, r22
    23de:	6c 01       	movw	r12, r24
    23e0:	e9 a1       	ldd	r30, Y+33	; 0x21
    23e2:	fa a1       	ldd	r31, Y+34	; 0x22
    23e4:	60 8d       	ldd	r22, Z+24	; 0x18
    23e6:	71 8d       	ldd	r23, Z+25	; 0x19
    23e8:	82 8d       	ldd	r24, Z+26	; 0x1a
    23ea:	93 8d       	ldd	r25, Z+27	; 0x1b
    23ec:	a4 01       	movw	r20, r8
    23ee:	93 01       	movw	r18, r6
    23f0:	0e 94 1e 03 	call	0x63c	; 0x63c <lmullkD>
    23f4:	ea 18       	sub	r14, r10
    23f6:	fb 08       	sbc	r15, r11
    23f8:	0c 09       	sbc	r16, r12
    23fa:	1d 09       	sbc	r17, r13
    23fc:	e6 1a       	sub	r14, r22
    23fe:	f7 0a       	sbc	r15, r23
    2400:	08 0b       	sbc	r16, r24
    2402:	19 0b       	sbc	r17, r25
    2404:	a9 a1       	ldd	r26, Y+33	; 0x21
    2406:	ba a1       	ldd	r27, Y+34	; 0x22
    2408:	98 96       	adiw	r26, 0x28	; 40
    240a:	ed 92       	st	X+, r14
    240c:	fd 92       	st	X+, r15
    240e:	0d 93       	st	X+, r16
    2410:	1c 93       	st	X, r17
    2412:	9b 97       	sbiw	r26, 0x2b	; 43
	est_cov_aposteriori[3] = 	est_cov_apriori[3] -
								lmullk(est_cov_apriori[1],opt_gain[2]) -
								lmullk(est_cov_apriori[3],opt_gain[3]);	// update second row, second column of estimate covariance matrix
    2414:	5c 96       	adiw	r26, 0x1c	; 28
    2416:	ed 90       	ld	r14, X+
    2418:	fd 90       	ld	r15, X+
    241a:	0d 91       	ld	r16, X+
    241c:	1c 91       	ld	r17, X
    241e:	5f 97       	sbiw	r26, 0x1f	; 31
    2420:	54 96       	adiw	r26, 0x14	; 20
    2422:	6d 91       	ld	r22, X+
    2424:	7d 91       	ld	r23, X+
    2426:	8d 91       	ld	r24, X+
    2428:	9c 91       	ld	r25, X
    242a:	57 97       	sbiw	r26, 0x17	; 23
    242c:	29 89       	ldd	r18, Y+17	; 0x11
    242e:	3a 89       	ldd	r19, Y+18	; 0x12
    2430:	4b 89       	ldd	r20, Y+19	; 0x13
    2432:	5c 89       	ldd	r21, Y+20	; 0x14
    2434:	0e 94 1e 03 	call	0x63c	; 0x63c <lmullkD>
    2438:	5b 01       	movw	r10, r22
    243a:	6c 01       	movw	r12, r24
    243c:	e9 a1       	ldd	r30, Y+33	; 0x21
    243e:	fa a1       	ldd	r31, Y+34	; 0x22
    2440:	64 8d       	ldd	r22, Z+28	; 0x1c
    2442:	75 8d       	ldd	r23, Z+29	; 0x1d
    2444:	86 8d       	ldd	r24, Z+30	; 0x1e
    2446:	97 8d       	ldd	r25, Z+31	; 0x1f
    2448:	a4 01       	movw	r20, r8
    244a:	93 01       	movw	r18, r6
    244c:	0e 94 1e 03 	call	0x63c	; 0x63c <lmullkD>
    2450:	ea 18       	sub	r14, r10
    2452:	fb 08       	sbc	r15, r11
    2454:	0c 09       	sbc	r16, r12
    2456:	1d 09       	sbc	r17, r13
    2458:	e6 1a       	sub	r14, r22
    245a:	f7 0a       	sbc	r15, r23
    245c:	08 0b       	sbc	r16, r24
    245e:	19 0b       	sbc	r17, r25
    2460:	a9 a1       	ldd	r26, Y+33	; 0x21
    2462:	ba a1       	ldd	r27, Y+34	; 0x22
    2464:	9c 96       	adiw	r26, 0x2c	; 44
    2466:	ed 92       	st	X+, r14
    2468:	fd 92       	st	X+, r15
    246a:	0d 93       	st	X+, r16
    246c:	1c 93       	st	X, r17
    246e:	9f 97       	sbiw	r26, 0x2f	; 47
	return;
} // end of Update_with_Angle_and_Rate()
    2470:	a2 96       	adiw	r28, 0x22	; 34
    2472:	0f b6       	in	r0, 0x3f	; 63
    2474:	f8 94       	cli
    2476:	de bf       	out	0x3e, r29	; 62
    2478:	0f be       	out	0x3f, r0	; 63
    247a:	cd bf       	out	0x3d, r28	; 61
    247c:	cf 91       	pop	r28
    247e:	df 91       	pop	r29
    2480:	1f 91       	pop	r17
    2482:	0f 91       	pop	r16
    2484:	ff 90       	pop	r15
    2486:	ef 90       	pop	r14
    2488:	df 90       	pop	r13
    248a:	cf 90       	pop	r12
    248c:	bf 90       	pop	r11
    248e:	af 90       	pop	r10
    2490:	9f 90       	pop	r9
    2492:	8f 90       	pop	r8
    2494:	7f 90       	pop	r7
    2496:	6f 90       	pop	r6
    2498:	5f 90       	pop	r5
    249a:	4f 90       	pop	r4
    249c:	3f 90       	pop	r3
    249e:	2f 90       	pop	r2
    24a0:	08 95       	ret

000024a2 <_ZN10GyroKalman27Est_NoCtrl_MeasAngleAndRateElll>:
 * 				_lAccum	angle			- angle measured at this time step, in radians *2^24
 * 				_lAccum	rate			- rate measured at this time step, in radians/sec *2^24
 * Description:	Performs estimation step with no known control inputs, but with measured angle and rate
 */
void GyroKalman::Est_NoCtrl_MeasAngleAndRate(long StepTime_us,
					_lAccum angle,_lAccum rate){
    24a2:	6f 92       	push	r6
    24a4:	7f 92       	push	r7
    24a6:	8f 92       	push	r8
    24a8:	9f 92       	push	r9
    24aa:	af 92       	push	r10
    24ac:	bf 92       	push	r11
    24ae:	cf 92       	push	r12
    24b0:	df 92       	push	r13
    24b2:	ef 92       	push	r14
    24b4:	ff 92       	push	r15
    24b6:	0f 93       	push	r16
    24b8:	1f 93       	push	r17
    24ba:	3c 01       	movw	r6, r24
    24bc:	48 01       	movw	r8, r16
    24be:	59 01       	movw	r10, r18
	Predict(StepTime_us);						// predict state estimates and estimate covariances based on past data alone
    24c0:	0e 94 cc 0f 	call	0x1f98	; 0x1f98 <_ZN10GyroKalman7PredictEl>
	Update_with_Angle_and_Rate(angle,rate);		// update state estimates and covariances with new measurements (both angle and rate measurements in this case)
    24c4:	c3 01       	movw	r24, r6
    24c6:	b5 01       	movw	r22, r10
    24c8:	a4 01       	movw	r20, r8
    24ca:	97 01       	movw	r18, r14
    24cc:	86 01       	movw	r16, r12
    24ce:	0e 94 e2 0f 	call	0x1fc4	; 0x1fc4 <_ZN10GyroKalman26Update_with_Angle_and_RateEll>
	return;
} // end of Est_NoCtrl_MeasAngleAndRate()
    24d2:	1f 91       	pop	r17
    24d4:	0f 91       	pop	r16
    24d6:	ff 90       	pop	r15
    24d8:	ef 90       	pop	r14
    24da:	df 90       	pop	r13
    24dc:	cf 90       	pop	r12
    24de:	bf 90       	pop	r11
    24e0:	af 90       	pop	r10
    24e2:	9f 90       	pop	r9
    24e4:	8f 90       	pop	r8
    24e6:	7f 90       	pop	r7
    24e8:	6f 90       	pop	r6
    24ea:	08 95       	ret

000024ec <_ZN10GyroKalman16Update_with_RateEl>:
 * Function:	Update_with_Rate()
 * Scope:		private
 * Arguments:	_lAccum	rate	- rate measured at this time step, in radians/sec *2^24
 * Description:	performs update step with measured rate data (from gyro), but no angle data.
 */
void GyroKalman::Update_with_Rate(_lAccum rate){
    24ec:	2f 92       	push	r2
    24ee:	3f 92       	push	r3
    24f0:	4f 92       	push	r4
    24f2:	5f 92       	push	r5
    24f4:	6f 92       	push	r6
    24f6:	7f 92       	push	r7
    24f8:	8f 92       	push	r8
    24fa:	9f 92       	push	r9
    24fc:	af 92       	push	r10
    24fe:	bf 92       	push	r11
    2500:	cf 92       	push	r12
    2502:	df 92       	push	r13
    2504:	ef 92       	push	r14
    2506:	ff 92       	push	r15
    2508:	0f 93       	push	r16
    250a:	1f 93       	push	r17
    250c:	cf 93       	push	r28
    250e:	df 93       	push	r29
    2510:	ec 01       	movw	r28, r24
    2512:	5a 01       	movw	r10, r20
    2514:	6b 01       	movw	r12, r22
	_lAccum residual_var;				// residual variance
	_lAccum residual_var_inv;			// inverse of residual variance;
	_lAccum opt_gain[2];				// optimal Kalman gain vector

	// calculate residual and variances
	meas_residual = rate - rate_pred;	// calculate measurement residual
    2516:	8c a9       	ldd	r24, Y+52	; 0x34
    2518:	9d a9       	ldd	r25, Y+53	; 0x35
    251a:	ae a9       	ldd	r26, Y+54	; 0x36
    251c:	bf a9       	ldd	r27, Y+55	; 0x37
    251e:	a8 1a       	sub	r10, r24
    2520:	b9 0a       	sbc	r11, r25
    2522:	ca 0a       	sbc	r12, r26
    2524:	db 0a       	sbc	r13, r27
	residual_var = est_cov_apriori[3] + rate_obs_noise_var;	// calculate residual variance
	residual_var_inv = ldivlk(ONE_LK,residual_var);				// calculate inverse of residual variance
    2526:	2c 85       	ldd	r18, Y+12	; 0x0c
    2528:	3d 85       	ldd	r19, Y+13	; 0x0d
    252a:	4e 85       	ldd	r20, Y+14	; 0x0e
    252c:	5f 85       	ldd	r21, Y+15	; 0x0f
    252e:	8c 8d       	ldd	r24, Y+28	; 0x1c
    2530:	9d 8d       	ldd	r25, Y+29	; 0x1d
    2532:	ae 8d       	ldd	r26, Y+30	; 0x1e
    2534:	bf 8d       	ldd	r27, Y+31	; 0x1f
    2536:	28 0f       	add	r18, r24
    2538:	39 1f       	adc	r19, r25
    253a:	4a 1f       	adc	r20, r26
    253c:	5b 1f       	adc	r21, r27
    253e:	60 e0       	ldi	r22, 0x00	; 0
    2540:	70 e0       	ldi	r23, 0x00	; 0
    2542:	80 e0       	ldi	r24, 0x00	; 0
    2544:	91 e0       	ldi	r25, 0x01	; 1
    2546:	0e 94 e3 03 	call	0x7c6	; 0x7c6 <ldivlkD>
    254a:	7b 01       	movw	r14, r22
    254c:	8c 01       	movw	r16, r24

	// Calculate the optimal kalman gain
	opt_gain[0] = lmullk(residual_var_inv,est_cov_apriori[1]);	// calculate first element of optimal Kalman gain
    254e:	2c 89       	ldd	r18, Y+20	; 0x14
    2550:	3d 89       	ldd	r19, Y+21	; 0x15
    2552:	4e 89       	ldd	r20, Y+22	; 0x16
    2554:	5f 89       	ldd	r21, Y+23	; 0x17
    2556:	0e 94 1e 03 	call	0x63c	; 0x63c <lmullkD>
    255a:	3b 01       	movw	r6, r22
    255c:	4c 01       	movw	r8, r24
	opt_gain[1] = lmullk(residual_var_inv,est_cov_apriori[3]);	// calculate second element of optimal Kalman gain
    255e:	2c 8d       	ldd	r18, Y+28	; 0x1c
    2560:	3d 8d       	ldd	r19, Y+29	; 0x1d
    2562:	4e 8d       	ldd	r20, Y+30	; 0x1e
    2564:	5f 8d       	ldd	r21, Y+31	; 0x1f
    2566:	c8 01       	movw	r24, r16
    2568:	b7 01       	movw	r22, r14
    256a:	0e 94 1e 03 	call	0x63c	; 0x63c <lmullkD>
    256e:	1b 01       	movw	r2, r22
    2570:	2c 01       	movw	r4, r24

	// Update state estimates
	angle_est = angle_pred + lmullk(opt_gain[0],meas_residual);	// update (a posteriori) angle state estimate
    2572:	e8 a8       	ldd	r14, Y+48	; 0x30
    2574:	f9 a8       	ldd	r15, Y+49	; 0x31
    2576:	0a a9       	ldd	r16, Y+50	; 0x32
    2578:	1b a9       	ldd	r17, Y+51	; 0x33
    257a:	c4 01       	movw	r24, r8
    257c:	b3 01       	movw	r22, r6
    257e:	a6 01       	movw	r20, r12
    2580:	95 01       	movw	r18, r10
    2582:	0e 94 1e 03 	call	0x63c	; 0x63c <lmullkD>
    2586:	e6 0e       	add	r14, r22
    2588:	f7 1e       	adc	r15, r23
    258a:	08 1f       	adc	r16, r24
    258c:	19 1f       	adc	r17, r25
    258e:	e8 ae       	std	Y+56, r14	; 0x38
    2590:	f9 ae       	std	Y+57, r15	; 0x39
    2592:	0a af       	std	Y+58, r16	; 0x3a
    2594:	1b af       	std	Y+59, r17	; 0x3b
	rate_est = rate_pred + lmullk(opt_gain[1],meas_residual);	// update (a posteriori) rate state estimate
    2596:	ec a8       	ldd	r14, Y+52	; 0x34
    2598:	fd a8       	ldd	r15, Y+53	; 0x35
    259a:	0e a9       	ldd	r16, Y+54	; 0x36
    259c:	1f a9       	ldd	r17, Y+55	; 0x37
    259e:	c2 01       	movw	r24, r4
    25a0:	b1 01       	movw	r22, r2
    25a2:	a6 01       	movw	r20, r12
    25a4:	95 01       	movw	r18, r10
    25a6:	0e 94 1e 03 	call	0x63c	; 0x63c <lmullkD>
    25aa:	e6 0e       	add	r14, r22
    25ac:	f7 1e       	adc	r15, r23
    25ae:	08 1f       	adc	r16, r24
    25b0:	19 1f       	adc	r17, r25
    25b2:	ec ae       	std	Y+60, r14	; 0x3c
    25b4:	fd ae       	std	Y+61, r15	; 0x3d
    25b6:	0e af       	std	Y+62, r16	; 0x3e
    25b8:	1f af       	std	Y+63, r17	; 0x3f

	if (angle_est > PILK)	angle_est -= TWOPILK;			// if angle is greater than pi, subtract 2pi to normalize
    25ba:	88 ad       	ldd	r24, Y+56	; 0x38
    25bc:	99 ad       	ldd	r25, Y+57	; 0x39
    25be:	aa ad       	ldd	r26, Y+58	; 0x3a
    25c0:	bb ad       	ldd	r27, Y+59	; 0x3b
    25c2:	8b 36       	cpi	r24, 0x6B	; 107
    25c4:	2f e3       	ldi	r18, 0x3F	; 63
    25c6:	92 07       	cpc	r25, r18
    25c8:	24 e2       	ldi	r18, 0x24	; 36
    25ca:	a2 07       	cpc	r26, r18
    25cc:	23 e0       	ldi	r18, 0x03	; 3
    25ce:	b2 07       	cpc	r27, r18
    25d0:	2c f0       	brlt	.+10     	; 0x25dc <_ZN10GyroKalman16Update_with_RateEl+0xf0>
    25d2:	85 5d       	subi	r24, 0xD5	; 213
    25d4:	9e 47       	sbci	r25, 0x7E	; 126
    25d6:	a8 44       	sbci	r26, 0x48	; 72
    25d8:	b6 40       	sbci	r27, 0x06	; 6
    25da:	0c c0       	rjmp	.+24     	; 0x25f4 <_ZN10GyroKalman16Update_with_RateEl+0x108>
	else if (angle_est < -PILK) angle_est += TWOPILK;		// else if angle is less than -pi, add 2pi to normalize
    25dc:	86 39       	cpi	r24, 0x96	; 150
    25de:	20 ec       	ldi	r18, 0xC0	; 192
    25e0:	92 07       	cpc	r25, r18
    25e2:	2b ed       	ldi	r18, 0xDB	; 219
    25e4:	a2 07       	cpc	r26, r18
    25e6:	2c ef       	ldi	r18, 0xFC	; 252
    25e8:	b2 07       	cpc	r27, r18
    25ea:	44 f4       	brge	.+16     	; 0x25fc <_ZN10GyroKalman16Update_with_RateEl+0x110>
    25ec:	8b 52       	subi	r24, 0x2B	; 43
    25ee:	91 48       	sbci	r25, 0x81	; 129
    25f0:	a7 4b       	sbci	r26, 0xB7	; 183
    25f2:	b9 4f       	sbci	r27, 0xF9	; 249
    25f4:	88 af       	std	Y+56, r24	; 0x38
    25f6:	99 af       	std	Y+57, r25	; 0x39
    25f8:	aa af       	std	Y+58, r26	; 0x3a
    25fa:	bb af       	std	Y+59, r27	; 0x3b

	// Update Estimate Covariance Matrix
	est_cov_aposteriori[0] = est_cov_apriori[0] - lmullk(est_cov_apriori[2],opt_gain[0]);	// update first row, first column of estimate covariance matrix
    25fc:	e8 88       	ldd	r14, Y+16	; 0x10
    25fe:	f9 88       	ldd	r15, Y+17	; 0x11
    2600:	0a 89       	ldd	r16, Y+18	; 0x12
    2602:	1b 89       	ldd	r17, Y+19	; 0x13
    2604:	68 8d       	ldd	r22, Y+24	; 0x18
    2606:	79 8d       	ldd	r23, Y+25	; 0x19
    2608:	8a 8d       	ldd	r24, Y+26	; 0x1a
    260a:	9b 8d       	ldd	r25, Y+27	; 0x1b
    260c:	a4 01       	movw	r20, r8
    260e:	93 01       	movw	r18, r6
    2610:	0e 94 1e 03 	call	0x63c	; 0x63c <lmullkD>
    2614:	e6 1a       	sub	r14, r22
    2616:	f7 0a       	sbc	r15, r23
    2618:	08 0b       	sbc	r16, r24
    261a:	19 0b       	sbc	r17, r25
    261c:	e8 a2       	std	Y+32, r14	; 0x20
    261e:	f9 a2       	std	Y+33, r15	; 0x21
    2620:	0a a3       	std	Y+34, r16	; 0x22
    2622:	1b a3       	std	Y+35, r17	; 0x23
	est_cov_aposteriori[1] = est_cov_apriori[1] - lmullk(est_cov_apriori[3],opt_gain[0]);	// update first row, second column of estimate covariance matrix
    2624:	ec 88       	ldd	r14, Y+20	; 0x14
    2626:	fd 88       	ldd	r15, Y+21	; 0x15
    2628:	0e 89       	ldd	r16, Y+22	; 0x16
    262a:	1f 89       	ldd	r17, Y+23	; 0x17
    262c:	6c 8d       	ldd	r22, Y+28	; 0x1c
    262e:	7d 8d       	ldd	r23, Y+29	; 0x1d
    2630:	8e 8d       	ldd	r24, Y+30	; 0x1e
    2632:	9f 8d       	ldd	r25, Y+31	; 0x1f
    2634:	a4 01       	movw	r20, r8
    2636:	93 01       	movw	r18, r6
    2638:	0e 94 1e 03 	call	0x63c	; 0x63c <lmullkD>
    263c:	e6 1a       	sub	r14, r22
    263e:	f7 0a       	sbc	r15, r23
    2640:	08 0b       	sbc	r16, r24
    2642:	19 0b       	sbc	r17, r25
    2644:	ec a2       	std	Y+36, r14	; 0x24
    2646:	fd a2       	std	Y+37, r15	; 0x25
    2648:	0e a3       	std	Y+38, r16	; 0x26
    264a:	1f a3       	std	Y+39, r17	; 0x27
	est_cov_aposteriori[2] = est_cov_apriori[2] - lmullk(est_cov_apriori[2],opt_gain[1]);	// update second row, first column of estimate covariance matrix
    264c:	e8 8c       	ldd	r14, Y+24	; 0x18
    264e:	f9 8c       	ldd	r15, Y+25	; 0x19
    2650:	0a 8d       	ldd	r16, Y+26	; 0x1a
    2652:	1b 8d       	ldd	r17, Y+27	; 0x1b
    2654:	c8 01       	movw	r24, r16
    2656:	b7 01       	movw	r22, r14
    2658:	a2 01       	movw	r20, r4
    265a:	91 01       	movw	r18, r2
    265c:	0e 94 1e 03 	call	0x63c	; 0x63c <lmullkD>
    2660:	e6 1a       	sub	r14, r22
    2662:	f7 0a       	sbc	r15, r23
    2664:	08 0b       	sbc	r16, r24
    2666:	19 0b       	sbc	r17, r25
    2668:	e8 a6       	std	Y+40, r14	; 0x28
    266a:	f9 a6       	std	Y+41, r15	; 0x29
    266c:	0a a7       	std	Y+42, r16	; 0x2a
    266e:	1b a7       	std	Y+43, r17	; 0x2b
	est_cov_aposteriori[3] = est_cov_apriori[3] - lmullk(est_cov_apriori[3],opt_gain[1]);	// update second row, second column of estimate covariance matrix
    2670:	ec 8c       	ldd	r14, Y+28	; 0x1c
    2672:	fd 8c       	ldd	r15, Y+29	; 0x1d
    2674:	0e 8d       	ldd	r16, Y+30	; 0x1e
    2676:	1f 8d       	ldd	r17, Y+31	; 0x1f
    2678:	c8 01       	movw	r24, r16
    267a:	b7 01       	movw	r22, r14
    267c:	a2 01       	movw	r20, r4
    267e:	91 01       	movw	r18, r2
    2680:	0e 94 1e 03 	call	0x63c	; 0x63c <lmullkD>
    2684:	e6 1a       	sub	r14, r22
    2686:	f7 0a       	sbc	r15, r23
    2688:	08 0b       	sbc	r16, r24
    268a:	19 0b       	sbc	r17, r25
    268c:	ec a6       	std	Y+44, r14	; 0x2c
    268e:	fd a6       	std	Y+45, r15	; 0x2d
    2690:	0e a7       	std	Y+46, r16	; 0x2e
    2692:	1f a7       	std	Y+47, r17	; 0x2f

	return;
} // end of Update_with_Rate()
    2694:	df 91       	pop	r29
    2696:	cf 91       	pop	r28
    2698:	1f 91       	pop	r17
    269a:	0f 91       	pop	r16
    269c:	ff 90       	pop	r15
    269e:	ef 90       	pop	r14
    26a0:	df 90       	pop	r13
    26a2:	cf 90       	pop	r12
    26a4:	bf 90       	pop	r11
    26a6:	af 90       	pop	r10
    26a8:	9f 90       	pop	r9
    26aa:	8f 90       	pop	r8
    26ac:	7f 90       	pop	r7
    26ae:	6f 90       	pop	r6
    26b0:	5f 90       	pop	r5
    26b2:	4f 90       	pop	r4
    26b4:	3f 90       	pop	r3
    26b6:	2f 90       	pop	r2
    26b8:	08 95       	ret

000026ba <_ZN10GyroKalman19Est_NoCtrl_MeasRateEll>:
 * Scope:		Public
 * Arguments:	long	StepTime_us		- step time taken between this prediction and last estimation step, in microseconds
 * 				_lAccum	rate			- rate measured at this time step, in radians/sec *2^24
 * Description:	Performs estimation step with no known control inputs and measured rate (but no measured angle)
 */
void GyroKalman::Est_NoCtrl_MeasRate(long StepTime_us,_lAccum rate){
    26ba:	af 92       	push	r10
    26bc:	bf 92       	push	r11
    26be:	cf 92       	push	r12
    26c0:	df 92       	push	r13
    26c2:	ef 92       	push	r14
    26c4:	ff 92       	push	r15
    26c6:	0f 93       	push	r16
    26c8:	1f 93       	push	r17
    26ca:	7c 01       	movw	r14, r24
    26cc:	58 01       	movw	r10, r16
    26ce:	69 01       	movw	r12, r18
	Predict(StepTime_us);						// predict state estimates and estimate covariances based on past data alone
    26d0:	0e 94 cc 0f 	call	0x1f98	; 0x1f98 <_ZN10GyroKalman7PredictEl>
	Update_with_Rate(rate);					// update state estimates and covariances with new measurements (rate measurement in this case)
    26d4:	c7 01       	movw	r24, r14
    26d6:	b6 01       	movw	r22, r12
    26d8:	a5 01       	movw	r20, r10
    26da:	0e 94 76 12 	call	0x24ec	; 0x24ec <_ZN10GyroKalman16Update_with_RateEl>
	return;
} // end of Est_NoCtrl_MeasRate()
    26de:	1f 91       	pop	r17
    26e0:	0f 91       	pop	r16
    26e2:	ff 90       	pop	r15
    26e4:	ef 90       	pop	r14
    26e6:	df 90       	pop	r13
    26e8:	cf 90       	pop	r12
    26ea:	bf 90       	pop	r11
    26ec:	af 90       	pop	r10
    26ee:	08 95       	ret

000026f0 <_ZN10GyroKalman17Update_with_AngleEl>:
 * Function:	Update_with_Angle()
 * Scope:		private
 * Arguments:	_lAccum	angle	- angle measured at this time step, in radians *2^24
 * Description:	performs update step with measured angle data (from compass), but no rate data.
 */
void GyroKalman::Update_with_Angle(_lAccum angle){
    26f0:	2f 92       	push	r2
    26f2:	3f 92       	push	r3
    26f4:	4f 92       	push	r4
    26f6:	5f 92       	push	r5
    26f8:	6f 92       	push	r6
    26fa:	7f 92       	push	r7
    26fc:	8f 92       	push	r8
    26fe:	9f 92       	push	r9
    2700:	af 92       	push	r10
    2702:	bf 92       	push	r11
    2704:	cf 92       	push	r12
    2706:	df 92       	push	r13
    2708:	ef 92       	push	r14
    270a:	ff 92       	push	r15
    270c:	0f 93       	push	r16
    270e:	1f 93       	push	r17
    2710:	cf 93       	push	r28
    2712:	df 93       	push	r29
    2714:	ec 01       	movw	r28, r24
    2716:	5a 01       	movw	r10, r20
    2718:	6b 01       	movw	r12, r22
	_lAccum residual_var;				// residual variance
	_lAccum residual_var_inv;			// inverse of residual variance;
	_lAccum opt_gain[2];				// optimal Kalman gain vector

	// calculate residual and variances
	meas_residual = angle - angle_pred;	// calculate measurement residual
    271a:	88 a9       	ldd	r24, Y+48	; 0x30
    271c:	99 a9       	ldd	r25, Y+49	; 0x31
    271e:	aa a9       	ldd	r26, Y+50	; 0x32
    2720:	bb a9       	ldd	r27, Y+51	; 0x33
    2722:	a8 1a       	sub	r10, r24
    2724:	b9 0a       	sbc	r11, r25
    2726:	ca 0a       	sbc	r12, r26
    2728:	db 0a       	sbc	r13, r27
	residual_var = est_cov_apriori[0] + angle_obs_noise_var;	// calculate residual variance
	residual_var_inv = ldivlk(ONE_LK,residual_var);				// calculate inverse of residual variance
    272a:	28 85       	ldd	r18, Y+8	; 0x08
    272c:	39 85       	ldd	r19, Y+9	; 0x09
    272e:	4a 85       	ldd	r20, Y+10	; 0x0a
    2730:	5b 85       	ldd	r21, Y+11	; 0x0b
    2732:	88 89       	ldd	r24, Y+16	; 0x10
    2734:	99 89       	ldd	r25, Y+17	; 0x11
    2736:	aa 89       	ldd	r26, Y+18	; 0x12
    2738:	bb 89       	ldd	r27, Y+19	; 0x13
    273a:	28 0f       	add	r18, r24
    273c:	39 1f       	adc	r19, r25
    273e:	4a 1f       	adc	r20, r26
    2740:	5b 1f       	adc	r21, r27
    2742:	60 e0       	ldi	r22, 0x00	; 0
    2744:	70 e0       	ldi	r23, 0x00	; 0
    2746:	80 e0       	ldi	r24, 0x00	; 0
    2748:	91 e0       	ldi	r25, 0x01	; 1
    274a:	0e 94 e3 03 	call	0x7c6	; 0x7c6 <ldivlkD>
    274e:	7b 01       	movw	r14, r22
    2750:	8c 01       	movw	r16, r24

	// Calculate the optimal kalman gain
	opt_gain[0] = lmullk(residual_var_inv,est_cov_apriori[0]);	// calculate first element of optimal Kalman gain
    2752:	28 89       	ldd	r18, Y+16	; 0x10
    2754:	39 89       	ldd	r19, Y+17	; 0x11
    2756:	4a 89       	ldd	r20, Y+18	; 0x12
    2758:	5b 89       	ldd	r21, Y+19	; 0x13
    275a:	0e 94 1e 03 	call	0x63c	; 0x63c <lmullkD>
    275e:	3b 01       	movw	r6, r22
    2760:	4c 01       	movw	r8, r24
	opt_gain[1] = lmullk(residual_var_inv,est_cov_apriori[2]);	// calculate second element of optimal Kalman gain
    2762:	28 8d       	ldd	r18, Y+24	; 0x18
    2764:	39 8d       	ldd	r19, Y+25	; 0x19
    2766:	4a 8d       	ldd	r20, Y+26	; 0x1a
    2768:	5b 8d       	ldd	r21, Y+27	; 0x1b
    276a:	c8 01       	movw	r24, r16
    276c:	b7 01       	movw	r22, r14
    276e:	0e 94 1e 03 	call	0x63c	; 0x63c <lmullkD>
    2772:	1b 01       	movw	r2, r22
    2774:	2c 01       	movw	r4, r24

	// Update state estimates
	angle_est = angle_pred + lmullk(opt_gain[0],meas_residual);	// update (a posteriori) angle state estimate
    2776:	e8 a8       	ldd	r14, Y+48	; 0x30
    2778:	f9 a8       	ldd	r15, Y+49	; 0x31
    277a:	0a a9       	ldd	r16, Y+50	; 0x32
    277c:	1b a9       	ldd	r17, Y+51	; 0x33
    277e:	c4 01       	movw	r24, r8
    2780:	b3 01       	movw	r22, r6
    2782:	a6 01       	movw	r20, r12
    2784:	95 01       	movw	r18, r10
    2786:	0e 94 1e 03 	call	0x63c	; 0x63c <lmullkD>
    278a:	e6 0e       	add	r14, r22
    278c:	f7 1e       	adc	r15, r23
    278e:	08 1f       	adc	r16, r24
    2790:	19 1f       	adc	r17, r25
    2792:	e8 ae       	std	Y+56, r14	; 0x38
    2794:	f9 ae       	std	Y+57, r15	; 0x39
    2796:	0a af       	std	Y+58, r16	; 0x3a
    2798:	1b af       	std	Y+59, r17	; 0x3b
	rate_est = rate_pred + lmullk(opt_gain[1],meas_residual);	// update (a posteriori) rate state estimate
    279a:	ec a8       	ldd	r14, Y+52	; 0x34
    279c:	fd a8       	ldd	r15, Y+53	; 0x35
    279e:	0e a9       	ldd	r16, Y+54	; 0x36
    27a0:	1f a9       	ldd	r17, Y+55	; 0x37
    27a2:	c2 01       	movw	r24, r4
    27a4:	b1 01       	movw	r22, r2
    27a6:	a6 01       	movw	r20, r12
    27a8:	95 01       	movw	r18, r10
    27aa:	0e 94 1e 03 	call	0x63c	; 0x63c <lmullkD>
    27ae:	e6 0e       	add	r14, r22
    27b0:	f7 1e       	adc	r15, r23
    27b2:	08 1f       	adc	r16, r24
    27b4:	19 1f       	adc	r17, r25
    27b6:	ec ae       	std	Y+60, r14	; 0x3c
    27b8:	fd ae       	std	Y+61, r15	; 0x3d
    27ba:	0e af       	std	Y+62, r16	; 0x3e
    27bc:	1f af       	std	Y+63, r17	; 0x3f

	if (angle_est > PILK)	angle_est -= TWOPILK;			// if angle is greater than pi, subtract 2pi to normalize
    27be:	88 ad       	ldd	r24, Y+56	; 0x38
    27c0:	99 ad       	ldd	r25, Y+57	; 0x39
    27c2:	aa ad       	ldd	r26, Y+58	; 0x3a
    27c4:	bb ad       	ldd	r27, Y+59	; 0x3b
    27c6:	8b 36       	cpi	r24, 0x6B	; 107
    27c8:	2f e3       	ldi	r18, 0x3F	; 63
    27ca:	92 07       	cpc	r25, r18
    27cc:	24 e2       	ldi	r18, 0x24	; 36
    27ce:	a2 07       	cpc	r26, r18
    27d0:	23 e0       	ldi	r18, 0x03	; 3
    27d2:	b2 07       	cpc	r27, r18
    27d4:	2c f0       	brlt	.+10     	; 0x27e0 <_ZN10GyroKalman17Update_with_AngleEl+0xf0>
    27d6:	85 5d       	subi	r24, 0xD5	; 213
    27d8:	9e 47       	sbci	r25, 0x7E	; 126
    27da:	a8 44       	sbci	r26, 0x48	; 72
    27dc:	b6 40       	sbci	r27, 0x06	; 6
    27de:	0c c0       	rjmp	.+24     	; 0x27f8 <_ZN10GyroKalman17Update_with_AngleEl+0x108>
	else if (angle_est < -PILK) angle_est += TWOPILK;		// else if angle is less than -pi, add 2pi to normalize
    27e0:	86 39       	cpi	r24, 0x96	; 150
    27e2:	20 ec       	ldi	r18, 0xC0	; 192
    27e4:	92 07       	cpc	r25, r18
    27e6:	2b ed       	ldi	r18, 0xDB	; 219
    27e8:	a2 07       	cpc	r26, r18
    27ea:	2c ef       	ldi	r18, 0xFC	; 252
    27ec:	b2 07       	cpc	r27, r18
    27ee:	44 f4       	brge	.+16     	; 0x2800 <_ZN10GyroKalman17Update_with_AngleEl+0x110>
    27f0:	8b 52       	subi	r24, 0x2B	; 43
    27f2:	91 48       	sbci	r25, 0x81	; 129
    27f4:	a7 4b       	sbci	r26, 0xB7	; 183
    27f6:	b9 4f       	sbci	r27, 0xF9	; 249
    27f8:	88 af       	std	Y+56, r24	; 0x38
    27fa:	99 af       	std	Y+57, r25	; 0x39
    27fc:	aa af       	std	Y+58, r26	; 0x3a
    27fe:	bb af       	std	Y+59, r27	; 0x3b

	// Update Estimate Covariance Matrix
	est_cov_aposteriori[0] = est_cov_apriori[0] - lmullk(est_cov_apriori[0],opt_gain[0]);	// update first row, first column of estimate covariance matrix
    2800:	e8 88       	ldd	r14, Y+16	; 0x10
    2802:	f9 88       	ldd	r15, Y+17	; 0x11
    2804:	0a 89       	ldd	r16, Y+18	; 0x12
    2806:	1b 89       	ldd	r17, Y+19	; 0x13
    2808:	c8 01       	movw	r24, r16
    280a:	b7 01       	movw	r22, r14
    280c:	a4 01       	movw	r20, r8
    280e:	93 01       	movw	r18, r6
    2810:	0e 94 1e 03 	call	0x63c	; 0x63c <lmullkD>
    2814:	e6 1a       	sub	r14, r22
    2816:	f7 0a       	sbc	r15, r23
    2818:	08 0b       	sbc	r16, r24
    281a:	19 0b       	sbc	r17, r25
    281c:	e8 a2       	std	Y+32, r14	; 0x20
    281e:	f9 a2       	std	Y+33, r15	; 0x21
    2820:	0a a3       	std	Y+34, r16	; 0x22
    2822:	1b a3       	std	Y+35, r17	; 0x23
	est_cov_aposteriori[1] = est_cov_apriori[1] - lmullk(est_cov_apriori[1],opt_gain[0]);	// update first row, second column of estimate covariance matrix
    2824:	ec 88       	ldd	r14, Y+20	; 0x14
    2826:	fd 88       	ldd	r15, Y+21	; 0x15
    2828:	0e 89       	ldd	r16, Y+22	; 0x16
    282a:	1f 89       	ldd	r17, Y+23	; 0x17
    282c:	c8 01       	movw	r24, r16
    282e:	b7 01       	movw	r22, r14
    2830:	a4 01       	movw	r20, r8
    2832:	93 01       	movw	r18, r6
    2834:	0e 94 1e 03 	call	0x63c	; 0x63c <lmullkD>
    2838:	e6 1a       	sub	r14, r22
    283a:	f7 0a       	sbc	r15, r23
    283c:	08 0b       	sbc	r16, r24
    283e:	19 0b       	sbc	r17, r25
    2840:	ec a2       	std	Y+36, r14	; 0x24
    2842:	fd a2       	std	Y+37, r15	; 0x25
    2844:	0e a3       	std	Y+38, r16	; 0x26
    2846:	1f a3       	std	Y+39, r17	; 0x27
	est_cov_aposteriori[2] = est_cov_apriori[2] - lmullk(est_cov_apriori[0],opt_gain[1]);	// update second row, first column of estimate covariance matrix
    2848:	e8 8c       	ldd	r14, Y+24	; 0x18
    284a:	f9 8c       	ldd	r15, Y+25	; 0x19
    284c:	0a 8d       	ldd	r16, Y+26	; 0x1a
    284e:	1b 8d       	ldd	r17, Y+27	; 0x1b
    2850:	68 89       	ldd	r22, Y+16	; 0x10
    2852:	79 89       	ldd	r23, Y+17	; 0x11
    2854:	8a 89       	ldd	r24, Y+18	; 0x12
    2856:	9b 89       	ldd	r25, Y+19	; 0x13
    2858:	a2 01       	movw	r20, r4
    285a:	91 01       	movw	r18, r2
    285c:	0e 94 1e 03 	call	0x63c	; 0x63c <lmullkD>
    2860:	e6 1a       	sub	r14, r22
    2862:	f7 0a       	sbc	r15, r23
    2864:	08 0b       	sbc	r16, r24
    2866:	19 0b       	sbc	r17, r25
    2868:	e8 a6       	std	Y+40, r14	; 0x28
    286a:	f9 a6       	std	Y+41, r15	; 0x29
    286c:	0a a7       	std	Y+42, r16	; 0x2a
    286e:	1b a7       	std	Y+43, r17	; 0x2b
	est_cov_aposteriori[3] = est_cov_apriori[3] - lmullk(est_cov_apriori[1],opt_gain[1]);	// update second row, second column of estimate covariance matrix
    2870:	ec 8c       	ldd	r14, Y+28	; 0x1c
    2872:	fd 8c       	ldd	r15, Y+29	; 0x1d
    2874:	0e 8d       	ldd	r16, Y+30	; 0x1e
    2876:	1f 8d       	ldd	r17, Y+31	; 0x1f
    2878:	6c 89       	ldd	r22, Y+20	; 0x14
    287a:	7d 89       	ldd	r23, Y+21	; 0x15
    287c:	8e 89       	ldd	r24, Y+22	; 0x16
    287e:	9f 89       	ldd	r25, Y+23	; 0x17
    2880:	a2 01       	movw	r20, r4
    2882:	91 01       	movw	r18, r2
    2884:	0e 94 1e 03 	call	0x63c	; 0x63c <lmullkD>
    2888:	e6 1a       	sub	r14, r22
    288a:	f7 0a       	sbc	r15, r23
    288c:	08 0b       	sbc	r16, r24
    288e:	19 0b       	sbc	r17, r25
    2890:	ec a6       	std	Y+44, r14	; 0x2c
    2892:	fd a6       	std	Y+45, r15	; 0x2d
    2894:	0e a7       	std	Y+46, r16	; 0x2e
    2896:	1f a7       	std	Y+47, r17	; 0x2f

	return;
} // end of Update_with_Angle()
    2898:	df 91       	pop	r29
    289a:	cf 91       	pop	r28
    289c:	1f 91       	pop	r17
    289e:	0f 91       	pop	r16
    28a0:	ff 90       	pop	r15
    28a2:	ef 90       	pop	r14
    28a4:	df 90       	pop	r13
    28a6:	cf 90       	pop	r12
    28a8:	bf 90       	pop	r11
    28aa:	af 90       	pop	r10
    28ac:	9f 90       	pop	r9
    28ae:	8f 90       	pop	r8
    28b0:	7f 90       	pop	r7
    28b2:	6f 90       	pop	r6
    28b4:	5f 90       	pop	r5
    28b6:	4f 90       	pop	r4
    28b8:	3f 90       	pop	r3
    28ba:	2f 90       	pop	r2
    28bc:	08 95       	ret

000028be <_ZN10GyroKalman20Est_NoCtrl_MeasAngleEll>:
 * Scope:		Public
 * Arguments:	long	StepTime_us		- step time taken between this prediction and last estimation step, in microseconds
 * 				_lAccum	angle			- angle measured at this time step, in radians *2^24
 * Description:	Performs estimation step with no known control inputs and measured angle (but no measured rate)
 */
void GyroKalman::Est_NoCtrl_MeasAngle(long StepTime_us,_lAccum angle){
    28be:	af 92       	push	r10
    28c0:	bf 92       	push	r11
    28c2:	cf 92       	push	r12
    28c4:	df 92       	push	r13
    28c6:	ef 92       	push	r14
    28c8:	ff 92       	push	r15
    28ca:	0f 93       	push	r16
    28cc:	1f 93       	push	r17
    28ce:	7c 01       	movw	r14, r24
    28d0:	58 01       	movw	r10, r16
    28d2:	69 01       	movw	r12, r18
	Predict(StepTime_us);						// predict state estimates and estimate covariances based on past data alone
    28d4:	0e 94 cc 0f 	call	0x1f98	; 0x1f98 <_ZN10GyroKalman7PredictEl>
	Update_with_Angle(angle);					// update state estimates and covariances with new measurements (angle measurement in this case)
    28d8:	c7 01       	movw	r24, r14
    28da:	b6 01       	movw	r22, r12
    28dc:	a5 01       	movw	r20, r10
    28de:	0e 94 78 13 	call	0x26f0	; 0x26f0 <_ZN10GyroKalman17Update_with_AngleEl>
	return;
} // end of Est_NoCtrl_MeasAngle()
    28e2:	1f 91       	pop	r17
    28e4:	0f 91       	pop	r16
    28e6:	ff 90       	pop	r15
    28e8:	ef 90       	pop	r14
    28ea:	df 90       	pop	r13
    28ec:	cf 90       	pop	r12
    28ee:	bf 90       	pop	r11
    28f0:	af 90       	pop	r10
    28f2:	08 95       	ret

000028f4 <_ZN7HMC588310set_offsetElll>:
 * Function:	set_offset()
 * Scope:		public
 * Arguments:	none
 * Description:	Sets offset values for magnetometer
 */
void HMC5883::set_offset(_lAccum offset_x, _lAccum offset_y, _lAccum offset_z)
    28f4:	cf 92       	push	r12
    28f6:	df 92       	push	r13
    28f8:	ef 92       	push	r14
    28fa:	ff 92       	push	r15
{
	offsetx = offset_x;
	offsetx = offset_y;
	offsetx = offset_z;
    28fc:	fc 01       	movw	r30, r24
    28fe:	c7 86       	std	Z+15, r12	; 0x0f
    2900:	d0 8a       	std	Z+16, r13	; 0x10
    2902:	e1 8a       	std	Z+17, r14	; 0x11
    2904:	f2 8a       	std	Z+18, r15	; 0x12
}
    2906:	ff 90       	pop	r15
    2908:	ef 90       	pop	r14
    290a:	df 90       	pop	r13
    290c:	cf 90       	pop	r12
    290e:	08 95       	ret

00002910 <_ZN7HMC588319set_mag_declinationEl>:
 * 				between magnetic and true north, where a positive value indicates
 * 				that magnetic north is east of true north.   The _lAccum data type
 * 				implies this number is times 2^24.
 */
void HMC5883::set_mag_declination (_lAccum magdec){
	magnetic_declination = magdec;					// set the magnetic declination as proscribed
    2910:	fc 01       	movw	r30, r24
    2912:	43 a3       	std	Z+35, r20	; 0x23
    2914:	54 a3       	std	Z+36, r21	; 0x24
    2916:	65 a3       	std	Z+37, r22	; 0x25
    2918:	76 a3       	std	Z+38, r23	; 0x26
	return;
}
    291a:	08 95       	ret

0000291c <_ZN7HMC588312GetDataCountEv>:
 * Function:	GetDataCount()
 * Scope:		public
 * Arguments:	None
 * Description: returns the number of unread data items awaiting in the HMC5883.
 */
byte HMC5883::GetDataCount(void){
    291c:	fc 01       	movw	r30, r24
	return datacount;
    291e:	87 a1       	ldd	r24, Z+39	; 0x27
}
    2920:	08 95       	ret

00002922 <_Z16HMC5883_data_intv>:
 * Scope:		public
 * Arguments:	none
 * Description:	Increments counter which tells new data is ready
 */
void HMC5883::data_int(void) {
	datacount++;
    2922:	80 91 37 05 	lds	r24, 0x0537
    2926:	8f 5f       	subi	r24, 0xFF	; 255
    2928:	80 93 37 05 	sts	0x0537, r24
 */
 void HMC5883_data_int(void)
 {
	 Hmc5883.data_int();
	 return;
 }
    292c:	08 95       	ret

0000292e <_GLOBAL__I_Hmc5883>:
 * Scope:		Public
 * Arguments:	None
 * Description:	Constructor for HMC5883 object
 */
HMC5883::HMC5883(void) {
	identity[0] = 0;					// initialize to zero.  first byte of identifier of device.  must be ascii H when read
    292e:	10 92 10 05 	sts	0x0510, r1
	identity[1] = 0;					// initialize to zero.  second byte of identifier of device.  must be ascii 4 when read
    2932:	10 92 11 05 	sts	0x0511, r1
	identity[2] = 0;					// initialize to zero.  third byte of identifier of device.  must be ascii 3 when read
    2936:	10 92 12 05 	sts	0x0512, r1
	offsetx = 0;						// initialize to zero.  offset for x-axis reading
    293a:	10 92 1f 05 	sts	0x051F, r1
    293e:	10 92 20 05 	sts	0x0520, r1
    2942:	10 92 21 05 	sts	0x0521, r1
    2946:	10 92 22 05 	sts	0x0522, r1
	offsety = 0;						// initialize to zero.  offset for y-axis reading
    294a:	10 92 23 05 	sts	0x0523, r1
    294e:	10 92 24 05 	sts	0x0524, r1
    2952:	10 92 25 05 	sts	0x0525, r1
    2956:	10 92 26 05 	sts	0x0526, r1
	offsetz = 0;						// initialize to zero.  offset for z-axis reading
    295a:	10 92 27 05 	sts	0x0527, r1
    295e:	10 92 28 05 	sts	0x0528, r1
    2962:	10 92 29 05 	sts	0x0529, r1
    2966:	10 92 2a 05 	sts	0x052A, r1
	magX = 0;							// initialize to zero.  magnetic reading in x-axis, in ADC reading counts
    296a:	10 92 13 05 	sts	0x0513, r1
    296e:	10 92 14 05 	sts	0x0514, r1
    2972:	10 92 15 05 	sts	0x0515, r1
    2976:	10 92 16 05 	sts	0x0516, r1
	magY = 0;							// initialize to zero.  magnetic reading in x-axis, in ADC reading counts
    297a:	10 92 17 05 	sts	0x0517, r1
    297e:	10 92 18 05 	sts	0x0518, r1
    2982:	10 92 19 05 	sts	0x0519, r1
    2986:	10 92 1a 05 	sts	0x051A, r1
	magZ = 0;							// initialize to zero.  magnetic reading in x-axis, in ADC reading counts
    298a:	10 92 1b 05 	sts	0x051B, r1
    298e:	10 92 1c 05 	sts	0x051C, r1
    2992:	10 92 1d 05 	sts	0x051D, r1
    2996:	10 92 1e 05 	sts	0x051E, r1
	magnetic_declination = 0;			// initialize to zero.  magnetic declination, in radians.  This is the difference between magnetic and true north, where a positive value indicates that magnetic north is east of true north.   The _lAccum data type implies this number is times 2^24.
    299a:	10 92 33 05 	sts	0x0533, r1
    299e:	10 92 34 05 	sts	0x0534, r1
    29a2:	10 92 35 05 	sts	0x0535, r1
    29a6:	10 92 36 05 	sts	0x0536, r1
	heading = 0;						// magnetic heading, in radians.  A heading of zero indicates due north, while a heading of pi indicates due south.
    29aa:	10 92 2f 05 	sts	0x052F, r1
    29ae:	10 92 30 05 	sts	0x0530, r1
    29b2:	10 92 31 05 	sts	0x0531, r1
    29b6:	10 92 32 05 	sts	0x0532, r1
#if MAGGAIN_SELDEFAULT == MAGRANGE_SEL_0_88	// if default range is set to +-0.88Ga
	Gauss_per_LSb = GAUSSPERLSB_0_88;		// set correct scale factor of Gauss per LSb (least significant bit).  The _lAccum data type implies it is times 2^24
#elif MAGGAIN_SELDEFAULT == MAGRANGE_SEL_1_3// if default range is set to +-1.3Ga
	Gauss_per_LSb = GAUSSPERLSB_1_3;		// set correct scale factor of Gauss per LSb (least significant bit).  The _lAccum data type implies it is times 2^24
    29ba:	8f e1       	ldi	r24, 0x1F	; 31
    29bc:	9c e3       	ldi	r25, 0x3C	; 60
    29be:	a0 e0       	ldi	r26, 0x00	; 0
    29c0:	b0 e0       	ldi	r27, 0x00	; 0
    29c2:	80 93 2b 05 	sts	0x052B, r24
    29c6:	90 93 2c 05 	sts	0x052C, r25
    29ca:	a0 93 2d 05 	sts	0x052D, r26
    29ce:	b0 93 2e 05 	sts	0x052E, r27
#elif MAGGAIN_SELDEFAULT == MAGRANGE_SEL_8_1// if default range is set to +-8.1Ga
	Gauss_per_LSb = GAUSSPERLSB_8_1;		// set correct scale factor of Gauss per LSb (least significant bit).  The _lAccum data type implies it is times 2^24
#else										// if default range isn't a valid value
	Gauss_per_LSb = 0;						// set zero scale factor - no measurement.  This would imply the user set an invalid default value and an invalid initialization setting
#endif
	datacount = 0;						// Initial value of 0.  this counter increments whenever new data is available, and decrements when it is read
    29d2:	10 92 37 05 	sts	0x0537, r1
 */
 void HMC5883_data_int(void)
 {
	 Hmc5883.data_int();
	 return;
 }
    29d6:	08 95       	ret

000029d8 <_ZN7HMC58835writeEhh>:
 * Function:	write()
 * Scope:		private
 * Arguments:	None
 * Description:	This function writes the specified data at the specified address of the HMC5883
 */
void HMC5883::write(byte addr, byte data) {
    29d8:	ef 92       	push	r14
    29da:	ff 92       	push	r15
    29dc:	0f 93       	push	r16
    29de:	1f 93       	push	r17
    29e0:	16 2f       	mov	r17, r22
    29e2:	04 2f       	mov	r16, r20
	Wire.beginTransmission(COMPASS_ADDRESS);	// Begin I2C transmission with the magnetometer
    29e4:	86 e0       	ldi	r24, 0x06	; 6
    29e6:	e8 2e       	mov	r14, r24
    29e8:	84 e0       	ldi	r24, 0x04	; 4
    29ea:	f8 2e       	mov	r15, r24
    29ec:	c7 01       	movw	r24, r14
    29ee:	6e e1       	ldi	r22, 0x1E	; 30
    29f0:	70 e0       	ldi	r23, 0x00	; 0
    29f2:	0e 94 28 07 	call	0xe50	; 0xe50 <_ZN7TwoWire17beginTransmissionEi>
	Wire.write(addr);							// Tell magnetometer which register we are writing to
    29f6:	c7 01       	movw	r24, r14
    29f8:	61 2f       	mov	r22, r17
    29fa:	0e 94 aa 07 	call	0xf54	; 0xf54 <_ZN7TwoWire5writeEh>
	Wire.write(data);							// write specified value to register
    29fe:	c7 01       	movw	r24, r14
    2a00:	60 2f       	mov	r22, r16
    2a02:	0e 94 aa 07 	call	0xf54	; 0xf54 <_ZN7TwoWire5writeEh>
	Wire.endTransmission();						// end transmission
    2a06:	c7 01       	movw	r24, r14
    2a08:	0e 94 ed 07 	call	0xfda	; 0xfda <_ZN7TwoWire15endTransmissionEv>
	return;
}
    2a0c:	1f 91       	pop	r17
    2a0e:	0f 91       	pop	r16
    2a10:	ff 90       	pop	r15
    2a12:	ef 90       	pop	r14
    2a14:	08 95       	ret

00002a16 <_ZN7HMC58834readEhhPh>:
 * Scope:		private
 * Arguments:	None
 * Description:	This function reads the specified number of bytes, starting from the specified
 * 				address of the HMC5883.  It places this data in the specified databuffer.
 */
boolean HMC5883::read(byte startaddr, byte numbytes, byte * databuffer) {
    2a16:	0f 93       	push	r16
    2a18:	1f 93       	push	r17
    2a1a:	cf 93       	push	r28
    2a1c:	df 93       	push	r29
    2a1e:	16 2f       	mov	r17, r22
    2a20:	04 2f       	mov	r16, r20
    2a22:	e9 01       	movw	r28, r18
	boolean rtn = true;	// value to return (true or false for success or failure)
	byte i = 0;			// initialize index used for counting received bytes

	Wire.beginTransmission(COMPASS_ADDRESS);			// Begin I2C transmission with the magnetometer
    2a24:	86 e0       	ldi	r24, 0x06	; 6
    2a26:	94 e0       	ldi	r25, 0x04	; 4
    2a28:	6e e1       	ldi	r22, 0x1E	; 30
    2a2a:	70 e0       	ldi	r23, 0x00	; 0
    2a2c:	0e 94 28 07 	call	0xe50	; 0xe50 <_ZN7TwoWire17beginTransmissionEi>
	Wire.write(startaddr);							// send starting address to read from
    2a30:	86 e0       	ldi	r24, 0x06	; 6
    2a32:	94 e0       	ldi	r25, 0x04	; 4
    2a34:	61 2f       	mov	r22, r17
    2a36:	0e 94 aa 07 	call	0xf54	; 0xf54 <_ZN7TwoWire5writeEh>
	Wire.endTransmission();							// end I2C transmission
    2a3a:	86 e0       	ldi	r24, 0x06	; 6
    2a3c:	94 e0       	ldi	r25, 0x04	; 4
    2a3e:	0e 94 ed 07 	call	0xfda	; 0xfda <_ZN7TwoWire15endTransmissionEv>

	Wire.requestFrom((byte)COMPASS_ADDRESS,numbytes);		// request specified number of bytes from HMC5883
    2a42:	86 e0       	ldi	r24, 0x06	; 6
    2a44:	94 e0       	ldi	r25, 0x04	; 4
    2a46:	6e e1       	ldi	r22, 0x1E	; 30
    2a48:	40 2f       	mov	r20, r16
    2a4a:	0e 94 fe 07 	call	0xffc	; 0xffc <_ZN7TwoWire11requestFromEhh>
    2a4e:	10 e0       	ldi	r17, 0x00	; 0
    2a50:	09 c0       	rjmp	.+18     	; 0x2a64 <_ZN7HMC58834readEhhPh+0x4e>
	while(Wire.available())							// while data is available on I2C bus
	{
		*(databuffer+i) = Wire.read();				// receive one byte
    2a52:	86 e0       	ldi	r24, 0x06	; 6
    2a54:	94 e0       	ldi	r25, 0x04	; 4
    2a56:	0e 94 3b 07 	call	0xe76	; 0xe76 <_ZN7TwoWire4readEv>
    2a5a:	fe 01       	movw	r30, r28
    2a5c:	e1 0f       	add	r30, r17
    2a5e:	f1 1d       	adc	r31, r1
    2a60:	80 83       	st	Z, r24
		i++;										// increment counter of received bytes
    2a62:	1f 5f       	subi	r17, 0xFF	; 255
	Wire.beginTransmission(COMPASS_ADDRESS);			// Begin I2C transmission with the magnetometer
	Wire.write(startaddr);							// send starting address to read from
	Wire.endTransmission();							// end I2C transmission

	Wire.requestFrom((byte)COMPASS_ADDRESS,numbytes);		// request specified number of bytes from HMC5883
	while(Wire.available())							// while data is available on I2C bus
    2a64:	86 e0       	ldi	r24, 0x06	; 6
    2a66:	94 e0       	ldi	r25, 0x04	; 4
    2a68:	0e 94 32 07 	call	0xe64	; 0xe64 <_ZN7TwoWire9availableEv>
    2a6c:	89 2b       	or	r24, r25
    2a6e:	89 f7       	brne	.-30     	; 0x2a52 <_ZN7HMC58834readEhhPh+0x3c>
	{
		*(databuffer+i) = Wire.read();				// receive one byte
		i++;										// increment counter of received bytes
	}
	Wire.endTransmission();							// end I2C transmission
    2a70:	86 e0       	ldi	r24, 0x06	; 6
    2a72:	94 e0       	ldi	r25, 0x04	; 4
    2a74:	0e 94 ed 07 	call	0xfda	; 0xfda <_ZN7TwoWire15endTransmissionEv>
    2a78:	80 e0       	ldi	r24, 0x00	; 0
    2a7a:	10 17       	cp	r17, r16
    2a7c:	09 f4       	brne	.+2      	; 0x2a80 <_ZN7HMC58834readEhhPh+0x6a>
    2a7e:	81 e0       	ldi	r24, 0x01	; 1
	if (i != numbytes)								// if number of bytes received does not match request
	{
		rtn = false;								// set return to false to indicate failure
	}
	return rtn;										// return
} // end of read()
    2a80:	df 91       	pop	r29
    2a82:	cf 91       	pop	r28
    2a84:	1f 91       	pop	r17
    2a86:	0f 91       	pop	r16
    2a88:	08 95       	ret

00002a8a <_ZN7HMC588313Read_Mag_DataEv>:
 * Function:	Read_Mag_Data()
 * Scope:		public
 * Arguments:	none
 * Description: reads magnetic data from HMC5883 magnetometer
 */
boolean HMC5883::Read_Mag_Data(void){				// reads magnetic data from HMC5883 magnetometer
    2a8a:	bf 92       	push	r11
    2a8c:	cf 92       	push	r12
    2a8e:	df 92       	push	r13
    2a90:	ef 92       	push	r14
    2a92:	ff 92       	push	r15
    2a94:	0f 93       	push	r16
    2a96:	1f 93       	push	r17
    2a98:	df 93       	push	r29
    2a9a:	cf 93       	push	r28
    2a9c:	00 d0       	rcall	.+0      	; 0x2a9e <_ZN7HMC588313Read_Mag_DataEv+0x14>
    2a9e:	00 d0       	rcall	.+0      	; 0x2aa0 <_ZN7HMC588313Read_Mag_DataEv+0x16>
    2aa0:	00 d0       	rcall	.+0      	; 0x2aa2 <_ZN7HMC588313Read_Mag_DataEv+0x18>
    2aa2:	cd b7       	in	r28, 0x3d	; 61
    2aa4:	de b7       	in	r29, 0x3e	; 62
    2aa6:	6c 01       	movw	r12, r24
	boolean rtn = true;								// value to return at end - initialize to true
	byte databuffer[6];								// buffer to store measured data in
	int mag_counts;									// temporary int holds digital (unscaled) counts from x-axis magnetic measurement

	if (!read(DATAOUTXMSB,6,&databuffer[0]))		// read data
    2aa8:	63 e0       	ldi	r22, 0x03	; 3
    2aaa:	46 e0       	ldi	r20, 0x06	; 6
    2aac:	9e 01       	movw	r18, r28
    2aae:	2f 5f       	subi	r18, 0xFF	; 255
    2ab0:	3f 4f       	sbci	r19, 0xFF	; 255
    2ab2:	0e 94 0b 15 	call	0x2a16	; 0x2a16 <_ZN7HMC58834readEhhPh>
    2ab6:	88 23       	and	r24, r24
    2ab8:	09 f4       	brne	.+2      	; 0x2abc <_ZN7HMC588313Read_Mag_DataEv+0x32>
    2aba:	80 c0       	rjmp	.+256    	; 0x2bbc <_ZN7HMC588313Read_Mag_DataEv+0x132>
	{
		rtn = false;								// if read failure, set return value to false to indicate the failure
	}
	else
	{
		mag_counts = ( ((int)databuffer[0]) << 8 | databuffer[1] ) * MAG_XAXIS_SIGN;	// read x-axis adc counts
    2abc:	99 81       	ldd	r25, Y+1	; 0x01
    2abe:	80 e0       	ldi	r24, 0x00	; 0
    2ac0:	2a 81       	ldd	r18, Y+2	; 0x02
    2ac2:	30 e0       	ldi	r19, 0x00	; 0
    2ac4:	82 2b       	or	r24, r18
    2ac6:	93 2b       	or	r25, r19
    2ac8:	22 27       	eor	r18, r18
    2aca:	33 27       	eor	r19, r19
    2acc:	28 1b       	sub	r18, r24
    2ace:	39 0b       	sbc	r19, r25
		if ((mag_counts > 2047) | (mag_counts < -2048))		// if ADC counts fall outside ADC valid range (this happens for saturation)
    2ad0:	c9 01       	movw	r24, r18
    2ad2:	80 50       	subi	r24, 0x00	; 0
    2ad4:	98 4f       	sbci	r25, 0xF8	; 248
    2ad6:	80 50       	subi	r24, 0x00	; 0
    2ad8:	90 41       	sbci	r25, 0x10	; 16
    2ada:	10 f0       	brcs	.+4      	; 0x2ae0 <_ZN7HMC588313Read_Mag_DataEv+0x56>
    2adc:	bb 24       	eor	r11, r11
    2ade:	1b c0       	rjmp	.+54     	; 0x2b16 <_ZN7HMC588313Read_Mag_DataEv+0x8c>
		{
			rtn = false;									// set return value to false, indicating measurement didn't take place correctly
		}
		else												// if ADC counts are in normal range
		{
			magX = mag_counts * Gauss_per_LSb + offsetx;	// calculate x-axis magnetic field, in Gauss
    2ae0:	b9 01       	movw	r22, r18
    2ae2:	88 27       	eor	r24, r24
    2ae4:	77 fd       	sbrc	r23, 7
    2ae6:	80 95       	com	r24
    2ae8:	98 2f       	mov	r25, r24
    2aea:	f6 01       	movw	r30, r12
    2aec:	23 8d       	ldd	r18, Z+27	; 0x1b
    2aee:	34 8d       	ldd	r19, Z+28	; 0x1c
    2af0:	45 8d       	ldd	r20, Z+29	; 0x1d
    2af2:	56 8d       	ldd	r21, Z+30	; 0x1e
    2af4:	0e 94 ef 22 	call	0x45de	; 0x45de <__mulsi3>
    2af8:	f6 01       	movw	r30, r12
    2afa:	27 85       	ldd	r18, Z+15	; 0x0f
    2afc:	30 89       	ldd	r19, Z+16	; 0x10
    2afe:	41 89       	ldd	r20, Z+17	; 0x11
    2b00:	52 89       	ldd	r21, Z+18	; 0x12
    2b02:	26 0f       	add	r18, r22
    2b04:	37 1f       	adc	r19, r23
    2b06:	48 1f       	adc	r20, r24
    2b08:	59 1f       	adc	r21, r25
    2b0a:	23 83       	std	Z+3, r18	; 0x03
    2b0c:	34 83       	std	Z+4, r19	; 0x04
    2b0e:	45 83       	std	Z+5, r20	; 0x05
    2b10:	56 83       	std	Z+6, r21	; 0x06
    2b12:	bb 24       	eor	r11, r11
    2b14:	b3 94       	inc	r11
		}

		mag_counts = (( ((int)databuffer[4]) << 8 | databuffer[5] ) * MAG_YAXIS_SIGN + offsety);	// read y-axis adc counts
    2b16:	f6 01       	movw	r30, r12
    2b18:	e3 88       	ldd	r14, Z+19	; 0x13
    2b1a:	f4 88       	ldd	r15, Z+20	; 0x14
    2b1c:	05 89       	ldd	r16, Z+21	; 0x15
    2b1e:	16 89       	ldd	r17, Z+22	; 0x16
    2b20:	9d 81       	ldd	r25, Y+5	; 0x05
    2b22:	80 e0       	ldi	r24, 0x00	; 0
    2b24:	2e 81       	ldd	r18, Y+6	; 0x06
    2b26:	30 e0       	ldi	r19, 0x00	; 0
    2b28:	28 2b       	or	r18, r24
    2b2a:	39 2b       	or	r19, r25
    2b2c:	2e 0d       	add	r18, r14
    2b2e:	3f 1d       	adc	r19, r15
		if ((mag_counts > 2047) | (mag_counts < -2048))		// if ADC counts fall outside ADC valid range (this happens for saturation)
    2b30:	c9 01       	movw	r24, r18
    2b32:	80 50       	subi	r24, 0x00	; 0
    2b34:	98 4f       	sbci	r25, 0xF8	; 248
    2b36:	80 50       	subi	r24, 0x00	; 0
    2b38:	90 41       	sbci	r25, 0x10	; 16
    2b3a:	10 f0       	brcs	.+4      	; 0x2b40 <_ZN7HMC588313Read_Mag_DataEv+0xb6>
    2b3c:	bb 24       	eor	r11, r11
    2b3e:	15 c0       	rjmp	.+42     	; 0x2b6a <_ZN7HMC588313Read_Mag_DataEv+0xe0>
		{
			rtn = false;									// set return value to false, indicating measurement didn't take place correctly
		}
		else												// if ADC counts are in normal range
		{
			magY = mag_counts * Gauss_per_LSb + offsety;	// calculate y-axis magnetic field, in Gauss
    2b40:	b9 01       	movw	r22, r18
    2b42:	88 27       	eor	r24, r24
    2b44:	77 fd       	sbrc	r23, 7
    2b46:	80 95       	com	r24
    2b48:	98 2f       	mov	r25, r24
    2b4a:	f6 01       	movw	r30, r12
    2b4c:	23 8d       	ldd	r18, Z+27	; 0x1b
    2b4e:	34 8d       	ldd	r19, Z+28	; 0x1c
    2b50:	45 8d       	ldd	r20, Z+29	; 0x1d
    2b52:	56 8d       	ldd	r21, Z+30	; 0x1e
    2b54:	0e 94 ef 22 	call	0x45de	; 0x45de <__mulsi3>
    2b58:	e6 0e       	add	r14, r22
    2b5a:	f7 1e       	adc	r15, r23
    2b5c:	08 1f       	adc	r16, r24
    2b5e:	19 1f       	adc	r17, r25
    2b60:	f6 01       	movw	r30, r12
    2b62:	e7 82       	std	Z+7, r14	; 0x07
    2b64:	f0 86       	std	Z+8, r15	; 0x08
    2b66:	01 87       	std	Z+9, r16	; 0x09
    2b68:	12 87       	std	Z+10, r17	; 0x0a
		}

		mag_counts = (( ((int)databuffer[2]) << 8 | databuffer[3] ) * MAG_ZAXIS_SIGN + offsetz);	// read z-axis adc counts
    2b6a:	f6 01       	movw	r30, r12
    2b6c:	e7 88       	ldd	r14, Z+23	; 0x17
    2b6e:	f0 8c       	ldd	r15, Z+24	; 0x18
    2b70:	01 8d       	ldd	r16, Z+25	; 0x19
    2b72:	12 8d       	ldd	r17, Z+26	; 0x1a
    2b74:	9b 81       	ldd	r25, Y+3	; 0x03
    2b76:	80 e0       	ldi	r24, 0x00	; 0
    2b78:	2c 81       	ldd	r18, Y+4	; 0x04
    2b7a:	30 e0       	ldi	r19, 0x00	; 0
    2b7c:	28 2b       	or	r18, r24
    2b7e:	39 2b       	or	r19, r25
    2b80:	2e 0d       	add	r18, r14
    2b82:	3f 1d       	adc	r19, r15
		if ((mag_counts > 2047) | (mag_counts < -2048))		// if ADC counts fall outside ADC valid range (this happens for saturation)
    2b84:	c9 01       	movw	r24, r18
    2b86:	80 50       	subi	r24, 0x00	; 0
    2b88:	98 4f       	sbci	r25, 0xF8	; 248
    2b8a:	80 50       	subi	r24, 0x00	; 0
    2b8c:	90 41       	sbci	r25, 0x10	; 16
    2b8e:	b0 f4       	brcc	.+44     	; 0x2bbc <_ZN7HMC588313Read_Mag_DataEv+0x132>
		{
			rtn = false;									// set return value to false, indicating measurement didn't take place correctly
		}
		else												// if ADC counts are in normal range
		{
			magZ = mag_counts * Gauss_per_LSb + offsetz;	// calculate y-axis magnetic field, in Gauss
    2b90:	b9 01       	movw	r22, r18
    2b92:	88 27       	eor	r24, r24
    2b94:	77 fd       	sbrc	r23, 7
    2b96:	80 95       	com	r24
    2b98:	98 2f       	mov	r25, r24
    2b9a:	f6 01       	movw	r30, r12
    2b9c:	23 8d       	ldd	r18, Z+27	; 0x1b
    2b9e:	34 8d       	ldd	r19, Z+28	; 0x1c
    2ba0:	45 8d       	ldd	r20, Z+29	; 0x1d
    2ba2:	56 8d       	ldd	r21, Z+30	; 0x1e
    2ba4:	0e 94 ef 22 	call	0x45de	; 0x45de <__mulsi3>
    2ba8:	e6 0e       	add	r14, r22
    2baa:	f7 1e       	adc	r15, r23
    2bac:	08 1f       	adc	r16, r24
    2bae:	19 1f       	adc	r17, r25
    2bb0:	f6 01       	movw	r30, r12
    2bb2:	e3 86       	std	Z+11, r14	; 0x0b
    2bb4:	f4 86       	std	Z+12, r15	; 0x0c
    2bb6:	05 87       	std	Z+13, r16	; 0x0d
    2bb8:	16 87       	std	Z+14, r17	; 0x0e
    2bba:	01 c0       	rjmp	.+2      	; 0x2bbe <_ZN7HMC588313Read_Mag_DataEv+0x134>
    2bbc:	bb 24       	eor	r11, r11
		}

	}

	if (datacount > 0) datacount--;	// decrement data counter
    2bbe:	f6 01       	movw	r30, r12
    2bc0:	87 a1       	ldd	r24, Z+39	; 0x27
    2bc2:	88 23       	and	r24, r24
    2bc4:	19 f0       	breq	.+6      	; 0x2bcc <_ZN7HMC588313Read_Mag_DataEv+0x142>
    2bc6:	87 a1       	ldd	r24, Z+39	; 0x27
    2bc8:	81 50       	subi	r24, 0x01	; 1
    2bca:	87 a3       	std	Z+39, r24	; 0x27

	return rtn;
}
    2bcc:	8b 2d       	mov	r24, r11
    2bce:	26 96       	adiw	r28, 0x06	; 6
    2bd0:	0f b6       	in	r0, 0x3f	; 63
    2bd2:	f8 94       	cli
    2bd4:	de bf       	out	0x3e, r29	; 62
    2bd6:	0f be       	out	0x3f, r0	; 63
    2bd8:	cd bf       	out	0x3d, r28	; 61
    2bda:	cf 91       	pop	r28
    2bdc:	df 91       	pop	r29
    2bde:	1f 91       	pop	r17
    2be0:	0f 91       	pop	r16
    2be2:	ff 90       	pop	r15
    2be4:	ef 90       	pop	r14
    2be6:	df 90       	pop	r13
    2be8:	cf 90       	pop	r12
    2bea:	bf 90       	pop	r11
    2bec:	08 95       	ret

00002bee <_ZN7HMC588312Calc_HeadingEll>:
 * 				_lAccum pitch	- pitch angle of craft (about y axis), in radians.  Defined with positive value meaning pitch up.
 * Description:	This function calculates and returns the heading, in radians.  A heading of zero
 * 				indicates due north, while a heading of pi indicates due south.   The _lAccum data
 * 				type implies this number is times 2^24.
 */
_lAccum HMC5883::Calc_Heading(_lAccum roll, _lAccum pitch){					// calculates heading
    2bee:	2f 92       	push	r2
    2bf0:	3f 92       	push	r3
    2bf2:	4f 92       	push	r4
    2bf4:	5f 92       	push	r5
    2bf6:	6f 92       	push	r6
    2bf8:	7f 92       	push	r7
    2bfa:	8f 92       	push	r8
    2bfc:	9f 92       	push	r9
    2bfe:	af 92       	push	r10
    2c00:	bf 92       	push	r11
    2c02:	cf 92       	push	r12
    2c04:	df 92       	push	r13
    2c06:	ef 92       	push	r14
    2c08:	ff 92       	push	r15
    2c0a:	0f 93       	push	r16
    2c0c:	1f 93       	push	r17
    2c0e:	df 93       	push	r29
    2c10:	cf 93       	push	r28
    2c12:	cd b7       	in	r28, 0x3d	; 61
    2c14:	de b7       	in	r29, 0x3e	; 62
    2c16:	2e 97       	sbiw	r28, 0x0e	; 14
    2c18:	0f b6       	in	r0, 0x3f	; 63
    2c1a:	f8 94       	cli
    2c1c:	de bf       	out	0x3e, r29	; 62
    2c1e:	0f be       	out	0x3f, r0	; 63
    2c20:	cd bf       	out	0x3d, r28	; 61
    2c22:	9e 87       	std	Y+14, r25	; 0x0e
    2c24:	8d 87       	std	Y+13, r24	; 0x0d
    2c26:	78 01       	movw	r14, r16
    2c28:	89 01       	movw	r16, r18
	_lAccum cos_pitch;										// cosine of pitch angle
	_lAccum sin_pitch;										// sin of pitch angle
	_lAccum sin_roll_x_magY;								// sin of roll angle times y-axis magnetic measurement
	_lAccum cos_roll_x_magZ;								// cosine of roll angle times z-axis magnetic measurement

	sin_roll = lsincoslk(roll,&cos_roll);					// calculate sin and cos of roll angle
    2c2a:	cb 01       	movw	r24, r22
    2c2c:	ba 01       	movw	r22, r20
    2c2e:	ae 01       	movw	r20, r28
    2c30:	4f 5f       	subi	r20, 0xFF	; 255
    2c32:	5f 4f       	sbci	r21, 0xFF	; 255
    2c34:	0e 94 66 04 	call	0x8cc	; 0x8cc <lsincoslk>
    2c38:	69 87       	std	Y+9, r22	; 0x09
    2c3a:	7a 87       	std	Y+10, r23	; 0x0a
    2c3c:	8b 87       	std	Y+11, r24	; 0x0b
    2c3e:	9c 87       	std	Y+12, r25	; 0x0c
	sin_pitch = lsincoslk(pitch,&cos_pitch);				// calculate sin and cos of pitch angle
    2c40:	c8 01       	movw	r24, r16
    2c42:	b7 01       	movw	r22, r14
    2c44:	ae 01       	movw	r20, r28
    2c46:	4b 5f       	subi	r20, 0xFB	; 251
    2c48:	5f 4f       	sbci	r21, 0xFF	; 255
    2c4a:	0e 94 66 04 	call	0x8cc	; 0x8cc <lsincoslk>
    2c4e:	1b 01       	movw	r2, r22
    2c50:	2c 01       	movw	r4, r24
	sin_roll_x_magY = lmullk(sin_roll,magY);				// calculate sin of roll angle times y-axis magnetic measurement
    2c52:	ed 85       	ldd	r30, Y+13	; 0x0d
    2c54:	fe 85       	ldd	r31, Y+14	; 0x0e
    2c56:	27 81       	ldd	r18, Z+7	; 0x07
    2c58:	30 85       	ldd	r19, Z+8	; 0x08
    2c5a:	41 85       	ldd	r20, Z+9	; 0x09
    2c5c:	52 85       	ldd	r21, Z+10	; 0x0a
    2c5e:	69 85       	ldd	r22, Y+9	; 0x09
    2c60:	7a 85       	ldd	r23, Y+10	; 0x0a
    2c62:	8b 85       	ldd	r24, Y+11	; 0x0b
    2c64:	9c 85       	ldd	r25, Y+12	; 0x0c
    2c66:	0e 94 1e 03 	call	0x63c	; 0x63c <lmullkD>
    2c6a:	3b 01       	movw	r6, r22
    2c6c:	4c 01       	movw	r8, r24
	cos_roll_x_magZ = lmullk(cos_roll,magZ);				// calculate cosine of roll angle times z-axis magnetic measurement
    2c6e:	69 81       	ldd	r22, Y+1	; 0x01
    2c70:	7a 81       	ldd	r23, Y+2	; 0x02
    2c72:	8b 81       	ldd	r24, Y+3	; 0x03
    2c74:	9c 81       	ldd	r25, Y+4	; 0x04
    2c76:	ed 85       	ldd	r30, Y+13	; 0x0d
    2c78:	fe 85       	ldd	r31, Y+14	; 0x0e
    2c7a:	23 85       	ldd	r18, Z+11	; 0x0b
    2c7c:	34 85       	ldd	r19, Z+12	; 0x0c
    2c7e:	45 85       	ldd	r20, Z+13	; 0x0d
    2c80:	56 85       	ldd	r21, Z+14	; 0x0e
    2c82:	0e 94 1e 03 	call	0x63c	; 0x63c <lmullkD>
    2c86:	5b 01       	movw	r10, r22
    2c88:	6c 01       	movw	r12, r24

	// Tilt compensated Magnetic field X component:
	Head_X = lmullk(magX,cos_pitch) + lmullk(sin_roll_x_magY,sin_pitch) + lmullk(cos_roll_x_magZ,sin_pitch);
    2c8a:	ed 85       	ldd	r30, Y+13	; 0x0d
    2c8c:	fe 85       	ldd	r31, Y+14	; 0x0e
    2c8e:	63 81       	ldd	r22, Z+3	; 0x03
    2c90:	74 81       	ldd	r23, Z+4	; 0x04
    2c92:	85 81       	ldd	r24, Z+5	; 0x05
    2c94:	96 81       	ldd	r25, Z+6	; 0x06
    2c96:	2d 81       	ldd	r18, Y+5	; 0x05
    2c98:	3e 81       	ldd	r19, Y+6	; 0x06
    2c9a:	4f 81       	ldd	r20, Y+7	; 0x07
    2c9c:	58 85       	ldd	r21, Y+8	; 0x08
    2c9e:	0e 94 1e 03 	call	0x63c	; 0x63c <lmullkD>
    2ca2:	7b 01       	movw	r14, r22
    2ca4:	8c 01       	movw	r16, r24
    2ca6:	c4 01       	movw	r24, r8
    2ca8:	b3 01       	movw	r22, r6
    2caa:	a2 01       	movw	r20, r4
    2cac:	91 01       	movw	r18, r2
    2cae:	0e 94 1e 03 	call	0x63c	; 0x63c <lmullkD>
    2cb2:	3b 01       	movw	r6, r22
    2cb4:	4c 01       	movw	r8, r24
    2cb6:	c6 01       	movw	r24, r12
    2cb8:	b5 01       	movw	r22, r10
    2cba:	a2 01       	movw	r20, r4
    2cbc:	91 01       	movw	r18, r2
    2cbe:	0e 94 1e 03 	call	0x63c	; 0x63c <lmullkD>
    2cc2:	6e 0c       	add	r6, r14
    2cc4:	7f 1c       	adc	r7, r15
    2cc6:	80 1e       	adc	r8, r16
    2cc8:	91 1e       	adc	r9, r17
    2cca:	66 0e       	add	r6, r22
    2ccc:	77 1e       	adc	r7, r23
    2cce:	88 1e       	adc	r8, r24
    2cd0:	99 1e       	adc	r9, r25
	// Tilt compensated Magnetic field Y component:
	Head_Y = lmullk(magY,cos_roll) - lmullk(magZ,sin_roll);
    2cd2:	ed 85       	ldd	r30, Y+13	; 0x0d
    2cd4:	fe 85       	ldd	r31, Y+14	; 0x0e
    2cd6:	67 81       	ldd	r22, Z+7	; 0x07
    2cd8:	70 85       	ldd	r23, Z+8	; 0x08
    2cda:	81 85       	ldd	r24, Z+9	; 0x09
    2cdc:	92 85       	ldd	r25, Z+10	; 0x0a
    2cde:	29 81       	ldd	r18, Y+1	; 0x01
    2ce0:	3a 81       	ldd	r19, Y+2	; 0x02
    2ce2:	4b 81       	ldd	r20, Y+3	; 0x03
    2ce4:	5c 81       	ldd	r21, Y+4	; 0x04
    2ce6:	0e 94 1e 03 	call	0x63c	; 0x63c <lmullkD>
    2cea:	7b 01       	movw	r14, r22
    2cec:	8c 01       	movw	r16, r24
    2cee:	ed 85       	ldd	r30, Y+13	; 0x0d
    2cf0:	fe 85       	ldd	r31, Y+14	; 0x0e
    2cf2:	63 85       	ldd	r22, Z+11	; 0x0b
    2cf4:	74 85       	ldd	r23, Z+12	; 0x0c
    2cf6:	85 85       	ldd	r24, Z+13	; 0x0d
    2cf8:	96 85       	ldd	r25, Z+14	; 0x0e
    2cfa:	29 85       	ldd	r18, Y+9	; 0x09
    2cfc:	3a 85       	ldd	r19, Y+10	; 0x0a
    2cfe:	4b 85       	ldd	r20, Y+11	; 0x0b
    2d00:	5c 85       	ldd	r21, Y+12	; 0x0c
    2d02:	0e 94 1e 03 	call	0x63c	; 0x63c <lmullkD>
    2d06:	e6 1a       	sub	r14, r22
    2d08:	f7 0a       	sbc	r15, r23
    2d0a:	08 0b       	sbc	r16, r24
    2d0c:	19 0b       	sbc	r17, r25

	// Magnetic Heading
	if (Head_X >= 0)					// if x-axis component of heading is positive (heading north between 270 and 90 degrees)
    2d0e:	97 fc       	sbrc	r9, 7
    2d10:	16 c0       	rjmp	.+44     	; 0x2d3e <_ZN7HMC588312Calc_HeadingEll+0x150>
	{
		heading = latan2lk(Head_X,-Head_Y) - magnetic_declination; // calculate heading, corrected for magnetic declination
    2d12:	22 27       	eor	r18, r18
    2d14:	33 27       	eor	r19, r19
    2d16:	a9 01       	movw	r20, r18
    2d18:	2e 19       	sub	r18, r14
    2d1a:	3f 09       	sbc	r19, r15
    2d1c:	40 0b       	sbc	r20, r16
    2d1e:	51 0b       	sbc	r21, r17
    2d20:	c4 01       	movw	r24, r8
    2d22:	b3 01       	movw	r22, r6
    2d24:	0e 94 7c 05 	call	0xaf8	; 0xaf8 <latan2lk>
    2d28:	ed 85       	ldd	r30, Y+13	; 0x0d
    2d2a:	fe 85       	ldd	r31, Y+14	; 0x0e
    2d2c:	23 a1       	ldd	r18, Z+35	; 0x23
    2d2e:	34 a1       	ldd	r19, Z+36	; 0x24
    2d30:	45 a1       	ldd	r20, Z+37	; 0x25
    2d32:	56 a1       	ldd	r21, Z+38	; 0x26
    2d34:	62 1b       	sub	r22, r18
    2d36:	73 0b       	sbc	r23, r19
    2d38:	84 0b       	sbc	r24, r20
    2d3a:	95 0b       	sbc	r25, r21
    2d3c:	19 c0       	rjmp	.+50     	; 0x2d70 <_ZN7HMC588312Calc_HeadingEll+0x182>
	}
	else								// if x-axis component of heading is negative (heading south between 90 and 270 degrees)
	{
		heading = latan2lk(-Head_X,Head_Y) + PILK - magnetic_declination; // calculate heading, corrected for magnetic declination
    2d3e:	66 27       	eor	r22, r22
    2d40:	77 27       	eor	r23, r23
    2d42:	cb 01       	movw	r24, r22
    2d44:	66 19       	sub	r22, r6
    2d46:	77 09       	sbc	r23, r7
    2d48:	88 09       	sbc	r24, r8
    2d4a:	99 09       	sbc	r25, r9
    2d4c:	a8 01       	movw	r20, r16
    2d4e:	97 01       	movw	r18, r14
    2d50:	0e 94 7c 05 	call	0xaf8	; 0xaf8 <latan2lk>
    2d54:	ed 85       	ldd	r30, Y+13	; 0x0d
    2d56:	fe 85       	ldd	r31, Y+14	; 0x0e
    2d58:	23 a1       	ldd	r18, Z+35	; 0x23
    2d5a:	34 a1       	ldd	r19, Z+36	; 0x24
    2d5c:	45 a1       	ldd	r20, Z+37	; 0x25
    2d5e:	56 a1       	ldd	r21, Z+38	; 0x26
    2d60:	62 1b       	sub	r22, r18
    2d62:	73 0b       	sbc	r23, r19
    2d64:	84 0b       	sbc	r24, r20
    2d66:	95 0b       	sbc	r25, r21
    2d68:	66 59       	subi	r22, 0x96	; 150
    2d6a:	70 4c       	sbci	r23, 0xC0	; 192
    2d6c:	8b 4d       	sbci	r24, 0xDB	; 219
    2d6e:	9c 4f       	sbci	r25, 0xFC	; 252
    2d70:	67 8f       	std	Z+31, r22	; 0x1f
    2d72:	70 a3       	std	Z+32, r23	; 0x20
    2d74:	81 a3       	std	Z+33, r24	; 0x21
    2d76:	92 a3       	std	Z+34, r25	; 0x22
	}

	if (heading < -PILK) heading += TWOPILK;			// angle normalization
    2d78:	ed 85       	ldd	r30, Y+13	; 0x0d
    2d7a:	fe 85       	ldd	r31, Y+14	; 0x0e
    2d7c:	87 8d       	ldd	r24, Z+31	; 0x1f
    2d7e:	90 a1       	ldd	r25, Z+32	; 0x20
    2d80:	a1 a1       	ldd	r26, Z+33	; 0x21
    2d82:	b2 a1       	ldd	r27, Z+34	; 0x22
    2d84:	86 39       	cpi	r24, 0x96	; 150
    2d86:	f0 ec       	ldi	r31, 0xC0	; 192
    2d88:	9f 07       	cpc	r25, r31
    2d8a:	fb ed       	ldi	r31, 0xDB	; 219
    2d8c:	af 07       	cpc	r26, r31
    2d8e:	fc ef       	ldi	r31, 0xFC	; 252
    2d90:	bf 07       	cpc	r27, r31
    2d92:	2c f4       	brge	.+10     	; 0x2d9e <_ZN7HMC588312Calc_HeadingEll+0x1b0>
    2d94:	8b 52       	subi	r24, 0x2B	; 43
    2d96:	91 48       	sbci	r25, 0x81	; 129
    2d98:	a7 4b       	sbci	r26, 0xB7	; 183
    2d9a:	b9 4f       	sbci	r27, 0xF9	; 249
    2d9c:	0c c0       	rjmp	.+24     	; 0x2db6 <_ZN7HMC588312Calc_HeadingEll+0x1c8>
	else if (heading > PILK) heading -= TWOPILK;	// angle normalization
    2d9e:	8b 36       	cpi	r24, 0x6B	; 107
    2da0:	ff e3       	ldi	r31, 0x3F	; 63
    2da2:	9f 07       	cpc	r25, r31
    2da4:	f4 e2       	ldi	r31, 0x24	; 36
    2da6:	af 07       	cpc	r26, r31
    2da8:	f3 e0       	ldi	r31, 0x03	; 3
    2daa:	bf 07       	cpc	r27, r31
    2dac:	54 f0       	brlt	.+20     	; 0x2dc2 <_ZN7HMC588312Calc_HeadingEll+0x1d4>
    2dae:	85 5d       	subi	r24, 0xD5	; 213
    2db0:	9e 47       	sbci	r25, 0x7E	; 126
    2db2:	a8 44       	sbci	r26, 0x48	; 72
    2db4:	b6 40       	sbci	r27, 0x06	; 6
    2db6:	ed 85       	ldd	r30, Y+13	; 0x0d
    2db8:	fe 85       	ldd	r31, Y+14	; 0x0e
    2dba:	87 8f       	std	Z+31, r24	; 0x1f
    2dbc:	90 a3       	std	Z+32, r25	; 0x20
    2dbe:	a1 a3       	std	Z+33, r26	; 0x21
    2dc0:	b2 a3       	std	Z+34, r27	; 0x22
    2dc2:	ed 85       	ldd	r30, Y+13	; 0x0d
    2dc4:	fe 85       	ldd	r31, Y+14	; 0x0e
    2dc6:	67 8d       	ldd	r22, Z+31	; 0x1f
    2dc8:	70 a1       	ldd	r23, Z+32	; 0x20

	return heading;
}
    2dca:	81 a1       	ldd	r24, Z+33	; 0x21
    2dcc:	92 a1       	ldd	r25, Z+34	; 0x22
    2dce:	2e 96       	adiw	r28, 0x0e	; 14
    2dd0:	0f b6       	in	r0, 0x3f	; 63
    2dd2:	f8 94       	cli
    2dd4:	de bf       	out	0x3e, r29	; 62
    2dd6:	0f be       	out	0x3f, r0	; 63
    2dd8:	cd bf       	out	0x3d, r28	; 61
    2dda:	cf 91       	pop	r28
    2ddc:	df 91       	pop	r29
    2dde:	1f 91       	pop	r17
    2de0:	0f 91       	pop	r16
    2de2:	ff 90       	pop	r15
    2de4:	ef 90       	pop	r14
    2de6:	df 90       	pop	r13
    2de8:	cf 90       	pop	r12
    2dea:	bf 90       	pop	r11
    2dec:	af 90       	pop	r10
    2dee:	9f 90       	pop	r9
    2df0:	8f 90       	pop	r8
    2df2:	7f 90       	pop	r7
    2df4:	6f 90       	pop	r6
    2df6:	5f 90       	pop	r5
    2df8:	4f 90       	pop	r4
    2dfa:	3f 90       	pop	r3
    2dfc:	2f 90       	pop	r2
    2dfe:	08 95       	ret

00002e00 <_ZN7HMC588310InitializeEhhhh>:
 * Function:	Initialize()
 * Scope:		Public
 * Arguments:	None
 * Description:	This function initializes the HMC5883 device
 */
boolean HMC5883::Initialize(byte SampleAvgSel, byte DataRateSel, byte MeasBiasSel, byte MagRangeSel) {
    2e00:	df 92       	push	r13
    2e02:	ef 92       	push	r14
    2e04:	ff 92       	push	r15
    2e06:	0f 93       	push	r16
    2e08:	1f 93       	push	r17
    2e0a:	cf 93       	push	r28
    2e0c:	df 93       	push	r29
    2e0e:	ec 01       	movw	r28, r24
    2e10:	f6 2e       	mov	r15, r22
    2e12:	14 2f       	mov	r17, r20
    2e14:	d2 2e       	mov	r13, r18
	boolean rtn = true;							// value to return at end of function
	byte	write_value;						// this byte temporarily stores info to transmit to magnetometer

	Wire.begin();								// initialize and begin the I2C communications line
    2e16:	86 e0       	ldi	r24, 0x06	; 6
    2e18:	94 e0       	ldi	r25, 0x04	; 4
    2e1a:	0e 94 02 08 	call	0x1004	; 0x1004 <_ZN7TwoWire5beginEv>
	delay(10);									// wait 10 ms
    2e1e:	6a e0       	ldi	r22, 0x0A	; 10
    2e20:	70 e0       	ldi	r23, 0x00	; 0
    2e22:	80 e0       	ldi	r24, 0x00	; 0
    2e24:	90 e0       	ldi	r25, 0x00	; 0
    2e26:	0e 94 c8 21 	call	0x4390	; 0x4390 <delay>

	// read the identifier letters
	if (!read(IDENTREGA,3,(byte*)&identity))	// read identity bytes from HMC3883
    2e2a:	ce 01       	movw	r24, r28
    2e2c:	6a e0       	ldi	r22, 0x0A	; 10
    2e2e:	43 e0       	ldi	r20, 0x03	; 3
    2e30:	9e 01       	movw	r18, r28
    2e32:	0e 94 0b 15 	call	0x2a16	; 0x2a16 <_ZN7HMC58834readEhhPh>
    2e36:	68 2f       	mov	r22, r24
	{
		rtn = false;							// if failed to succesfully read, set return value to false, indicating failure
	}

	// check to ensure identifier bytes match expected values for the HMC3883
	if (	(identity[0] != 'H') |				// if the first identifier byte is not 'H'
    2e38:	90 e0       	ldi	r25, 0x00	; 0
    2e3a:	88 81       	ld	r24, Y
    2e3c:	88 34       	cpi	r24, 0x48	; 72
    2e3e:	09 f0       	breq	.+2      	; 0x2e42 <_ZN7HMC588310InitializeEhhhh+0x42>
    2e40:	91 e0       	ldi	r25, 0x01	; 1
    2e42:	20 e0       	ldi	r18, 0x00	; 0
    2e44:	89 81       	ldd	r24, Y+1	; 0x01
    2e46:	84 33       	cpi	r24, 0x34	; 52
    2e48:	09 f0       	breq	.+2      	; 0x2e4c <_ZN7HMC588310InitializeEhhhh+0x4c>
    2e4a:	21 e0       	ldi	r18, 0x01	; 1
    2e4c:	92 2b       	or	r25, r18
    2e4e:	29 2f       	mov	r18, r25
    2e50:	30 e0       	ldi	r19, 0x00	; 0
    2e52:	40 e0       	ldi	r20, 0x00	; 0
    2e54:	50 e0       	ldi	r21, 0x00	; 0
    2e56:	8a 81       	ldd	r24, Y+2	; 0x02
    2e58:	83 33       	cpi	r24, 0x33	; 51
    2e5a:	11 f0       	breq	.+4      	; 0x2e60 <_ZN7HMC588310InitializeEhhhh+0x60>
    2e5c:	41 e0       	ldi	r20, 0x01	; 1
    2e5e:	50 e0       	ldi	r21, 0x00	; 0
    2e60:	24 2b       	or	r18, r20
    2e62:	35 2b       	or	r19, r21
    2e64:	23 2b       	or	r18, r19
    2e66:	11 f0       	breq	.+4      	; 0x2e6c <_ZN7HMC588310InitializeEhhhh+0x6c>
    2e68:	ee 24       	eor	r14, r14
    2e6a:	04 c0       	rjmp	.+8      	; 0x2e74 <_ZN7HMC588310InitializeEhhhh+0x74>
    2e6c:	86 2f       	mov	r24, r22
    2e6e:	61 11       	cpse	r22, r1
    2e70:	81 e0       	ldi	r24, 0x01	; 1
    2e72:	e8 2e       	mov	r14, r24
	{
		rtn = false;							// set return value to false, indicating failure
	}

	// prepare to write configuration selections in config register A
	switch (SampleAvgSel)						// determine which bits to set for selected sample average setting
    2e74:	81 e0       	ldi	r24, 0x01	; 1
    2e76:	f8 16       	cp	r15, r24
    2e78:	49 f0       	breq	.+18     	; 0x2e8c <_ZN7HMC588310InitializeEhhhh+0x8c>
    2e7a:	f8 16       	cp	r15, r24
    2e7c:	48 f0       	brcs	.+18     	; 0x2e90 <_ZN7HMC588310InitializeEhhhh+0x90>
    2e7e:	82 e0       	ldi	r24, 0x02	; 2
    2e80:	f8 16       	cp	r15, r24
    2e82:	41 f0       	breq	.+16     	; 0x2e94 <_ZN7HMC588310InitializeEhhhh+0x94>
    2e84:	83 e0       	ldi	r24, 0x03	; 3
    2e86:	f8 16       	cp	r15, r24
    2e88:	39 f4       	brne	.+14     	; 0x2e98 <_ZN7HMC588310InitializeEhhhh+0x98>
    2e8a:	07 c0       	rjmp	.+14     	; 0x2e9a <_ZN7HMC588310InitializeEhhhh+0x9a>
    2e8c:	40 e2       	ldi	r20, 0x20	; 32
    2e8e:	06 c0       	rjmp	.+12     	; 0x2e9c <_ZN7HMC588310InitializeEhhhh+0x9c>
    2e90:	40 e0       	ldi	r20, 0x00	; 0
    2e92:	04 c0       	rjmp	.+8      	; 0x2e9c <_ZN7HMC588310InitializeEhhhh+0x9c>
    2e94:	40 e4       	ldi	r20, 0x40	; 64
    2e96:	02 c0       	rjmp	.+4      	; 0x2e9c <_ZN7HMC588310InitializeEhhhh+0x9c>
	case SAMPLEAVERAGING_SEL_4:					// if selected 4 samples
		write_value = SAMPLEAVERAGING_4;		// set correct bits for 4 samples
		break;
	case SAMPLEAVERAGING_SEL_8:					// if selected 8 samples
		write_value = SAMPLEAVERAGING_8;		// set correct bits for 8 samples
		break;
    2e98:	ee 24       	eor	r14, r14
    2e9a:	40 e6       	ldi	r20, 0x60	; 96
	default:									// if an invalid value is specified
		write_value = SAMPLEAVERANING_SEL_DEFAULT << 5;	// set bits for default value
		rtn = false;							// set return value to false, indicating failure with selection
	}

	switch (DataRateSel)						// determine which bits to set for selected data rate setting
    2e9c:	13 30       	cpi	r17, 0x03	; 3
    2e9e:	99 f0       	breq	.+38     	; 0x2ec6 <_ZN7HMC588310InitializeEhhhh+0xc6>
    2ea0:	14 30       	cpi	r17, 0x04	; 4
    2ea2:	28 f4       	brcc	.+10     	; 0x2eae <_ZN7HMC588310InitializeEhhhh+0xae>
    2ea4:	11 30       	cpi	r17, 0x01	; 1
    2ea6:	59 f0       	breq	.+22     	; 0x2ebe <_ZN7HMC588310InitializeEhhhh+0xbe>
    2ea8:	12 30       	cpi	r17, 0x02	; 2
    2eaa:	58 f4       	brcc	.+22     	; 0x2ec2 <_ZN7HMC588310InitializeEhhhh+0xc2>
    2eac:	13 c0       	rjmp	.+38     	; 0x2ed4 <_ZN7HMC588310InitializeEhhhh+0xd4>
    2eae:	15 30       	cpi	r17, 0x05	; 5
    2eb0:	71 f0       	breq	.+28     	; 0x2ece <_ZN7HMC588310InitializeEhhhh+0xce>
    2eb2:	15 30       	cpi	r17, 0x05	; 5
    2eb4:	50 f0       	brcs	.+20     	; 0x2eca <_ZN7HMC588310InitializeEhhhh+0xca>
    2eb6:	48 61       	ori	r20, 0x18	; 24
    2eb8:	16 30       	cpi	r17, 0x06	; 6
    2eba:	59 f4       	brne	.+22     	; 0x2ed2 <_ZN7HMC588310InitializeEhhhh+0xd2>
    2ebc:	0b c0       	rjmp	.+22     	; 0x2ed4 <_ZN7HMC588310InitializeEhhhh+0xd4>
	{
	case DATAOUTPUTSEL_0_75HZ:					// if selected 0.75 Hz data rate
		write_value |= DATAOUTPUTRATE_0_75HZ;	// set correct bits for 0.75 Hz data rate
		break;
	case DATAOUTPUTSEL_1_5HZ:					// if selected 1.5 Hz data rate
		write_value |= DATAOUTPUTRATE_1_5HZ;	// set correct bits for 1.5 Hz data rate
    2ebe:	44 60       	ori	r20, 0x04	; 4
    2ec0:	09 c0       	rjmp	.+18     	; 0x2ed4 <_ZN7HMC588310InitializeEhhhh+0xd4>
		break;
	case DATAOUTPUTSEL_3HZ:						// if selected 3 Hz data rate
		write_value |= DATAOUTPUTRATE_3HZ;		// set correct bits for 3 Hz data rate
    2ec2:	48 60       	ori	r20, 0x08	; 8
    2ec4:	07 c0       	rjmp	.+14     	; 0x2ed4 <_ZN7HMC588310InitializeEhhhh+0xd4>
		break;
	case DATAOUTPUTSEL_7_5HZ:					// if selected 7.5 Hz data rate
		write_value |= DATAOUTPUTRATE_7_5HZ;	// set correct bits for 7.5 Hz data rate
    2ec6:	4c 60       	ori	r20, 0x0C	; 12
    2ec8:	05 c0       	rjmp	.+10     	; 0x2ed4 <_ZN7HMC588310InitializeEhhhh+0xd4>
		break;
	case DATAOUTPUTSEL_15HZ:					// if selected 15 Hz data rate
		write_value |= DATAOUTPUTRATE_15HZ;		// set correct bits for 15 Hz data rate
    2eca:	40 61       	ori	r20, 0x10	; 16
    2ecc:	03 c0       	rjmp	.+6      	; 0x2ed4 <_ZN7HMC588310InitializeEhhhh+0xd4>
		break;
	case DATAOUTPUTSEL_30HZ:					// if selected 30 Hz data rate
		write_value |= DATAOUTPUTRATE_30HZ;		// set correct bits for 30 Hz data rate
    2ece:	44 61       	ori	r20, 0x14	; 20
    2ed0:	01 c0       	rjmp	.+2      	; 0x2ed4 <_ZN7HMC588310InitializeEhhhh+0xd4>
		break;
	case DATAOUTPUTSEL_75HZ:					// if selected 75 Hz data rate
		write_value |= DATAOUTPUTRATE_75HZ;		// set correct bits for 75 Hz data rate
		break;
	default:									// if an invalid value is specified
		write_value |= DATAOUTPUTSEL_DEFAULT << 2;	// set bits for default value
    2ed2:	ee 24       	eor	r14, r14
		rtn = false;							// set return value to false, indicating failure with selection
	}

	switch (MeasBiasSel)						// determine which bits to set for selected measurement configuration bits
    2ed4:	81 e0       	ldi	r24, 0x01	; 1
    2ed6:	d8 16       	cp	r13, r24
    2ed8:	39 f0       	breq	.+14     	; 0x2ee8 <_ZN7HMC588310InitializeEhhhh+0xe8>
    2eda:	d8 16       	cp	r13, r24
    2edc:	40 f0       	brcs	.+16     	; 0x2eee <_ZN7HMC588310InitializeEhhhh+0xee>
    2ede:	82 e0       	ldi	r24, 0x02	; 2
    2ee0:	d8 16       	cp	r13, r24
    2ee2:	21 f0       	breq	.+8      	; 0x2eec <_ZN7HMC588310InitializeEhhhh+0xec>
    2ee4:	ee 24       	eor	r14, r14
    2ee6:	03 c0       	rjmp	.+6      	; 0x2eee <_ZN7HMC588310InitializeEhhhh+0xee>
	{
	case NORMALOPERATION_SEL:					// if selected normal operation
		write_value |= NORMALOPERATION;			// set correct bits for normal operation
		break;
	case POSITIVEBIASCONFIG_SEL:				// if selected operation with positive bias
		write_value |= POSITIVEBIASCONFIG;		// set correct bits for operation with positive bias
    2ee8:	41 60       	ori	r20, 0x01	; 1
    2eea:	01 c0       	rjmp	.+2      	; 0x2eee <_ZN7HMC588310InitializeEhhhh+0xee>
		break;
	case NEGATIVEBIASCONFIG_SEL:				// if selected operation with negative bias
		write_value |= NEGATIVEBIASCONFIG;		// set correct bits for operation with negative bias
    2eec:	42 60       	ori	r20, 0x02	; 2
	default:									// if invalid value is specified
		write_value |= BIASSEL_DEFAULT;			// set bits for default value
		rtn = false;							// set return value to fale, indicating failure with selection
	}

	write(CONFIGREGA,write_value);				// write specified value in Config Register A
    2eee:	ce 01       	movw	r24, r28
    2ef0:	60 e0       	ldi	r22, 0x00	; 0
    2ef2:	0e 94 ec 14 	call	0x29d8	; 0x29d8 <_ZN7HMC58835writeEhh>
	delay(50);									// wait 50 ms
    2ef6:	62 e3       	ldi	r22, 0x32	; 50
    2ef8:	70 e0       	ldi	r23, 0x00	; 0
    2efa:	80 e0       	ldi	r24, 0x00	; 0
    2efc:	90 e0       	ldi	r25, 0x00	; 0
    2efe:	0e 94 c8 21 	call	0x4390	; 0x4390 <delay>

	// prepare to write selections in config register B
	switch (MagRangeSel)						// determine which bits to set for magnetic range selection
    2f02:	03 30       	cpi	r16, 0x03	; 3
    2f04:	79 f1       	breq	.+94     	; 0x2f64 <_ZN7HMC588310InitializeEhhhh+0x164>
    2f06:	04 30       	cpi	r16, 0x04	; 4
    2f08:	28 f4       	brcc	.+10     	; 0x2f14 <_ZN7HMC588310InitializeEhhhh+0x114>
    2f0a:	01 30       	cpi	r16, 0x01	; 1
    2f0c:	c1 f0       	breq	.+48     	; 0x2f3e <_ZN7HMC588310InitializeEhhhh+0x13e>
    2f0e:	02 30       	cpi	r16, 0x02	; 2
    2f10:	f8 f4       	brcc	.+62     	; 0x2f50 <_ZN7HMC588310InitializeEhhhh+0x150>
    2f12:	0b c0       	rjmp	.+22     	; 0x2f2a <_ZN7HMC588310InitializeEhhhh+0x12a>
    2f14:	05 30       	cpi	r16, 0x05	; 5
    2f16:	d1 f1       	breq	.+116    	; 0x2f8c <_ZN7HMC588310InitializeEhhhh+0x18c>
    2f18:	05 30       	cpi	r16, 0x05	; 5
    2f1a:	70 f1       	brcs	.+92     	; 0x2f78 <_ZN7HMC588310InitializeEhhhh+0x178>
    2f1c:	06 30       	cpi	r16, 0x06	; 6
    2f1e:	09 f4       	brne	.+2      	; 0x2f22 <_ZN7HMC588310InitializeEhhhh+0x122>
    2f20:	3f c0       	rjmp	.+126    	; 0x2fa0 <_ZN7HMC588310InitializeEhhhh+0x1a0>
    2f22:	07 30       	cpi	r16, 0x07	; 7
    2f24:	09 f0       	breq	.+2      	; 0x2f28 <_ZN7HMC588310InitializeEhhhh+0x128>
    2f26:	50 c0       	rjmp	.+160    	; 0x2fc8 <_ZN7HMC588310InitializeEhhhh+0x1c8>
    2f28:	45 c0       	rjmp	.+138    	; 0x2fb4 <_ZN7HMC588310InitializeEhhhh+0x1b4>
	{
	case MAGRANGE_SEL_0_88:						// if selected +-0.88 Gauss full-scale range
		write_value = MAGRANGE_0_88;			// set correct bits for +-0.88 Gauss full-scale range
		Gauss_per_LSb = GAUSSPERLSB_0_88;		// set correct scale factor of Gauss per LSb (least significant bit).  The _lAccum data type implies it is times 2^24
    2f2a:	86 ed       	ldi	r24, 0xD6	; 214
    2f2c:	9f e2       	ldi	r25, 0x2F	; 47
    2f2e:	a0 e0       	ldi	r26, 0x00	; 0
    2f30:	b0 e0       	ldi	r27, 0x00	; 0
    2f32:	8b 8f       	std	Y+27, r24	; 0x1b
    2f34:	9c 8f       	std	Y+28, r25	; 0x1c
    2f36:	ad 8f       	std	Y+29, r26	; 0x1d
    2f38:	be 8f       	std	Y+30, r27	; 0x1e
    2f3a:	40 e0       	ldi	r20, 0x00	; 0
    2f3c:	4f c0       	rjmp	.+158    	; 0x2fdc <_ZN7HMC588310InitializeEhhhh+0x1dc>
		break;
	case MAGRANGE_SEL_1_3:						// if selected +-1.3 Gauss full-scale range
		write_value = MAGRANGE_1_3;				// set correct bits for +-1.3 Gauss full-scale range
		Gauss_per_LSb = GAUSSPERLSB_1_3;		// set correct scale factor of Gauss per LSb (least significant bit).  The _lAccum data type implies it is times 2^24
    2f3e:	8f e1       	ldi	r24, 0x1F	; 31
    2f40:	9c e3       	ldi	r25, 0x3C	; 60
    2f42:	a0 e0       	ldi	r26, 0x00	; 0
    2f44:	b0 e0       	ldi	r27, 0x00	; 0
    2f46:	8b 8f       	std	Y+27, r24	; 0x1b
    2f48:	9c 8f       	std	Y+28, r25	; 0x1c
    2f4a:	ad 8f       	std	Y+29, r26	; 0x1d
    2f4c:	be 8f       	std	Y+30, r27	; 0x1e
    2f4e:	45 c0       	rjmp	.+138    	; 0x2fda <_ZN7HMC588310InitializeEhhhh+0x1da>
		break;
	case MAGRANGE_SEL_1_9:						// if selected +-1.9 Gauss full-scale range
		write_value = MAGRANGE_1_9;				// set correct bits for +-1.9 Gauss full-scale range
		Gauss_per_LSb = GAUSSPERLSB_1_9;		// set correct scale factor of Gauss per LSb (least significant bit).  The _lAccum data type implies it is times 2^24
    2f50:	8c ee       	ldi	r24, 0xEC	; 236
    2f52:	9f e4       	ldi	r25, 0x4F	; 79
    2f54:	a0 e0       	ldi	r26, 0x00	; 0
    2f56:	b0 e0       	ldi	r27, 0x00	; 0
    2f58:	8b 8f       	std	Y+27, r24	; 0x1b
    2f5a:	9c 8f       	std	Y+28, r25	; 0x1c
    2f5c:	ad 8f       	std	Y+29, r26	; 0x1d
    2f5e:	be 8f       	std	Y+30, r27	; 0x1e
    2f60:	40 e4       	ldi	r20, 0x40	; 64
    2f62:	3c c0       	rjmp	.+120    	; 0x2fdc <_ZN7HMC588310InitializeEhhhh+0x1dc>
		break;
	case MAGRANGE_SEL_2_5:						// if selected +-2.5 Gauss full-scale range
		write_value = MAGRANGE_2_5;				// set correct bits for +-2.5 Gauss full-scale range
		Gauss_per_LSb = GAUSSPERLSB_2_5;		// set correct scale factor of Gauss per LSb (least significant bit).  The _lAccum data type implies it is times 2^24
    2f64:	8c e4       	ldi	r24, 0x4C	; 76
    2f66:	93 e6       	ldi	r25, 0x63	; 99
    2f68:	a0 e0       	ldi	r26, 0x00	; 0
    2f6a:	b0 e0       	ldi	r27, 0x00	; 0
    2f6c:	8b 8f       	std	Y+27, r24	; 0x1b
    2f6e:	9c 8f       	std	Y+28, r25	; 0x1c
    2f70:	ad 8f       	std	Y+29, r26	; 0x1d
    2f72:	be 8f       	std	Y+30, r27	; 0x1e
    2f74:	40 e6       	ldi	r20, 0x60	; 96
    2f76:	32 c0       	rjmp	.+100    	; 0x2fdc <_ZN7HMC588310InitializeEhhhh+0x1dc>
		break;
	case MAGRANGE_SEL_4_0:						// if selected +-4.0 Gauss full-scale range
		write_value = MAGRANGE_4_0;				// set correct bits for +-4.0 Gauss full-scale range
		Gauss_per_LSb = GAUSSPERLSB_4_0;		// set correct scale factor of Gauss per LSb (least significant bit).  The _lAccum data type implies it is times 2^24
    2f78:	82 ef       	ldi	r24, 0xF2	; 242
    2f7a:	94 e9       	ldi	r25, 0x94	; 148
    2f7c:	a0 e0       	ldi	r26, 0x00	; 0
    2f7e:	b0 e0       	ldi	r27, 0x00	; 0
    2f80:	8b 8f       	std	Y+27, r24	; 0x1b
    2f82:	9c 8f       	std	Y+28, r25	; 0x1c
    2f84:	ad 8f       	std	Y+29, r26	; 0x1d
    2f86:	be 8f       	std	Y+30, r27	; 0x1e
    2f88:	40 e8       	ldi	r20, 0x80	; 128
    2f8a:	28 c0       	rjmp	.+80     	; 0x2fdc <_ZN7HMC588310InitializeEhhhh+0x1dc>
		break;
	case MAGRANGE_SEL_4_7:						// if selected +-4.7 Gauss full-scale range
		write_value = MAGRANGE_4_7;				// set correct bits for +-4.7 Gauss full-scale range
		Gauss_per_LSb = GAUSSPERLSB_4_7;		// set correct scale factor of Gauss per LSb (least significant bit).  The _lAccum data type implies it is times 2^24
    2f8c:	8a e0       	ldi	r24, 0x0A	; 10
    2f8e:	98 ea       	ldi	r25, 0xA8	; 168
    2f90:	a0 e0       	ldi	r26, 0x00	; 0
    2f92:	b0 e0       	ldi	r27, 0x00	; 0
    2f94:	8b 8f       	std	Y+27, r24	; 0x1b
    2f96:	9c 8f       	std	Y+28, r25	; 0x1c
    2f98:	ad 8f       	std	Y+29, r26	; 0x1d
    2f9a:	be 8f       	std	Y+30, r27	; 0x1e
    2f9c:	40 ea       	ldi	r20, 0xA0	; 160
    2f9e:	1e c0       	rjmp	.+60     	; 0x2fdc <_ZN7HMC588310InitializeEhhhh+0x1dc>
		break;
	case MAGRANGE_SEL_5_6:						// if selected +-5.6 Gauss full-scale range
		write_value = MAGRANGE_5_6;				// set correct bits for +-5.6 Gauss full-scale range
		Gauss_per_LSb = GAUSSPERLSB_5_6;		// set correct scale factor of Gauss per LSb (least significant bit).  The _lAccum data type implies it is times 2^24
    2fa0:	88 e9       	ldi	r24, 0x98	; 152
    2fa2:	96 ec       	ldi	r25, 0xC6	; 198
    2fa4:	a0 e0       	ldi	r26, 0x00	; 0
    2fa6:	b0 e0       	ldi	r27, 0x00	; 0
    2fa8:	8b 8f       	std	Y+27, r24	; 0x1b
    2faa:	9c 8f       	std	Y+28, r25	; 0x1c
    2fac:	ad 8f       	std	Y+29, r26	; 0x1d
    2fae:	be 8f       	std	Y+30, r27	; 0x1e
    2fb0:	40 ec       	ldi	r20, 0xC0	; 192
    2fb2:	14 c0       	rjmp	.+40     	; 0x2fdc <_ZN7HMC588310InitializeEhhhh+0x1dc>
		break;
	case MAGRANGE_SEL_8_1:						// if selected +-8.1 Gauss full-scale range
		write_value = MAGRANGE_8_1;				// set correct bits for +-8.1 Gauss full-scale range
		Gauss_per_LSb = GAUSSPERLSB_8_1;		// set correct scale factor of Gauss per LSb (least significant bit).  The _lAccum data type implies it is times 2^24
    2fb4:	80 ef       	ldi	r24, 0xF0	; 240
    2fb6:	9c e1       	ldi	r25, 0x1C	; 28
    2fb8:	a1 e0       	ldi	r26, 0x01	; 1
    2fba:	b0 e0       	ldi	r27, 0x00	; 0
    2fbc:	8b 8f       	std	Y+27, r24	; 0x1b
    2fbe:	9c 8f       	std	Y+28, r25	; 0x1c
    2fc0:	ad 8f       	std	Y+29, r26	; 0x1d
    2fc2:	be 8f       	std	Y+30, r27	; 0x1e
    2fc4:	40 ee       	ldi	r20, 0xE0	; 224
    2fc6:	0a c0       	rjmp	.+20     	; 0x2fdc <_ZN7HMC588310InitializeEhhhh+0x1dc>
	default:									// if invalid value is specified
		write_value = MAGGAIN_SELDEFAULT << 5;	// set bits for default value
#if MAGGAIN_SELDEFAULT == MAGRANGE_SEL_0_88		// if default range is set to +-0.88Ga
		Gauss_per_LSb = GAUSSPERLSB_0_88;		// set correct scale factor of Gauss per LSb (least significant bit).  The _lAccum data type implies it is times 2^24
#elif MAGGAIN_SELDEFAULT == MAGRANGE_SEL_1_3	// if default range is set to +-1.3Ga
		Gauss_per_LSb = GAUSSPERLSB_1_3;		// set correct scale factor of Gauss per LSb (least significant bit).  The _lAccum data type implies it is times 2^24
    2fc8:	8f e1       	ldi	r24, 0x1F	; 31
    2fca:	9c e3       	ldi	r25, 0x3C	; 60
    2fcc:	a0 e0       	ldi	r26, 0x00	; 0
    2fce:	b0 e0       	ldi	r27, 0x00	; 0
    2fd0:	8b 8f       	std	Y+27, r24	; 0x1b
    2fd2:	9c 8f       	std	Y+28, r25	; 0x1c
    2fd4:	ad 8f       	std	Y+29, r26	; 0x1d
    2fd6:	be 8f       	std	Y+30, r27	; 0x1e
    2fd8:	ee 24       	eor	r14, r14
    2fda:	40 e2       	ldi	r20, 0x20	; 32
		Gauss_per_LSb = 0;						// set zero scale factor - no measurement.  This would imply the user set an invalid default value and an invalid initialization setting
#endif
		rtn = false;							// set return value to fale, indicating failure with selection
}

	write(CONFIGREGB,write_value);				// write specified value in config register B
    2fdc:	ce 01       	movw	r24, r28
    2fde:	61 e0       	ldi	r22, 0x01	; 1
    2fe0:	0e 94 ec 14 	call	0x29d8	; 0x29d8 <_ZN7HMC58835writeEhh>
	delay(50);									// wait 50 ms
    2fe4:	62 e3       	ldi	r22, 0x32	; 50
    2fe6:	70 e0       	ldi	r23, 0x00	; 0
    2fe8:	80 e0       	ldi	r24, 0x00	; 0
    2fea:	90 e0       	ldi	r25, 0x00	; 0
    2fec:	0e 94 c8 21 	call	0x4390	; 0x4390 <delay>

	// prepare to write selections in mode register
	write_value = CONTINUOUSCONVERSION;			// set mode to continuous conversion
	write(MODEREG,write_value);					// write specified value in mode register
    2ff0:	ce 01       	movw	r24, r28
    2ff2:	62 e0       	ldi	r22, 0x02	; 2
    2ff4:	40 e0       	ldi	r20, 0x00	; 0
    2ff6:	0e 94 ec 14 	call	0x29d8	; 0x29d8 <_ZN7HMC58835writeEhh>
	delay(50);									// wait 50 ms
    2ffa:	62 e3       	ldi	r22, 0x32	; 50
    2ffc:	70 e0       	ldi	r23, 0x00	; 0
    2ffe:	80 e0       	ldi	r24, 0x00	; 0
    3000:	90 e0       	ldi	r25, 0x00	; 0
    3002:	0e 94 c8 21 	call	0x4390	; 0x4390 <delay>

	// DRDY is connected to INT 1 on pin D3. Enable interrupt on INT1
	attachInterrupt(1,HMC5883_data_int,RISING);
    3006:	81 e0       	ldi	r24, 0x01	; 1
    3008:	61 e9       	ldi	r22, 0x91	; 145
    300a:	74 e1       	ldi	r23, 0x14	; 20
    300c:	43 e0       	ldi	r20, 0x03	; 3
    300e:	50 e0       	ldi	r21, 0x00	; 0
    3010:	0e 94 ce 20 	call	0x419c	; 0x419c <attachInterrupt>

	return rtn;									// return
}
    3014:	8e 2d       	mov	r24, r14
    3016:	df 91       	pop	r29
    3018:	cf 91       	pop	r28
    301a:	1f 91       	pop	r17
    301c:	0f 91       	pop	r16
    301e:	ff 90       	pop	r15
    3020:	ef 90       	pop	r14
    3022:	df 90       	pop	r13
    3024:	08 95       	ret

00003026 <loop>:

// The loop function is called in an endless loop
void loop()
{
//Add your repeated code here
	if (micros() - loopstarttime_us >= FASTLOOP_TIME_US)	// if fast loop sample time has elapsed
    3026:	0e 94 a2 21 	call	0x4344	; 0x4344 <micros>
    302a:	20 91 38 05 	lds	r18, 0x0538
    302e:	30 91 39 05 	lds	r19, 0x0539
    3032:	40 91 3a 05 	lds	r20, 0x053A
    3036:	50 91 3b 05 	lds	r21, 0x053B
    303a:	62 1b       	sub	r22, r18
    303c:	73 0b       	sbc	r23, r19
    303e:	84 0b       	sbc	r24, r20
    3040:	95 0b       	sbc	r25, r21
    3042:	60 51       	subi	r22, 0x10	; 16
    3044:	77 42       	sbci	r23, 0x27	; 39
    3046:	80 40       	sbci	r24, 0x00	; 0
    3048:	90 40       	sbci	r25, 0x00	; 0
    304a:	30 f1       	brcs	.+76     	; 0x3098 <loop+0x72>
	{
		loopdeltatime_us = micros() - loopstarttime_us;			// store amount of time elapsed since beginning last loop
    304c:	0e 94 a2 21 	call	0x4344	; 0x4344 <micros>
    3050:	20 91 38 05 	lds	r18, 0x0538
    3054:	30 91 39 05 	lds	r19, 0x0539
    3058:	40 91 3a 05 	lds	r20, 0x053A
    305c:	50 91 3b 05 	lds	r21, 0x053B
    3060:	62 1b       	sub	r22, r18
    3062:	73 0b       	sbc	r23, r19
    3064:	84 0b       	sbc	r24, r20
    3066:	95 0b       	sbc	r25, r21
    3068:	60 93 3c 05 	sts	0x053C, r22
    306c:	70 93 3d 05 	sts	0x053D, r23
    3070:	80 93 3e 05 	sts	0x053E, r24
    3074:	90 93 3f 05 	sts	0x053F, r25
		loopstarttime_us = micros();							// begin new loop iteration, and record new starting time
    3078:	0e 94 a2 21 	call	0x4344	; 0x4344 <micros>
    307c:	60 93 38 05 	sts	0x0538, r22
    3080:	70 93 39 05 	sts	0x0539, r23
    3084:	80 93 3a 05 	sts	0x053A, r24
    3088:	90 93 3b 05 	sts	0x053B, r25

#ifdef DEBUG_MAGNETOMETER
		Debug_Mag_Messages();	// print magnetometer debug messages
#endif

		CheckForData();					// check for new data
    308c:	0e 94 d1 1c 	call	0x39a2	; 0x39a2 <_Z12CheckForDatav>
		Calculate_Kalman_Estimates();	// Calculate all Kalman filter state estimates
    3090:	0e 94 8c 1b 	call	0x3718	; 0x3718 <_Z26Calculate_Kalman_Estimatesv>

#ifdef DEBUG_PRINTFILTEROUTS
		Print_Filter_Debug_Out();		// print filter debugging output messages
    3094:	0e 94 5d 19 	call	0x32ba	; 0x32ba <_Z22Print_Filter_Debug_Outv>
    3098:	08 95       	ret

0000309a <setup>:

// Do not remove the include below
#include "Imu_Kalman.h"

//The setup function is called once at startup of the sketch
void setup()
    309a:	4f 92       	push	r4
    309c:	5f 92       	push	r5
    309e:	6f 92       	push	r6
    30a0:	7f 92       	push	r7
    30a2:	8f 92       	push	r8
    30a4:	9f 92       	push	r9
    30a6:	af 92       	push	r10
    30a8:	bf 92       	push	r11
    30aa:	cf 92       	push	r12
    30ac:	df 92       	push	r13
    30ae:	ef 92       	push	r14
    30b0:	ff 92       	push	r15
    30b2:	0f 93       	push	r16
    30b4:	1f 93       	push	r17
{
// Add your initialization code here
	Serial.begin(SERIAL_DATARATE);
    30b6:	87 e0       	ldi	r24, 0x07	; 7
    30b8:	96 e0       	ldi	r25, 0x06	; 6
    30ba:	40 e0       	ldi	r20, 0x00	; 0
    30bc:	56 e9       	ldi	r21, 0x96	; 150
    30be:	60 e0       	ldi	r22, 0x00	; 0
    30c0:	70 e0       	ldi	r23, 0x00	; 0
    30c2:	0e 94 05 1e 	call	0x3c0a	; 0x3c0a <_ZN14HardwareSerial5beginEm>

	if (Mpu6000.Initialize(	400,
    30c6:	82 e1       	ldi	r24, 0x12	; 18
    30c8:	94 e0       	ldi	r25, 0x04	; 4
    30ca:	60 e9       	ldi	r22, 0x90	; 144
    30cc:	71 e0       	ldi	r23, 0x01	; 1
    30ce:	40 e0       	ldi	r20, 0x00	; 0
    30d0:	22 e0       	ldi	r18, 0x02	; 2
    30d2:	01 e0       	ldi	r16, 0x01	; 1
    30d4:	0e 94 08 0c 	call	0x1810	; 0x1810 <_ZN7MPU600010InitializeEjhhh>
    30d8:	88 23       	and	r24, r24
    30da:	29 f0       	breq	.+10     	; 0x30e6 <setup+0x4c>
						SEL_DLPF_DIS,
						SEL_GYRO_1000,
						SEL_ACCEL_4))				// initialize MPU6000 with 400 Hz sample rate, no low pass filter, +-1000 dps gyro scale, and +- 4g accel scale
	{
		Serial.println("Succesfully Initialized the MPU6000");
    30dc:	87 e0       	ldi	r24, 0x07	; 7
    30de:	96 e0       	ldi	r25, 0x06	; 6
    30e0:	60 e0       	ldi	r22, 0x00	; 0
    30e2:	71 e0       	ldi	r23, 0x01	; 1
    30e4:	04 c0       	rjmp	.+8      	; 0x30ee <setup+0x54>
	}
	else
	{
		Serial.println("Failed to Initialize the MPU6000");
    30e6:	87 e0       	ldi	r24, 0x07	; 7
    30e8:	96 e0       	ldi	r25, 0x06	; 6
    30ea:	64 e2       	ldi	r22, 0x24	; 36
    30ec:	71 e0       	ldi	r23, 0x01	; 1
    30ee:	0e 94 bb 20 	call	0x4176	; 0x4176 <_ZN5Print7printlnEPKc>
	}
	Mpu6000.Set_Gyro_Offsets(	GYRO_OFFSET_X,
								GYRO_OFFSET_Y,
								GYRO_OFFSET_Z);		// set gyroscope offsets
    30f2:	82 e1       	ldi	r24, 0x12	; 18
    30f4:	94 e0       	ldi	r25, 0x04	; 4
    30f6:	40 e0       	ldi	r20, 0x00	; 0
    30f8:	50 e0       	ldi	r21, 0x00	; 0
    30fa:	60 e0       	ldi	r22, 0x00	; 0
    30fc:	70 e0       	ldi	r23, 0x00	; 0
    30fe:	00 e0       	ldi	r16, 0x00	; 0
    3100:	10 e0       	ldi	r17, 0x00	; 0
    3102:	20 e0       	ldi	r18, 0x00	; 0
    3104:	30 e0       	ldi	r19, 0x00	; 0
    3106:	cc 24       	eor	r12, r12
    3108:	dd 24       	eor	r13, r13
    310a:	76 01       	movw	r14, r12
    310c:	0e 94 77 08 	call	0x10ee	; 0x10ee <_ZN7MPU600016Set_Gyro_OffsetsElll>
	Mpu6000.Set_Accel_Offsets(	ACCEL_OFFSET_X,
								ACCEL_OFFSET_Y,
								ACCEL_OFFSET_Z);	// set accelerometer offsets
    3110:	82 e1       	ldi	r24, 0x12	; 18
    3112:	94 e0       	ldi	r25, 0x04	; 4
    3114:	40 e0       	ldi	r20, 0x00	; 0
    3116:	50 e0       	ldi	r21, 0x00	; 0
    3118:	60 e0       	ldi	r22, 0x00	; 0
    311a:	70 e0       	ldi	r23, 0x00	; 0
    311c:	00 e0       	ldi	r16, 0x00	; 0
    311e:	10 e0       	ldi	r17, 0x00	; 0
    3120:	20 e0       	ldi	r18, 0x00	; 0
    3122:	30 e0       	ldi	r19, 0x00	; 0
    3124:	0e 94 91 08 	call	0x1122	; 0x1122 <_ZN7MPU600017Set_Accel_OffsetsElll>
	if (Hmc5883.Initialize(	SAMPLEAVERAGING_SEL_8,
    3128:	80 e1       	ldi	r24, 0x10	; 16
    312a:	95 e0       	ldi	r25, 0x05	; 5
    312c:	63 e0       	ldi	r22, 0x03	; 3
    312e:	46 e0       	ldi	r20, 0x06	; 6
    3130:	20 e0       	ldi	r18, 0x00	; 0
    3132:	01 e0       	ldi	r16, 0x01	; 1
    3134:	0e 94 00 17 	call	0x2e00	; 0x2e00 <_ZN7HMC588310InitializeEhhhh>
    3138:	88 23       	and	r24, r24
    313a:	29 f0       	breq	.+10     	; 0x3146 <setup+0xac>
						DATAOUTPUTSEL_75HZ,
						NORMALOPERATION_SEL,
						MAGRANGE_SEL_1_3))			// initialize HMC5883 with 8 sample averaging, 75 Hz data rate, normal (no bias) operation, and +-1.3 gauss scale
	{
		Serial.println("Succesfully Initialized the HMC5883");
    313c:	87 e0       	ldi	r24, 0x07	; 7
    313e:	96 e0       	ldi	r25, 0x06	; 6
    3140:	65 e4       	ldi	r22, 0x45	; 69
    3142:	71 e0       	ldi	r23, 0x01	; 1
    3144:	04 c0       	rjmp	.+8      	; 0x314e <setup+0xb4>
	}
	else
	{
		Serial.println("Failed to Initialize the HMC5883");
    3146:	87 e0       	ldi	r24, 0x07	; 7
    3148:	96 e0       	ldi	r25, 0x06	; 6
    314a:	69 e6       	ldi	r22, 0x69	; 105
    314c:	71 e0       	ldi	r23, 0x01	; 1
    314e:	0e 94 bb 20 	call	0x4176	; 0x4176 <_ZN5Print7printlnEPKc>
	}
	Hmc5883.set_offset(	MAG_OFFSET_X,
						MAG_OFFSET_Y,
						MAG_OFFSET_Z);				// set magnetic sensor offset values
    3152:	80 e1       	ldi	r24, 0x10	; 16
    3154:	95 e0       	ldi	r25, 0x05	; 5
    3156:	40 e0       	ldi	r20, 0x00	; 0
    3158:	50 e0       	ldi	r21, 0x00	; 0
    315a:	60 e0       	ldi	r22, 0x00	; 0
    315c:	70 e0       	ldi	r23, 0x00	; 0
    315e:	00 e0       	ldi	r16, 0x00	; 0
    3160:	10 e0       	ldi	r17, 0x00	; 0
    3162:	20 e0       	ldi	r18, 0x00	; 0
    3164:	30 e0       	ldi	r19, 0x00	; 0
    3166:	cc 24       	eor	r12, r12
    3168:	dd 24       	eor	r13, r13
    316a:	76 01       	movw	r14, r12
    316c:	0e 94 7a 14 	call	0x28f4	; 0x28f4 <_ZN7HMC588310set_offsetElll>
	Hmc5883.set_mag_declination(MAG_DECLINATION);	// set magnetic declination (difference between true and magnetic north)
    3170:	80 e1       	ldi	r24, 0x10	; 16
    3172:	95 e0       	ldi	r25, 0x05	; 5
    3174:	40 e0       	ldi	r20, 0x00	; 0
    3176:	50 e0       	ldi	r21, 0x00	; 0
    3178:	60 e0       	ldi	r22, 0x00	; 0
    317a:	70 e0       	ldi	r23, 0x00	; 0
    317c:	0e 94 88 14 	call	0x2910	; 0x2910 <_ZN7HMC588319set_mag_declinationEl>
								XGYRO_ANGLEOBSVAR,
								XGYRO_RATEOBSVAR,
								XGYRO_INITIALANGLE,
								XGYRO_INITIALRATE,
								XGYRO_ANGLEESTVAR,
								XGYRO_RATEESTVAR);	// Initialize the x-axis gyroscopic kalman filter
    3180:	8d b7       	in	r24, 0x3d	; 61
    3182:	9e b7       	in	r25, 0x3e	; 62
    3184:	40 97       	sbiw	r24, 0x10	; 16
    3186:	0f b6       	in	r0, 0x3f	; 63
    3188:	f8 94       	cli
    318a:	9e bf       	out	0x3e, r25	; 62
    318c:	0f be       	out	0x3f, r0	; 63
    318e:	8d bf       	out	0x3d, r24	; 61
    3190:	ed b7       	in	r30, 0x3d	; 61
    3192:	fe b7       	in	r31, 0x3e	; 62
    3194:	31 96       	adiw	r30, 0x01	; 1
    3196:	ad b7       	in	r26, 0x3d	; 61
    3198:	be b7       	in	r27, 0x3e	; 62
    319a:	11 96       	adiw	r26, 0x01	; 1
    319c:	1d 92       	st	X+, r1
    319e:	1d 92       	st	X+, r1
    31a0:	1d 92       	st	X+, r1
    31a2:	1c 92       	st	X, r1
    31a4:	14 97       	sbiw	r26, 0x04	; 4
    31a6:	14 82       	std	Z+4, r1	; 0x04
    31a8:	15 82       	std	Z+5, r1	; 0x05
    31aa:	16 82       	std	Z+6, r1	; 0x06
    31ac:	17 82       	std	Z+7, r1	; 0x07
    31ae:	41 2c       	mov	r4, r1
    31b0:	51 2c       	mov	r5, r1
    31b2:	a0 e4       	ldi	r26, 0x40	; 64
    31b4:	6a 2e       	mov	r6, r26
    31b6:	71 2c       	mov	r7, r1
    31b8:	40 86       	std	Z+8, r4	; 0x08
    31ba:	51 86       	std	Z+9, r5	; 0x09
    31bc:	62 86       	std	Z+10, r6	; 0x0a
    31be:	73 86       	std	Z+11, r7	; 0x0b
    31c0:	44 86       	std	Z+12, r4	; 0x0c
    31c2:	55 86       	std	Z+13, r5	; 0x0d
    31c4:	66 86       	std	Z+14, r6	; 0x0e
    31c6:	77 86       	std	Z+15, r7	; 0x0f
    31c8:	80 e5       	ldi	r24, 0x50	; 80
    31ca:	94 e0       	ldi	r25, 0x04	; 4
    31cc:	40 e0       	ldi	r20, 0x00	; 0
    31ce:	50 e0       	ldi	r21, 0x00	; 0
    31d0:	60 e4       	ldi	r22, 0x40	; 64
    31d2:	70 e0       	ldi	r23, 0x00	; 0
    31d4:	00 e0       	ldi	r16, 0x00	; 0
    31d6:	10 e0       	ldi	r17, 0x00	; 0
    31d8:	20 e4       	ldi	r18, 0x40	; 64
    31da:	30 e0       	ldi	r19, 0x00	; 0
    31dc:	c1 2c       	mov	r12, r1
    31de:	d1 2c       	mov	r13, r1
    31e0:	f0 e4       	ldi	r31, 0x40	; 64
    31e2:	ef 2e       	mov	r14, r31
    31e4:	f1 2c       	mov	r15, r1
    31e6:	81 2c       	mov	r8, r1
    31e8:	91 2c       	mov	r9, r1
    31ea:	e0 e4       	ldi	r30, 0x40	; 64
    31ec:	ae 2e       	mov	r10, r30
    31ee:	b1 2c       	mov	r11, r1
    31f0:	0e 94 81 0d 	call	0x1b02	; 0x1b02 <_ZN10GyroKalman10InitializeEllllllll>
								YGYRO_ANGLEOBSVAR,
								YGYRO_RATEOBSVAR,
								YGYRO_INITIALANGLE,
								YGYRO_INITIALRATE,
								YGYRO_ANGLEESTVAR,
								YGYRO_RATEESTVAR);	// Initialize the y-axis gyroscopic kalman filter
    31f4:	ed b7       	in	r30, 0x3d	; 61
    31f6:	fe b7       	in	r31, 0x3e	; 62
    31f8:	31 96       	adiw	r30, 0x01	; 1
    31fa:	ad b7       	in	r26, 0x3d	; 61
    31fc:	be b7       	in	r27, 0x3e	; 62
    31fe:	11 96       	adiw	r26, 0x01	; 1
    3200:	1d 92       	st	X+, r1
    3202:	1d 92       	st	X+, r1
    3204:	1d 92       	st	X+, r1
    3206:	1c 92       	st	X, r1
    3208:	14 97       	sbiw	r26, 0x04	; 4
    320a:	14 82       	std	Z+4, r1	; 0x04
    320c:	15 82       	std	Z+5, r1	; 0x05
    320e:	16 82       	std	Z+6, r1	; 0x06
    3210:	17 82       	std	Z+7, r1	; 0x07
    3212:	40 86       	std	Z+8, r4	; 0x08
    3214:	51 86       	std	Z+9, r5	; 0x09
    3216:	62 86       	std	Z+10, r6	; 0x0a
    3218:	73 86       	std	Z+11, r7	; 0x0b
    321a:	44 86       	std	Z+12, r4	; 0x0c
    321c:	55 86       	std	Z+13, r5	; 0x0d
    321e:	66 86       	std	Z+14, r6	; 0x0e
    3220:	77 86       	std	Z+15, r7	; 0x0f
    3222:	80 e9       	ldi	r24, 0x90	; 144
    3224:	94 e0       	ldi	r25, 0x04	; 4
    3226:	40 e0       	ldi	r20, 0x00	; 0
    3228:	50 e0       	ldi	r21, 0x00	; 0
    322a:	60 e4       	ldi	r22, 0x40	; 64
    322c:	70 e0       	ldi	r23, 0x00	; 0
    322e:	00 e0       	ldi	r16, 0x00	; 0
    3230:	10 e0       	ldi	r17, 0x00	; 0
    3232:	20 e4       	ldi	r18, 0x40	; 64
    3234:	30 e0       	ldi	r19, 0x00	; 0
    3236:	0e 94 81 0d 	call	0x1b02	; 0x1b02 <_ZN10GyroKalman10InitializeEllllllll>
								ZGYRO_ANGLEOBSVAR,
								ZGYRO_RATEOBSVAR,
								ZGYRO_INITIALANGLE,
								ZGYRO_INITIALRATE,
								ZGYRO_ANGLEESTVAR,
								ZGYRO_RATEESTVAR);	// Initialize the z-axis gyroscopic kalman filter
    323a:	ed b7       	in	r30, 0x3d	; 61
    323c:	fe b7       	in	r31, 0x3e	; 62
    323e:	31 96       	adiw	r30, 0x01	; 1
    3240:	ad b7       	in	r26, 0x3d	; 61
    3242:	be b7       	in	r27, 0x3e	; 62
    3244:	11 96       	adiw	r26, 0x01	; 1
    3246:	1d 92       	st	X+, r1
    3248:	1d 92       	st	X+, r1
    324a:	1d 92       	st	X+, r1
    324c:	1c 92       	st	X, r1
    324e:	14 97       	sbiw	r26, 0x04	; 4
    3250:	14 82       	std	Z+4, r1	; 0x04
    3252:	15 82       	std	Z+5, r1	; 0x05
    3254:	16 82       	std	Z+6, r1	; 0x06
    3256:	17 82       	std	Z+7, r1	; 0x07
    3258:	40 86       	std	Z+8, r4	; 0x08
    325a:	51 86       	std	Z+9, r5	; 0x09
    325c:	62 86       	std	Z+10, r6	; 0x0a
    325e:	73 86       	std	Z+11, r7	; 0x0b
    3260:	44 86       	std	Z+12, r4	; 0x0c
    3262:	55 86       	std	Z+13, r5	; 0x0d
    3264:	66 86       	std	Z+14, r6	; 0x0e
    3266:	77 86       	std	Z+15, r7	; 0x0f
    3268:	80 ed       	ldi	r24, 0xD0	; 208
    326a:	94 e0       	ldi	r25, 0x04	; 4
    326c:	40 e0       	ldi	r20, 0x00	; 0
    326e:	50 e0       	ldi	r21, 0x00	; 0
    3270:	60 e4       	ldi	r22, 0x40	; 64
    3272:	70 e0       	ldi	r23, 0x00	; 0
    3274:	00 e0       	ldi	r16, 0x00	; 0
    3276:	10 e0       	ldi	r17, 0x00	; 0
    3278:	20 e4       	ldi	r18, 0x40	; 64
    327a:	30 e0       	ldi	r19, 0x00	; 0
    327c:	0e 94 81 0d 	call	0x1b02	; 0x1b02 <_ZN10GyroKalman10InitializeEllllllll>
	Serial.println("");
    3280:	8d b7       	in	r24, 0x3d	; 61
    3282:	9e b7       	in	r25, 0x3e	; 62
    3284:	40 96       	adiw	r24, 0x10	; 16
    3286:	0f b6       	in	r0, 0x3f	; 63
    3288:	f8 94       	cli
    328a:	9e bf       	out	0x3e, r25	; 62
    328c:	0f be       	out	0x3f, r0	; 63
    328e:	8d bf       	out	0x3d, r24	; 61
    3290:	87 e0       	ldi	r24, 0x07	; 7
    3292:	96 e0       	ldi	r25, 0x06	; 6
    3294:	6a e8       	ldi	r22, 0x8A	; 138
    3296:	71 e0       	ldi	r23, 0x01	; 1
    3298:	0e 94 bb 20 	call	0x4176	; 0x4176 <_ZN5Print7printlnEPKc>
}
    329c:	1f 91       	pop	r17
    329e:	0f 91       	pop	r16
    32a0:	ff 90       	pop	r15
    32a2:	ef 90       	pop	r14
    32a4:	df 90       	pop	r13
    32a6:	cf 90       	pop	r12
    32a8:	bf 90       	pop	r11
    32aa:	af 90       	pop	r10
    32ac:	9f 90       	pop	r9
    32ae:	8f 90       	pop	r8
    32b0:	7f 90       	pop	r7
    32b2:	6f 90       	pop	r6
    32b4:	5f 90       	pop	r5
    32b6:	4f 90       	pop	r4
    32b8:	08 95       	ret

000032ba <_Z22Print_Filter_Debug_Outv>:
 * Description:	print filter debugging output messages
 */
void Print_Filter_Debug_Out(void){
	static byte i = 0;			// counter variable

	if (++i >= 50)				// if this is the tenth time this function has been called
    32ba:	80 91 7e 05 	lds	r24, 0x057E
    32be:	8f 5f       	subi	r24, 0xFF	; 255
    32c0:	80 93 7e 05 	sts	0x057E, r24
    32c4:	82 33       	cpi	r24, 0x32	; 50
    32c6:	08 f4       	brcc	.+2      	; 0x32ca <_Z22Print_Filter_Debug_Outv+0x10>
    32c8:	26 c2       	rjmp	.+1100   	; 0x3716 <_Z22Print_Filter_Debug_Outv+0x45c>
	{
		i = 0;					// reset counter
    32ca:	10 92 7e 05 	sts	0x057E, r1

		Serial.println("TimeStep (us)\t\tRaw Rollrate (deg/s)\t\tRaw Pitchrate (deg/s)\t\tRaw Yawrate (deg/s)\t\tRaw Roll (deg)\t\tRaw Pitch (deg)\t\tRaw Yaw (deg)\t\tFilt Rollrate (deg/s)\t\tFilt Pitchrate (deg/s)\t\tFilt Yawrate (deg/s)\t\tFilt Roll (deg)\t\tFilt Pitch (deg)\t\tFilt Yaw (deg)");
    32ce:	87 e0       	ldi	r24, 0x07	; 7
    32d0:	96 e0       	ldi	r25, 0x06	; 6
    32d2:	6b e8       	ldi	r22, 0x8B	; 139
    32d4:	71 e0       	ldi	r23, 0x01	; 1
    32d6:	0e 94 bb 20 	call	0x4176	; 0x4176 <_ZN5Print7printlnEPKc>
		Serial.print(loopdeltatime_us,DEC);
    32da:	40 91 3c 05 	lds	r20, 0x053C
    32de:	50 91 3d 05 	lds	r21, 0x053D
    32e2:	60 91 3e 05 	lds	r22, 0x053E
    32e6:	70 91 3f 05 	lds	r23, 0x053F
    32ea:	87 e0       	ldi	r24, 0x07	; 7
    32ec:	96 e0       	ldi	r25, 0x06	; 6
    32ee:	2a e0       	ldi	r18, 0x0A	; 10
    32f0:	30 e0       	ldi	r19, 0x00	; 0
    32f2:	0e 94 56 20 	call	0x40ac	; 0x40ac <_ZN5Print5printEmi>
		Serial.print("\t\t\t\t\t\t");
    32f6:	87 e0       	ldi	r24, 0x07	; 7
    32f8:	96 e0       	ldi	r25, 0x06	; 6
    32fa:	63 e8       	ldi	r22, 0x83	; 131
    32fc:	72 e0       	ldi	r23, 0x02	; 2
    32fe:	0e 94 b8 20 	call	0x4170	; 0x4170 <_ZN5Print5printEPKc>
		Serial.print((int)(((rollrate_meas>>15)*((long)29335))>>18),DEC);
    3302:	60 91 42 05 	lds	r22, 0x0542
    3306:	70 91 43 05 	lds	r23, 0x0543
    330a:	80 91 44 05 	lds	r24, 0x0544
    330e:	90 91 45 05 	lds	r25, 0x0545
    3312:	af e0       	ldi	r26, 0x0F	; 15
    3314:	95 95       	asr	r25
    3316:	87 95       	ror	r24
    3318:	77 95       	ror	r23
    331a:	67 95       	ror	r22
    331c:	aa 95       	dec	r26
    331e:	d1 f7       	brne	.-12     	; 0x3314 <_Z22Print_Filter_Debug_Outv+0x5a>
    3320:	27 e9       	ldi	r18, 0x97	; 151
    3322:	32 e7       	ldi	r19, 0x72	; 114
    3324:	40 e0       	ldi	r20, 0x00	; 0
    3326:	50 e0       	ldi	r21, 0x00	; 0
    3328:	0e 94 ef 22 	call	0x45de	; 0x45de <__mulsi3>
    332c:	9b 01       	movw	r18, r22
    332e:	ac 01       	movw	r20, r24
    3330:	f2 e1       	ldi	r31, 0x12	; 18
    3332:	55 95       	asr	r21
    3334:	47 95       	ror	r20
    3336:	37 95       	ror	r19
    3338:	27 95       	ror	r18
    333a:	fa 95       	dec	r31
    333c:	d1 f7       	brne	.-12     	; 0x3332 <_Z22Print_Filter_Debug_Outv+0x78>
    333e:	87 e0       	ldi	r24, 0x07	; 7
    3340:	96 e0       	ldi	r25, 0x06	; 6
    3342:	b9 01       	movw	r22, r18
    3344:	4a e0       	ldi	r20, 0x0A	; 10
    3346:	50 e0       	ldi	r21, 0x00	; 0
    3348:	0e 94 a5 20 	call	0x414a	; 0x414a <_ZN5Print5printEii>
		Serial.print("\t\t\t\t\t\t\t\t\t\t\t");
    334c:	87 e0       	ldi	r24, 0x07	; 7
    334e:	96 e0       	ldi	r25, 0x06	; 6
    3350:	6a e8       	ldi	r22, 0x8A	; 138
    3352:	72 e0       	ldi	r23, 0x02	; 2
    3354:	0e 94 b8 20 	call	0x4170	; 0x4170 <_ZN5Print5printEPKc>
		Serial.print((int)(((pitchrate_meas>>15)*((long)29335))>>18),DEC);
    3358:	60 91 46 05 	lds	r22, 0x0546
    335c:	70 91 47 05 	lds	r23, 0x0547
    3360:	80 91 48 05 	lds	r24, 0x0548
    3364:	90 91 49 05 	lds	r25, 0x0549
    3368:	ef e0       	ldi	r30, 0x0F	; 15
    336a:	95 95       	asr	r25
    336c:	87 95       	ror	r24
    336e:	77 95       	ror	r23
    3370:	67 95       	ror	r22
    3372:	ea 95       	dec	r30
    3374:	d1 f7       	brne	.-12     	; 0x336a <_Z22Print_Filter_Debug_Outv+0xb0>
    3376:	27 e9       	ldi	r18, 0x97	; 151
    3378:	32 e7       	ldi	r19, 0x72	; 114
    337a:	40 e0       	ldi	r20, 0x00	; 0
    337c:	50 e0       	ldi	r21, 0x00	; 0
    337e:	0e 94 ef 22 	call	0x45de	; 0x45de <__mulsi3>
    3382:	9b 01       	movw	r18, r22
    3384:	ac 01       	movw	r20, r24
    3386:	62 e1       	ldi	r22, 0x12	; 18
    3388:	55 95       	asr	r21
    338a:	47 95       	ror	r20
    338c:	37 95       	ror	r19
    338e:	27 95       	ror	r18
    3390:	6a 95       	dec	r22
    3392:	d1 f7       	brne	.-12     	; 0x3388 <_Z22Print_Filter_Debug_Outv+0xce>
    3394:	87 e0       	ldi	r24, 0x07	; 7
    3396:	96 e0       	ldi	r25, 0x06	; 6
    3398:	b9 01       	movw	r22, r18
    339a:	4a e0       	ldi	r20, 0x0A	; 10
    339c:	50 e0       	ldi	r21, 0x00	; 0
    339e:	0e 94 a5 20 	call	0x414a	; 0x414a <_ZN5Print5printEii>
		Serial.print("\t\t\t\t\t\t\t\t\t\t\t");
    33a2:	87 e0       	ldi	r24, 0x07	; 7
    33a4:	96 e0       	ldi	r25, 0x06	; 6
    33a6:	6a e8       	ldi	r22, 0x8A	; 138
    33a8:	72 e0       	ldi	r23, 0x02	; 2
    33aa:	0e 94 b8 20 	call	0x4170	; 0x4170 <_ZN5Print5printEPKc>
		Serial.print((int)(((yawrate_meas>>15)*((long)29335))>>18),DEC);
    33ae:	60 91 4a 05 	lds	r22, 0x054A
    33b2:	70 91 4b 05 	lds	r23, 0x054B
    33b6:	80 91 4c 05 	lds	r24, 0x054C
    33ba:	90 91 4d 05 	lds	r25, 0x054D
    33be:	2f e0       	ldi	r18, 0x0F	; 15
    33c0:	95 95       	asr	r25
    33c2:	87 95       	ror	r24
    33c4:	77 95       	ror	r23
    33c6:	67 95       	ror	r22
    33c8:	2a 95       	dec	r18
    33ca:	d1 f7       	brne	.-12     	; 0x33c0 <_Z22Print_Filter_Debug_Outv+0x106>
    33cc:	27 e9       	ldi	r18, 0x97	; 151
    33ce:	32 e7       	ldi	r19, 0x72	; 114
    33d0:	40 e0       	ldi	r20, 0x00	; 0
    33d2:	50 e0       	ldi	r21, 0x00	; 0
    33d4:	0e 94 ef 22 	call	0x45de	; 0x45de <__mulsi3>
    33d8:	9b 01       	movw	r18, r22
    33da:	ac 01       	movw	r20, r24
    33dc:	b2 e1       	ldi	r27, 0x12	; 18
    33de:	55 95       	asr	r21
    33e0:	47 95       	ror	r20
    33e2:	37 95       	ror	r19
    33e4:	27 95       	ror	r18
    33e6:	ba 95       	dec	r27
    33e8:	d1 f7       	brne	.-12     	; 0x33de <_Z22Print_Filter_Debug_Outv+0x124>
    33ea:	87 e0       	ldi	r24, 0x07	; 7
    33ec:	96 e0       	ldi	r25, 0x06	; 6
    33ee:	b9 01       	movw	r22, r18
    33f0:	4a e0       	ldi	r20, 0x0A	; 10
    33f2:	50 e0       	ldi	r21, 0x00	; 0
    33f4:	0e 94 a5 20 	call	0x414a	; 0x414a <_ZN5Print5printEii>
		Serial.print("\t\t\t\t\t\t\t\t\t\t\t");
    33f8:	87 e0       	ldi	r24, 0x07	; 7
    33fa:	96 e0       	ldi	r25, 0x06	; 6
    33fc:	6a e8       	ldi	r22, 0x8A	; 138
    33fe:	72 e0       	ldi	r23, 0x02	; 2
    3400:	0e 94 b8 20 	call	0x4170	; 0x4170 <_ZN5Print5printEPKc>
		Serial.print((int)(((roll_fromAccel>>15)*((long)29335))>>18),DEC);
    3404:	60 91 5a 05 	lds	r22, 0x055A
    3408:	70 91 5b 05 	lds	r23, 0x055B
    340c:	80 91 5c 05 	lds	r24, 0x055C
    3410:	90 91 5d 05 	lds	r25, 0x055D
    3414:	af e0       	ldi	r26, 0x0F	; 15
    3416:	95 95       	asr	r25
    3418:	87 95       	ror	r24
    341a:	77 95       	ror	r23
    341c:	67 95       	ror	r22
    341e:	aa 95       	dec	r26
    3420:	d1 f7       	brne	.-12     	; 0x3416 <_Z22Print_Filter_Debug_Outv+0x15c>
    3422:	27 e9       	ldi	r18, 0x97	; 151
    3424:	32 e7       	ldi	r19, 0x72	; 114
    3426:	40 e0       	ldi	r20, 0x00	; 0
    3428:	50 e0       	ldi	r21, 0x00	; 0
    342a:	0e 94 ef 22 	call	0x45de	; 0x45de <__mulsi3>
    342e:	9b 01       	movw	r18, r22
    3430:	ac 01       	movw	r20, r24
    3432:	f2 e1       	ldi	r31, 0x12	; 18
    3434:	55 95       	asr	r21
    3436:	47 95       	ror	r20
    3438:	37 95       	ror	r19
    343a:	27 95       	ror	r18
    343c:	fa 95       	dec	r31
    343e:	d1 f7       	brne	.-12     	; 0x3434 <_Z22Print_Filter_Debug_Outv+0x17a>
    3440:	87 e0       	ldi	r24, 0x07	; 7
    3442:	96 e0       	ldi	r25, 0x06	; 6
    3444:	b9 01       	movw	r22, r18
    3446:	4a e0       	ldi	r20, 0x0A	; 10
    3448:	50 e0       	ldi	r21, 0x00	; 0
    344a:	0e 94 a5 20 	call	0x414a	; 0x414a <_ZN5Print5printEii>
		Serial.print("\t\t\t\t\t\t\t\t");
    344e:	87 e0       	ldi	r24, 0x07	; 7
    3450:	96 e0       	ldi	r25, 0x06	; 6
    3452:	66 e9       	ldi	r22, 0x96	; 150
    3454:	72 e0       	ldi	r23, 0x02	; 2
    3456:	0e 94 b8 20 	call	0x4170	; 0x4170 <_ZN5Print5printEPKc>
		Serial.print((int)(((pitch_fromAccel>>15)*((long)29335))>>18),DEC);
    345a:	60 91 5e 05 	lds	r22, 0x055E
    345e:	70 91 5f 05 	lds	r23, 0x055F
    3462:	80 91 60 05 	lds	r24, 0x0560
    3466:	90 91 61 05 	lds	r25, 0x0561
    346a:	ef e0       	ldi	r30, 0x0F	; 15
    346c:	95 95       	asr	r25
    346e:	87 95       	ror	r24
    3470:	77 95       	ror	r23
    3472:	67 95       	ror	r22
    3474:	ea 95       	dec	r30
    3476:	d1 f7       	brne	.-12     	; 0x346c <_Z22Print_Filter_Debug_Outv+0x1b2>
    3478:	27 e9       	ldi	r18, 0x97	; 151
    347a:	32 e7       	ldi	r19, 0x72	; 114
    347c:	40 e0       	ldi	r20, 0x00	; 0
    347e:	50 e0       	ldi	r21, 0x00	; 0
    3480:	0e 94 ef 22 	call	0x45de	; 0x45de <__mulsi3>
    3484:	9b 01       	movw	r18, r22
    3486:	ac 01       	movw	r20, r24
    3488:	62 e1       	ldi	r22, 0x12	; 18
    348a:	55 95       	asr	r21
    348c:	47 95       	ror	r20
    348e:	37 95       	ror	r19
    3490:	27 95       	ror	r18
    3492:	6a 95       	dec	r22
    3494:	d1 f7       	brne	.-12     	; 0x348a <_Z22Print_Filter_Debug_Outv+0x1d0>
    3496:	87 e0       	ldi	r24, 0x07	; 7
    3498:	96 e0       	ldi	r25, 0x06	; 6
    349a:	b9 01       	movw	r22, r18
    349c:	4a e0       	ldi	r20, 0x0A	; 10
    349e:	50 e0       	ldi	r21, 0x00	; 0
    34a0:	0e 94 a5 20 	call	0x414a	; 0x414a <_ZN5Print5printEii>
		Serial.print("\t\t\t\t\t\t\t\t");
    34a4:	87 e0       	ldi	r24, 0x07	; 7
    34a6:	96 e0       	ldi	r25, 0x06	; 6
    34a8:	66 e9       	ldi	r22, 0x96	; 150
    34aa:	72 e0       	ldi	r23, 0x02	; 2
    34ac:	0e 94 b8 20 	call	0x4170	; 0x4170 <_ZN5Print5printEPKc>
		Serial.print((int)(((heading_rad>>15)*((long)29335))>>18),DEC);
    34b0:	60 91 62 05 	lds	r22, 0x0562
    34b4:	70 91 63 05 	lds	r23, 0x0563
    34b8:	80 91 64 05 	lds	r24, 0x0564
    34bc:	90 91 65 05 	lds	r25, 0x0565
    34c0:	2f e0       	ldi	r18, 0x0F	; 15
    34c2:	95 95       	asr	r25
    34c4:	87 95       	ror	r24
    34c6:	77 95       	ror	r23
    34c8:	67 95       	ror	r22
    34ca:	2a 95       	dec	r18
    34cc:	d1 f7       	brne	.-12     	; 0x34c2 <_Z22Print_Filter_Debug_Outv+0x208>
    34ce:	27 e9       	ldi	r18, 0x97	; 151
    34d0:	32 e7       	ldi	r19, 0x72	; 114
    34d2:	40 e0       	ldi	r20, 0x00	; 0
    34d4:	50 e0       	ldi	r21, 0x00	; 0
    34d6:	0e 94 ef 22 	call	0x45de	; 0x45de <__mulsi3>
    34da:	9b 01       	movw	r18, r22
    34dc:	ac 01       	movw	r20, r24
    34de:	b2 e1       	ldi	r27, 0x12	; 18
    34e0:	55 95       	asr	r21
    34e2:	47 95       	ror	r20
    34e4:	37 95       	ror	r19
    34e6:	27 95       	ror	r18
    34e8:	ba 95       	dec	r27
    34ea:	d1 f7       	brne	.-12     	; 0x34e0 <_Z22Print_Filter_Debug_Outv+0x226>
    34ec:	87 e0       	ldi	r24, 0x07	; 7
    34ee:	96 e0       	ldi	r25, 0x06	; 6
    34f0:	b9 01       	movw	r22, r18
    34f2:	4a e0       	ldi	r20, 0x0A	; 10
    34f4:	50 e0       	ldi	r21, 0x00	; 0
    34f6:	0e 94 a5 20 	call	0x414a	; 0x414a <_ZN5Print5printEii>
		Serial.print("\t\t\t\t\t\t\t");
    34fa:	87 e0       	ldi	r24, 0x07	; 7
    34fc:	96 e0       	ldi	r25, 0x06	; 6
    34fe:	6f e9       	ldi	r22, 0x9F	; 159
    3500:	72 e0       	ldi	r23, 0x02	; 2
    3502:	0e 94 b8 20 	call	0x4170	; 0x4170 <_ZN5Print5printEPKc>
		Serial.print((int)(((rollrate>>15)*((long)29335))>>18),DEC);
    3506:	60 91 72 05 	lds	r22, 0x0572
    350a:	70 91 73 05 	lds	r23, 0x0573
    350e:	80 91 74 05 	lds	r24, 0x0574
    3512:	90 91 75 05 	lds	r25, 0x0575
    3516:	af e0       	ldi	r26, 0x0F	; 15
    3518:	95 95       	asr	r25
    351a:	87 95       	ror	r24
    351c:	77 95       	ror	r23
    351e:	67 95       	ror	r22
    3520:	aa 95       	dec	r26
    3522:	d1 f7       	brne	.-12     	; 0x3518 <_Z22Print_Filter_Debug_Outv+0x25e>
    3524:	27 e9       	ldi	r18, 0x97	; 151
    3526:	32 e7       	ldi	r19, 0x72	; 114
    3528:	40 e0       	ldi	r20, 0x00	; 0
    352a:	50 e0       	ldi	r21, 0x00	; 0
    352c:	0e 94 ef 22 	call	0x45de	; 0x45de <__mulsi3>
    3530:	9b 01       	movw	r18, r22
    3532:	ac 01       	movw	r20, r24
    3534:	f2 e1       	ldi	r31, 0x12	; 18
    3536:	55 95       	asr	r21
    3538:	47 95       	ror	r20
    353a:	37 95       	ror	r19
    353c:	27 95       	ror	r18
    353e:	fa 95       	dec	r31
    3540:	d1 f7       	brne	.-12     	; 0x3536 <_Z22Print_Filter_Debug_Outv+0x27c>
    3542:	87 e0       	ldi	r24, 0x07	; 7
    3544:	96 e0       	ldi	r25, 0x06	; 6
    3546:	b9 01       	movw	r22, r18
    3548:	4a e0       	ldi	r20, 0x0A	; 10
    354a:	50 e0       	ldi	r21, 0x00	; 0
    354c:	0e 94 a5 20 	call	0x414a	; 0x414a <_ZN5Print5printEii>
		Serial.print("\t\t\t\t\t\t\t\t\t");
    3550:	87 e0       	ldi	r24, 0x07	; 7
    3552:	96 e0       	ldi	r25, 0x06	; 6
    3554:	67 ea       	ldi	r22, 0xA7	; 167
    3556:	72 e0       	ldi	r23, 0x02	; 2
    3558:	0e 94 b8 20 	call	0x4170	; 0x4170 <_ZN5Print5printEPKc>
		Serial.print((int)(((pitchrate>>15)*((long)29335))>>18),DEC);
    355c:	60 91 76 05 	lds	r22, 0x0576
    3560:	70 91 77 05 	lds	r23, 0x0577
    3564:	80 91 78 05 	lds	r24, 0x0578
    3568:	90 91 79 05 	lds	r25, 0x0579
    356c:	ef e0       	ldi	r30, 0x0F	; 15
    356e:	95 95       	asr	r25
    3570:	87 95       	ror	r24
    3572:	77 95       	ror	r23
    3574:	67 95       	ror	r22
    3576:	ea 95       	dec	r30
    3578:	d1 f7       	brne	.-12     	; 0x356e <_Z22Print_Filter_Debug_Outv+0x2b4>
    357a:	27 e9       	ldi	r18, 0x97	; 151
    357c:	32 e7       	ldi	r19, 0x72	; 114
    357e:	40 e0       	ldi	r20, 0x00	; 0
    3580:	50 e0       	ldi	r21, 0x00	; 0
    3582:	0e 94 ef 22 	call	0x45de	; 0x45de <__mulsi3>
    3586:	9b 01       	movw	r18, r22
    3588:	ac 01       	movw	r20, r24
    358a:	62 e1       	ldi	r22, 0x12	; 18
    358c:	55 95       	asr	r21
    358e:	47 95       	ror	r20
    3590:	37 95       	ror	r19
    3592:	27 95       	ror	r18
    3594:	6a 95       	dec	r22
    3596:	d1 f7       	brne	.-12     	; 0x358c <_Z22Print_Filter_Debug_Outv+0x2d2>
    3598:	87 e0       	ldi	r24, 0x07	; 7
    359a:	96 e0       	ldi	r25, 0x06	; 6
    359c:	b9 01       	movw	r22, r18
    359e:	4a e0       	ldi	r20, 0x0A	; 10
    35a0:	50 e0       	ldi	r21, 0x00	; 0
    35a2:	0e 94 a5 20 	call	0x414a	; 0x414a <_ZN5Print5printEii>
		Serial.print("\t\t\t\t\t\t\t\t\t");
    35a6:	87 e0       	ldi	r24, 0x07	; 7
    35a8:	96 e0       	ldi	r25, 0x06	; 6
    35aa:	67 ea       	ldi	r22, 0xA7	; 167
    35ac:	72 e0       	ldi	r23, 0x02	; 2
    35ae:	0e 94 b8 20 	call	0x4170	; 0x4170 <_ZN5Print5printEPKc>
		Serial.print((int)(((yawrate>>15)*((long)29335))>>18),DEC);
    35b2:	60 91 7a 05 	lds	r22, 0x057A
    35b6:	70 91 7b 05 	lds	r23, 0x057B
    35ba:	80 91 7c 05 	lds	r24, 0x057C
    35be:	90 91 7d 05 	lds	r25, 0x057D
    35c2:	2f e0       	ldi	r18, 0x0F	; 15
    35c4:	95 95       	asr	r25
    35c6:	87 95       	ror	r24
    35c8:	77 95       	ror	r23
    35ca:	67 95       	ror	r22
    35cc:	2a 95       	dec	r18
    35ce:	d1 f7       	brne	.-12     	; 0x35c4 <_Z22Print_Filter_Debug_Outv+0x30a>
    35d0:	27 e9       	ldi	r18, 0x97	; 151
    35d2:	32 e7       	ldi	r19, 0x72	; 114
    35d4:	40 e0       	ldi	r20, 0x00	; 0
    35d6:	50 e0       	ldi	r21, 0x00	; 0
    35d8:	0e 94 ef 22 	call	0x45de	; 0x45de <__mulsi3>
    35dc:	9b 01       	movw	r18, r22
    35de:	ac 01       	movw	r20, r24
    35e0:	b2 e1       	ldi	r27, 0x12	; 18
    35e2:	55 95       	asr	r21
    35e4:	47 95       	ror	r20
    35e6:	37 95       	ror	r19
    35e8:	27 95       	ror	r18
    35ea:	ba 95       	dec	r27
    35ec:	d1 f7       	brne	.-12     	; 0x35e2 <_Z22Print_Filter_Debug_Outv+0x328>
    35ee:	87 e0       	ldi	r24, 0x07	; 7
    35f0:	96 e0       	ldi	r25, 0x06	; 6
    35f2:	b9 01       	movw	r22, r18
    35f4:	4a e0       	ldi	r20, 0x0A	; 10
    35f6:	50 e0       	ldi	r21, 0x00	; 0
    35f8:	0e 94 a5 20 	call	0x414a	; 0x414a <_ZN5Print5printEii>
		Serial.print("\t\t\t\t\t\t\t\t\t");
    35fc:	87 e0       	ldi	r24, 0x07	; 7
    35fe:	96 e0       	ldi	r25, 0x06	; 6
    3600:	67 ea       	ldi	r22, 0xA7	; 167
    3602:	72 e0       	ldi	r23, 0x02	; 2
    3604:	0e 94 b8 20 	call	0x4170	; 0x4170 <_ZN5Print5printEPKc>
		Serial.print((int)(((roll>>15)*((long)29335))>>18),DEC);
    3608:	60 91 66 05 	lds	r22, 0x0566
    360c:	70 91 67 05 	lds	r23, 0x0567
    3610:	80 91 68 05 	lds	r24, 0x0568
    3614:	90 91 69 05 	lds	r25, 0x0569
    3618:	af e0       	ldi	r26, 0x0F	; 15
    361a:	95 95       	asr	r25
    361c:	87 95       	ror	r24
    361e:	77 95       	ror	r23
    3620:	67 95       	ror	r22
    3622:	aa 95       	dec	r26
    3624:	d1 f7       	brne	.-12     	; 0x361a <_Z22Print_Filter_Debug_Outv+0x360>
    3626:	27 e9       	ldi	r18, 0x97	; 151
    3628:	32 e7       	ldi	r19, 0x72	; 114
    362a:	40 e0       	ldi	r20, 0x00	; 0
    362c:	50 e0       	ldi	r21, 0x00	; 0
    362e:	0e 94 ef 22 	call	0x45de	; 0x45de <__mulsi3>
    3632:	9b 01       	movw	r18, r22
    3634:	ac 01       	movw	r20, r24
    3636:	f2 e1       	ldi	r31, 0x12	; 18
    3638:	55 95       	asr	r21
    363a:	47 95       	ror	r20
    363c:	37 95       	ror	r19
    363e:	27 95       	ror	r18
    3640:	fa 95       	dec	r31
    3642:	d1 f7       	brne	.-12     	; 0x3638 <_Z22Print_Filter_Debug_Outv+0x37e>
    3644:	87 e0       	ldi	r24, 0x07	; 7
    3646:	96 e0       	ldi	r25, 0x06	; 6
    3648:	b9 01       	movw	r22, r18
    364a:	4a e0       	ldi	r20, 0x0A	; 10
    364c:	50 e0       	ldi	r21, 0x00	; 0
    364e:	0e 94 a5 20 	call	0x414a	; 0x414a <_ZN5Print5printEii>
		Serial.print("\t\t\t\t\t\t\t\t\t");
    3652:	87 e0       	ldi	r24, 0x07	; 7
    3654:	96 e0       	ldi	r25, 0x06	; 6
    3656:	67 ea       	ldi	r22, 0xA7	; 167
    3658:	72 e0       	ldi	r23, 0x02	; 2
    365a:	0e 94 b8 20 	call	0x4170	; 0x4170 <_ZN5Print5printEPKc>
		Serial.print((int)(((pitch>>15)*((long)29335))>>18),DEC);
    365e:	60 91 6a 05 	lds	r22, 0x056A
    3662:	70 91 6b 05 	lds	r23, 0x056B
    3666:	80 91 6c 05 	lds	r24, 0x056C
    366a:	90 91 6d 05 	lds	r25, 0x056D
    366e:	ef e0       	ldi	r30, 0x0F	; 15
    3670:	95 95       	asr	r25
    3672:	87 95       	ror	r24
    3674:	77 95       	ror	r23
    3676:	67 95       	ror	r22
    3678:	ea 95       	dec	r30
    367a:	d1 f7       	brne	.-12     	; 0x3670 <_Z22Print_Filter_Debug_Outv+0x3b6>
    367c:	27 e9       	ldi	r18, 0x97	; 151
    367e:	32 e7       	ldi	r19, 0x72	; 114
    3680:	40 e0       	ldi	r20, 0x00	; 0
    3682:	50 e0       	ldi	r21, 0x00	; 0
    3684:	0e 94 ef 22 	call	0x45de	; 0x45de <__mulsi3>
    3688:	9b 01       	movw	r18, r22
    368a:	ac 01       	movw	r20, r24
    368c:	62 e1       	ldi	r22, 0x12	; 18
    368e:	55 95       	asr	r21
    3690:	47 95       	ror	r20
    3692:	37 95       	ror	r19
    3694:	27 95       	ror	r18
    3696:	6a 95       	dec	r22
    3698:	d1 f7       	brne	.-12     	; 0x368e <_Z22Print_Filter_Debug_Outv+0x3d4>
    369a:	87 e0       	ldi	r24, 0x07	; 7
    369c:	96 e0       	ldi	r25, 0x06	; 6
    369e:	b9 01       	movw	r22, r18
    36a0:	4a e0       	ldi	r20, 0x0A	; 10
    36a2:	50 e0       	ldi	r21, 0x00	; 0
    36a4:	0e 94 a5 20 	call	0x414a	; 0x414a <_ZN5Print5printEii>
		Serial.print("\t\t\t\t\t\t\t\t\t");
    36a8:	87 e0       	ldi	r24, 0x07	; 7
    36aa:	96 e0       	ldi	r25, 0x06	; 6
    36ac:	67 ea       	ldi	r22, 0xA7	; 167
    36ae:	72 e0       	ldi	r23, 0x02	; 2
    36b0:	0e 94 b8 20 	call	0x4170	; 0x4170 <_ZN5Print5printEPKc>
		Serial.print((int)(((yaw>>15)*((long)29335))>>18),DEC);
    36b4:	60 91 6e 05 	lds	r22, 0x056E
    36b8:	70 91 6f 05 	lds	r23, 0x056F
    36bc:	80 91 70 05 	lds	r24, 0x0570
    36c0:	90 91 71 05 	lds	r25, 0x0571
    36c4:	2f e0       	ldi	r18, 0x0F	; 15
    36c6:	95 95       	asr	r25
    36c8:	87 95       	ror	r24
    36ca:	77 95       	ror	r23
    36cc:	67 95       	ror	r22
    36ce:	2a 95       	dec	r18
    36d0:	d1 f7       	brne	.-12     	; 0x36c6 <_Z22Print_Filter_Debug_Outv+0x40c>
    36d2:	27 e9       	ldi	r18, 0x97	; 151
    36d4:	32 e7       	ldi	r19, 0x72	; 114
    36d6:	40 e0       	ldi	r20, 0x00	; 0
    36d8:	50 e0       	ldi	r21, 0x00	; 0
    36da:	0e 94 ef 22 	call	0x45de	; 0x45de <__mulsi3>
    36de:	9b 01       	movw	r18, r22
    36e0:	ac 01       	movw	r20, r24
    36e2:	82 e1       	ldi	r24, 0x12	; 18
    36e4:	55 95       	asr	r21
    36e6:	47 95       	ror	r20
    36e8:	37 95       	ror	r19
    36ea:	27 95       	ror	r18
    36ec:	8a 95       	dec	r24
    36ee:	d1 f7       	brne	.-12     	; 0x36e4 <_Z22Print_Filter_Debug_Outv+0x42a>
    36f0:	87 e0       	ldi	r24, 0x07	; 7
    36f2:	96 e0       	ldi	r25, 0x06	; 6
    36f4:	b9 01       	movw	r22, r18
    36f6:	4a e0       	ldi	r20, 0x0A	; 10
    36f8:	50 e0       	ldi	r21, 0x00	; 0
    36fa:	0e 94 a5 20 	call	0x414a	; 0x414a <_ZN5Print5printEii>

		Serial.println("");
    36fe:	87 e0       	ldi	r24, 0x07	; 7
    3700:	96 e0       	ldi	r25, 0x06	; 6
    3702:	61 eb       	ldi	r22, 0xB1	; 177
    3704:	72 e0       	ldi	r23, 0x02	; 2
    3706:	0e 94 bb 20 	call	0x4176	; 0x4176 <_ZN5Print7printlnEPKc>
		Serial.println("");
    370a:	87 e0       	ldi	r24, 0x07	; 7
    370c:	96 e0       	ldi	r25, 0x06	; 6
    370e:	61 eb       	ldi	r22, 0xB1	; 177
    3710:	72 e0       	ldi	r23, 0x02	; 2
    3712:	0e 94 bb 20 	call	0x4176	; 0x4176 <_ZN5Print7printlnEPKc>
    3716:	08 95       	ret

00003718 <_Z26Calculate_Kalman_Estimatesv>:
 * Function:	Calculate_Kalman_Estimates()
 * Scope:		NA
 * Arguments:	None
 * Description:	calculates all kalman state estimates, based on whatever new measurements are ready
 */
void Calculate_Kalman_Estimates(void){
    3718:	cf 92       	push	r12
    371a:	df 92       	push	r13
    371c:	ef 92       	push	r14
    371e:	ff 92       	push	r15
    3720:	0f 93       	push	r16
    3722:	1f 93       	push	r17
	if (newmagdata)					// if new magnetometer data was ready
    3724:	80 91 40 05 	lds	r24, 0x0540
    3728:	90 91 41 05 	lds	r25, 0x0541
    372c:	88 23       	and	r24, r24
    372e:	09 f4       	brne	.+2      	; 0x3732 <_Z26Calculate_Kalman_Estimatesv+0x1a>
    3730:	7d c0       	rjmp	.+250    	; 0x382c <_Z26Calculate_Kalman_Estimatesv+0x114>
    3732:	40 91 3c 05 	lds	r20, 0x053C
    3736:	50 91 3d 05 	lds	r21, 0x053D
    373a:	60 91 3e 05 	lds	r22, 0x053E
    373e:	70 91 3f 05 	lds	r23, 0x053F
	{
		if (newmpudata)				// if new magnetometer and mpu data are both ready
    3742:	99 23       	and	r25, r25
    3744:	09 f4       	brne	.+2      	; 0x3748 <_Z26Calculate_Kalman_Estimatesv+0x30>
    3746:	4d c0       	rjmp	.+154    	; 0x37e2 <_Z26Calculate_Kalman_Estimatesv+0xca>
		{
			XAxisGyroKalman.Est_NoCtrl_MeasAngleAndRate(loopdeltatime_us,roll_fromAccel,rollrate_meas);		// trigger x-axis gyro kalman estimation
    3748:	00 91 5a 05 	lds	r16, 0x055A
    374c:	10 91 5b 05 	lds	r17, 0x055B
    3750:	20 91 5c 05 	lds	r18, 0x055C
    3754:	30 91 5d 05 	lds	r19, 0x055D
    3758:	c0 90 42 05 	lds	r12, 0x0542
    375c:	d0 90 43 05 	lds	r13, 0x0543
    3760:	e0 90 44 05 	lds	r14, 0x0544
    3764:	f0 90 45 05 	lds	r15, 0x0545
    3768:	80 e5       	ldi	r24, 0x50	; 80
    376a:	94 e0       	ldi	r25, 0x04	; 4
    376c:	0e 94 51 12 	call	0x24a2	; 0x24a2 <_ZN10GyroKalman27Est_NoCtrl_MeasAngleAndRateElll>
			YAxisGyroKalman.Est_NoCtrl_MeasAngleAndRate(loopdeltatime_us,pitch_fromAccel,pitchrate_meas);	// trigger y-axis gyro kalman estimation
    3770:	40 91 3c 05 	lds	r20, 0x053C
    3774:	50 91 3d 05 	lds	r21, 0x053D
    3778:	60 91 3e 05 	lds	r22, 0x053E
    377c:	70 91 3f 05 	lds	r23, 0x053F
    3780:	00 91 5e 05 	lds	r16, 0x055E
    3784:	10 91 5f 05 	lds	r17, 0x055F
    3788:	20 91 60 05 	lds	r18, 0x0560
    378c:	30 91 61 05 	lds	r19, 0x0561
    3790:	c0 90 46 05 	lds	r12, 0x0546
    3794:	d0 90 47 05 	lds	r13, 0x0547
    3798:	e0 90 48 05 	lds	r14, 0x0548
    379c:	f0 90 49 05 	lds	r15, 0x0549
    37a0:	80 e9       	ldi	r24, 0x90	; 144
    37a2:	94 e0       	ldi	r25, 0x04	; 4
    37a4:	0e 94 51 12 	call	0x24a2	; 0x24a2 <_ZN10GyroKalman27Est_NoCtrl_MeasAngleAndRateElll>
			ZAxisGyroKalman.Est_NoCtrl_MeasAngleAndRate(loopdeltatime_us,heading_rad,yawrate_meas);			// trigger z-axis gyro kalman estimation
    37a8:	40 91 3c 05 	lds	r20, 0x053C
    37ac:	50 91 3d 05 	lds	r21, 0x053D
    37b0:	60 91 3e 05 	lds	r22, 0x053E
    37b4:	70 91 3f 05 	lds	r23, 0x053F
    37b8:	00 91 62 05 	lds	r16, 0x0562
    37bc:	10 91 63 05 	lds	r17, 0x0563
    37c0:	20 91 64 05 	lds	r18, 0x0564
    37c4:	30 91 65 05 	lds	r19, 0x0565
    37c8:	c0 90 4a 05 	lds	r12, 0x054A
    37cc:	d0 90 4b 05 	lds	r13, 0x054B
    37d0:	e0 90 4c 05 	lds	r14, 0x054C
    37d4:	f0 90 4d 05 	lds	r15, 0x054D
    37d8:	80 ed       	ldi	r24, 0xD0	; 208
    37da:	94 e0       	ldi	r25, 0x04	; 4
    37dc:	0e 94 51 12 	call	0x24a2	; 0x24a2 <_ZN10GyroKalman27Est_NoCtrl_MeasAngleAndRateElll>
    37e0:	91 c0       	rjmp	.+290    	; 0x3904 <_Z26Calculate_Kalman_Estimatesv+0x1ec>
		}
		else						// if new magnetometer data is ready, but no mpu data
		{
			XAxisGyroKalman.Est_NoCtrl_NoMeas(loopdeltatime_us);											// trigger x-axis gyro kalman estimation
    37e2:	80 e5       	ldi	r24, 0x50	; 80
    37e4:	94 e0       	ldi	r25, 0x04	; 4
    37e6:	0e 94 d7 0f 	call	0x1fae	; 0x1fae <_ZN10GyroKalman17Est_NoCtrl_NoMeasEl>
			YAxisGyroKalman.Est_NoCtrl_NoMeas(loopdeltatime_us);											// trigger y-axis gyro kalman estimation
    37ea:	40 91 3c 05 	lds	r20, 0x053C
    37ee:	50 91 3d 05 	lds	r21, 0x053D
    37f2:	60 91 3e 05 	lds	r22, 0x053E
    37f6:	70 91 3f 05 	lds	r23, 0x053F
    37fa:	80 e9       	ldi	r24, 0x90	; 144
    37fc:	94 e0       	ldi	r25, 0x04	; 4
    37fe:	0e 94 d7 0f 	call	0x1fae	; 0x1fae <_ZN10GyroKalman17Est_NoCtrl_NoMeasEl>
			ZAxisGyroKalman.Est_NoCtrl_MeasAngle(loopdeltatime_us,heading_rad);								// trigger z-axis gyro kalman estimation
    3802:	40 91 3c 05 	lds	r20, 0x053C
    3806:	50 91 3d 05 	lds	r21, 0x053D
    380a:	60 91 3e 05 	lds	r22, 0x053E
    380e:	70 91 3f 05 	lds	r23, 0x053F
    3812:	00 91 62 05 	lds	r16, 0x0562
    3816:	10 91 63 05 	lds	r17, 0x0563
    381a:	20 91 64 05 	lds	r18, 0x0564
    381e:	30 91 65 05 	lds	r19, 0x0565
    3822:	80 ed       	ldi	r24, 0xD0	; 208
    3824:	94 e0       	ldi	r25, 0x04	; 4
    3826:	0e 94 5f 14 	call	0x28be	; 0x28be <_ZN10GyroKalman20Est_NoCtrl_MeasAngleEll>
    382a:	6c c0       	rjmp	.+216    	; 0x3904 <_Z26Calculate_Kalman_Estimatesv+0x1ec>
    382c:	40 91 3c 05 	lds	r20, 0x053C
    3830:	50 91 3d 05 	lds	r21, 0x053D
    3834:	60 91 3e 05 	lds	r22, 0x053E
    3838:	70 91 3f 05 	lds	r23, 0x053F
		}
	}
	else							// if no magnetometer data is ready
	{
		if (newmpudata)				// if no magnetometer data, but new mpu data is ready
    383c:	99 23       	and	r25, r25
    383e:	09 f4       	brne	.+2      	; 0x3842 <_Z26Calculate_Kalman_Estimatesv+0x12a>
    3840:	45 c0       	rjmp	.+138    	; 0x38cc <_Z26Calculate_Kalman_Estimatesv+0x1b4>
		{
			XAxisGyroKalman.Est_NoCtrl_MeasAngleAndRate(loopdeltatime_us,roll_fromAccel,rollrate_meas);		// trigger x-axis gyro kalman estimation
    3842:	00 91 5a 05 	lds	r16, 0x055A
    3846:	10 91 5b 05 	lds	r17, 0x055B
    384a:	20 91 5c 05 	lds	r18, 0x055C
    384e:	30 91 5d 05 	lds	r19, 0x055D
    3852:	c0 90 42 05 	lds	r12, 0x0542
    3856:	d0 90 43 05 	lds	r13, 0x0543
    385a:	e0 90 44 05 	lds	r14, 0x0544
    385e:	f0 90 45 05 	lds	r15, 0x0545
    3862:	80 e5       	ldi	r24, 0x50	; 80
    3864:	94 e0       	ldi	r25, 0x04	; 4
    3866:	0e 94 51 12 	call	0x24a2	; 0x24a2 <_ZN10GyroKalman27Est_NoCtrl_MeasAngleAndRateElll>
			YAxisGyroKalman.Est_NoCtrl_MeasAngleAndRate(loopdeltatime_us,pitch_fromAccel,pitchrate_meas);	// trigger y-axis gyro kalman estimation
    386a:	40 91 3c 05 	lds	r20, 0x053C
    386e:	50 91 3d 05 	lds	r21, 0x053D
    3872:	60 91 3e 05 	lds	r22, 0x053E
    3876:	70 91 3f 05 	lds	r23, 0x053F
    387a:	00 91 5e 05 	lds	r16, 0x055E
    387e:	10 91 5f 05 	lds	r17, 0x055F
    3882:	20 91 60 05 	lds	r18, 0x0560
    3886:	30 91 61 05 	lds	r19, 0x0561
    388a:	c0 90 46 05 	lds	r12, 0x0546
    388e:	d0 90 47 05 	lds	r13, 0x0547
    3892:	e0 90 48 05 	lds	r14, 0x0548
    3896:	f0 90 49 05 	lds	r15, 0x0549
    389a:	80 e9       	ldi	r24, 0x90	; 144
    389c:	94 e0       	ldi	r25, 0x04	; 4
    389e:	0e 94 51 12 	call	0x24a2	; 0x24a2 <_ZN10GyroKalman27Est_NoCtrl_MeasAngleAndRateElll>
			ZAxisGyroKalman.Est_NoCtrl_MeasRate(loopdeltatime_us,yawrate_meas);								// trigger z-axis gyro kalman estimation
    38a2:	40 91 3c 05 	lds	r20, 0x053C
    38a6:	50 91 3d 05 	lds	r21, 0x053D
    38aa:	60 91 3e 05 	lds	r22, 0x053E
    38ae:	70 91 3f 05 	lds	r23, 0x053F
    38b2:	00 91 4a 05 	lds	r16, 0x054A
    38b6:	10 91 4b 05 	lds	r17, 0x054B
    38ba:	20 91 4c 05 	lds	r18, 0x054C
    38be:	30 91 4d 05 	lds	r19, 0x054D
    38c2:	80 ed       	ldi	r24, 0xD0	; 208
    38c4:	94 e0       	ldi	r25, 0x04	; 4
    38c6:	0e 94 5d 13 	call	0x26ba	; 0x26ba <_ZN10GyroKalman19Est_NoCtrl_MeasRateEll>
    38ca:	1c c0       	rjmp	.+56     	; 0x3904 <_Z26Calculate_Kalman_Estimatesv+0x1ec>
		}
		else						// if no magnetometer data or mpu data is ready
		{
			XAxisGyroKalman.Est_NoCtrl_NoMeas(loopdeltatime_us);											// trigger x-axis gyro kalman estimation
    38cc:	80 e5       	ldi	r24, 0x50	; 80
    38ce:	94 e0       	ldi	r25, 0x04	; 4
    38d0:	0e 94 d7 0f 	call	0x1fae	; 0x1fae <_ZN10GyroKalman17Est_NoCtrl_NoMeasEl>
			YAxisGyroKalman.Est_NoCtrl_NoMeas(loopdeltatime_us);											// trigger y-axis gyro kalman estimation
    38d4:	40 91 3c 05 	lds	r20, 0x053C
    38d8:	50 91 3d 05 	lds	r21, 0x053D
    38dc:	60 91 3e 05 	lds	r22, 0x053E
    38e0:	70 91 3f 05 	lds	r23, 0x053F
    38e4:	80 e9       	ldi	r24, 0x90	; 144
    38e6:	94 e0       	ldi	r25, 0x04	; 4
    38e8:	0e 94 d7 0f 	call	0x1fae	; 0x1fae <_ZN10GyroKalman17Est_NoCtrl_NoMeasEl>
			ZAxisGyroKalman.Est_NoCtrl_NoMeas(loopdeltatime_us);											// trigger z-axis gyro kalman estimation
    38ec:	40 91 3c 05 	lds	r20, 0x053C
    38f0:	50 91 3d 05 	lds	r21, 0x053D
    38f4:	60 91 3e 05 	lds	r22, 0x053E
    38f8:	70 91 3f 05 	lds	r23, 0x053F
    38fc:	80 ed       	ldi	r24, 0xD0	; 208
    38fe:	94 e0       	ldi	r25, 0x04	; 4
    3900:	0e 94 d7 0f 	call	0x1fae	; 0x1fae <_ZN10GyroKalman17Est_NoCtrl_NoMeasEl>
		}
	}

	roll = XAxisGyroKalman.GetAngle();			// get estimated roll angle (rad)
    3904:	80 e5       	ldi	r24, 0x50	; 80
    3906:	94 e0       	ldi	r25, 0x04	; 4
    3908:	0e 94 fd 0d 	call	0x1bfa	; 0x1bfa <_ZN10GyroKalman8GetAngleEv>
    390c:	60 93 66 05 	sts	0x0566, r22
    3910:	70 93 67 05 	sts	0x0567, r23
    3914:	80 93 68 05 	sts	0x0568, r24
    3918:	90 93 69 05 	sts	0x0569, r25
	pitch = YAxisGyroKalman.GetAngle();			// get estimated pitch angle (rad)
    391c:	80 e9       	ldi	r24, 0x90	; 144
    391e:	94 e0       	ldi	r25, 0x04	; 4
    3920:	0e 94 fd 0d 	call	0x1bfa	; 0x1bfa <_ZN10GyroKalman8GetAngleEv>
    3924:	60 93 6a 05 	sts	0x056A, r22
    3928:	70 93 6b 05 	sts	0x056B, r23
    392c:	80 93 6c 05 	sts	0x056C, r24
    3930:	90 93 6d 05 	sts	0x056D, r25
	yaw = ZAxisGyroKalman.GetAngle();			// get estimated yaw angle (rad)
    3934:	80 ed       	ldi	r24, 0xD0	; 208
    3936:	94 e0       	ldi	r25, 0x04	; 4
    3938:	0e 94 fd 0d 	call	0x1bfa	; 0x1bfa <_ZN10GyroKalman8GetAngleEv>
    393c:	60 93 6e 05 	sts	0x056E, r22
    3940:	70 93 6f 05 	sts	0x056F, r23
    3944:	80 93 70 05 	sts	0x0570, r24
    3948:	90 93 71 05 	sts	0x0571, r25
	rollrate = XAxisGyroKalman.GetRate();		// get estimated roll rate (rad/sec)
    394c:	80 e5       	ldi	r24, 0x50	; 80
    394e:	94 e0       	ldi	r25, 0x04	; 4
    3950:	0e 94 03 0e 	call	0x1c06	; 0x1c06 <_ZN10GyroKalman7GetRateEv>
    3954:	60 93 72 05 	sts	0x0572, r22
    3958:	70 93 73 05 	sts	0x0573, r23
    395c:	80 93 74 05 	sts	0x0574, r24
    3960:	90 93 75 05 	sts	0x0575, r25
	pitchrate = YAxisGyroKalman.GetRate();		// get estimated pitch rate (rad/sec)
    3964:	80 e9       	ldi	r24, 0x90	; 144
    3966:	94 e0       	ldi	r25, 0x04	; 4
    3968:	0e 94 03 0e 	call	0x1c06	; 0x1c06 <_ZN10GyroKalman7GetRateEv>
    396c:	60 93 76 05 	sts	0x0576, r22
    3970:	70 93 77 05 	sts	0x0577, r23
    3974:	80 93 78 05 	sts	0x0578, r24
    3978:	90 93 79 05 	sts	0x0579, r25
	yawrate = ZAxisGyroKalman.GetRate();		// get estimated yaw rate (rad/sec)
    397c:	80 ed       	ldi	r24, 0xD0	; 208
    397e:	94 e0       	ldi	r25, 0x04	; 4
    3980:	0e 94 03 0e 	call	0x1c06	; 0x1c06 <_ZN10GyroKalman7GetRateEv>
    3984:	60 93 7a 05 	sts	0x057A, r22
    3988:	70 93 7b 05 	sts	0x057B, r23
    398c:	80 93 7c 05 	sts	0x057C, r24
    3990:	90 93 7d 05 	sts	0x057D, r25

	return;
}	// end of Calculate_Kalman_Estimates()
    3994:	1f 91       	pop	r17
    3996:	0f 91       	pop	r16
    3998:	ff 90       	pop	r15
    399a:	ef 90       	pop	r14
    399c:	df 90       	pop	r13
    399e:	cf 90       	pop	r12
    39a0:	08 95       	ret

000039a2 <_Z12CheckForDatav>:
 * Function:	CheckForData()
 * Scope:		NA
 * Arguments:	None
 * Description:	Checks for and reads data from MPU and magnetometer
 */
void CheckForData(void){
    39a2:	0f 93       	push	r16
    39a4:	1f 93       	push	r17
	if (Hmc5883.GetDataCount() > 0)								// if new data is available from magnetometer
    39a6:	80 e1       	ldi	r24, 0x10	; 16
    39a8:	95 e0       	ldi	r25, 0x05	; 5
    39aa:	0e 94 8e 14 	call	0x291c	; 0x291c <_ZN7HMC588312GetDataCountEv>
    39ae:	88 23       	and	r24, r24
    39b0:	61 f1       	breq	.+88     	; 0x3a0a <_Z12CheckForDatav+0x68>
	{
		if (Hmc5883.Read_Mag_Data())							// read magnetic data
    39b2:	80 e1       	ldi	r24, 0x10	; 16
    39b4:	95 e0       	ldi	r25, 0x05	; 5
    39b6:	0e 94 45 15 	call	0x2a8a	; 0x2a8a <_ZN7HMC588313Read_Mag_DataEv>
    39ba:	88 23       	and	r24, r24
    39bc:	01 f1       	breq	.+64     	; 0x39fe <_Z12CheckForDatav+0x5c>
		{
			heading_rad = Hmc5883.Calc_Heading(roll,pitch);		// calculate heading
    39be:	40 91 66 05 	lds	r20, 0x0566
    39c2:	50 91 67 05 	lds	r21, 0x0567
    39c6:	60 91 68 05 	lds	r22, 0x0568
    39ca:	70 91 69 05 	lds	r23, 0x0569
    39ce:	00 91 6a 05 	lds	r16, 0x056A
    39d2:	10 91 6b 05 	lds	r17, 0x056B
    39d6:	20 91 6c 05 	lds	r18, 0x056C
    39da:	30 91 6d 05 	lds	r19, 0x056D
    39de:	80 e1       	ldi	r24, 0x10	; 16
    39e0:	95 e0       	ldi	r25, 0x05	; 5
    39e2:	0e 94 f7 15 	call	0x2bee	; 0x2bee <_ZN7HMC588312Calc_HeadingEll>
    39e6:	60 93 62 05 	sts	0x0562, r22
    39ea:	70 93 63 05 	sts	0x0563, r23
    39ee:	80 93 64 05 	sts	0x0564, r24
    39f2:	90 93 65 05 	sts	0x0565, r25
			newmagdata = true;									// denote new data ready
    39f6:	81 e0       	ldi	r24, 0x01	; 1
    39f8:	80 93 40 05 	sts	0x0540, r24
    39fc:	08 c0       	rjmp	.+16     	; 0x3a0e <_Z12CheckForDatav+0x6c>
		}
		else													// if failed to read data
		{
			Serial.println("Error reading magnetic data");		// print failure message
    39fe:	87 e0       	ldi	r24, 0x07	; 7
    3a00:	96 e0       	ldi	r25, 0x06	; 6
    3a02:	62 eb       	ldi	r22, 0xB2	; 178
    3a04:	72 e0       	ldi	r23, 0x02	; 2
    3a06:	0e 94 bb 20 	call	0x4176	; 0x4176 <_ZN5Print7printlnEPKc>
			newmagdata = false;									// denote no new data ready
		}
	}
	else														// no data was available yet
	{
		newmagdata = false;										// denote no new data was ready
    3a0a:	10 92 40 05 	sts	0x0540, r1
	}

	if (Mpu6000.GetDataCount() > 0)								// if new data is available from MPU
    3a0e:	82 e1       	ldi	r24, 0x12	; 18
    3a10:	94 e0       	ldi	r25, 0x04	; 4
    3a12:	0e 94 db 08 	call	0x11b6	; 0x11b6 <_ZN7MPU600012GetDataCountEv>
    3a16:	88 23       	and	r24, r24
    3a18:	09 f4       	brne	.+2      	; 0x3a1c <_Z12CheckForDatav+0x7a>
    3a1a:	68 c0       	rjmp	.+208    	; 0x3aec <_Z12CheckForDatav+0x14a>
	{
		Mpu6000.Read_Accel_and_Gyro();							// read the new accelerometer and gyro data from SPI bus
    3a1c:	82 e1       	ldi	r24, 0x12	; 18
    3a1e:	94 e0       	ldi	r25, 0x04	; 4
    3a20:	0e 94 f1 0b 	call	0x17e2	; 0x17e2 <_ZN7MPU600019Read_Accel_and_GyroEv>
		rollrate_meas = Mpu6000.GetGyroX();						// aircraft roll rate about x-axis, in radians/sec.  a positive value indicates increasing roll towards right.  measured from IMU
    3a24:	82 e1       	ldi	r24, 0x12	; 18
    3a26:	94 e0       	ldi	r25, 0x04	; 4
    3a28:	0e 94 bd 08 	call	0x117a	; 0x117a <_ZN7MPU60008GetGyroXEv>
    3a2c:	60 93 42 05 	sts	0x0542, r22
    3a30:	70 93 43 05 	sts	0x0543, r23
    3a34:	80 93 44 05 	sts	0x0544, r24
    3a38:	90 93 45 05 	sts	0x0545, r25
		pitchrate_meas = Mpu6000.GetGyroY();					// aircraft pitch rate about y-axis, in radians/sec.  a positive value indicates increasing pitch upwards.  measured from IMU
    3a3c:	82 e1       	ldi	r24, 0x12	; 18
    3a3e:	94 e0       	ldi	r25, 0x04	; 4
    3a40:	0e 94 c3 08 	call	0x1186	; 0x1186 <_ZN7MPU60008GetGyroYEv>
    3a44:	60 93 46 05 	sts	0x0546, r22
    3a48:	70 93 47 05 	sts	0x0547, r23
    3a4c:	80 93 48 05 	sts	0x0548, r24
    3a50:	90 93 49 05 	sts	0x0549, r25
		yawrate_meas = Mpu6000.GetGyroZ();						// aircraft yaw rate about z-axis, in radians/sec.  a positive value indicates increasing yaw right.  measured from IMU
    3a54:	82 e1       	ldi	r24, 0x12	; 18
    3a56:	94 e0       	ldi	r25, 0x04	; 4
    3a58:	0e 94 c9 08 	call	0x1192	; 0x1192 <_ZN7MPU60008GetGyroZEv>
    3a5c:	60 93 4a 05 	sts	0x054A, r22
    3a60:	70 93 4b 05 	sts	0x054B, r23
    3a64:	80 93 4c 05 	sts	0x054C, r24
    3a68:	90 93 4d 05 	sts	0x054D, r25
		accelX_meas = Mpu6000.GetAccelX();						// measured acceleration in x-direction, m/s^2.  measured from IMU
    3a6c:	82 e1       	ldi	r24, 0x12	; 18
    3a6e:	94 e0       	ldi	r25, 0x04	; 4
    3a70:	0e 94 ab 08 	call	0x1156	; 0x1156 <_ZN7MPU60009GetAccelXEv>
    3a74:	60 93 4e 05 	sts	0x054E, r22
    3a78:	70 93 4f 05 	sts	0x054F, r23
    3a7c:	80 93 50 05 	sts	0x0550, r24
    3a80:	90 93 51 05 	sts	0x0551, r25
		accelY_meas = Mpu6000.GetAccelY();						// measured acceleration in y-direction, m/s^2.  measured from IMU
    3a84:	82 e1       	ldi	r24, 0x12	; 18
    3a86:	94 e0       	ldi	r25, 0x04	; 4
    3a88:	0e 94 b1 08 	call	0x1162	; 0x1162 <_ZN7MPU60009GetAccelYEv>
    3a8c:	60 93 52 05 	sts	0x0552, r22
    3a90:	70 93 53 05 	sts	0x0553, r23
    3a94:	80 93 54 05 	sts	0x0554, r24
    3a98:	90 93 55 05 	sts	0x0555, r25
		accelZ_meas = Mpu6000.GetAccelZ();						// measured acceleration in z-direction, m/s^2.  measured from IMU
    3a9c:	82 e1       	ldi	r24, 0x12	; 18
    3a9e:	94 e0       	ldi	r25, 0x04	; 4
    3aa0:	0e 94 b7 08 	call	0x116e	; 0x116e <_ZN7MPU60009GetAccelZEv>
    3aa4:	60 93 56 05 	sts	0x0556, r22
    3aa8:	70 93 57 05 	sts	0x0557, r23
    3aac:	80 93 58 05 	sts	0x0558, r24
    3ab0:	90 93 59 05 	sts	0x0559, r25
		roll_fromAccel = Mpu6000.GetAngleX();					// calculated roll angle, using accelerometer data (rad)
    3ab4:	82 e1       	ldi	r24, 0x12	; 18
    3ab6:	94 e0       	ldi	r25, 0x04	; 4
    3ab8:	0e 94 cf 08 	call	0x119e	; 0x119e <_ZN7MPU60009GetAngleXEv>
    3abc:	60 93 5a 05 	sts	0x055A, r22
    3ac0:	70 93 5b 05 	sts	0x055B, r23
    3ac4:	80 93 5c 05 	sts	0x055C, r24
    3ac8:	90 93 5d 05 	sts	0x055D, r25
		pitch_fromAccel = Mpu6000.GetAngleY();					// calculated pitch angle, using accelerometer data (rad)
    3acc:	82 e1       	ldi	r24, 0x12	; 18
    3ace:	94 e0       	ldi	r25, 0x04	; 4
    3ad0:	0e 94 d5 08 	call	0x11aa	; 0x11aa <_ZN7MPU60009GetAngleYEv>
    3ad4:	60 93 5e 05 	sts	0x055E, r22
    3ad8:	70 93 5f 05 	sts	0x055F, r23
    3adc:	80 93 60 05 	sts	0x0560, r24
    3ae0:	90 93 61 05 	sts	0x0561, r25
		newmpudata = true;										// denote that new data was read from MPU
    3ae4:	81 e0       	ldi	r24, 0x01	; 1
    3ae6:	80 93 41 05 	sts	0x0541, r24
    3aea:	02 c0       	rjmp	.+4      	; 0x3af0 <_Z12CheckForDatav+0x14e>
	}
	else
	{
		newmpudata = false;										// denote no new data read from MPU
    3aec:	10 92 41 05 	sts	0x0541, r1
	}
	return;
} // end of CheckForData
    3af0:	1f 91       	pop	r17
    3af2:	0f 91       	pop	r16
    3af4:	08 95       	ret

00003af6 <_Z11serialEventv>:
    !defined(SIG_UART0_RECV) && !defined(USART0_RX_vect) && \
	!defined(SIG_UART_RECV)
  #error "Don't know what the Data Received vector is called for the first UART"
#else
  void serialEvent() __attribute__((weak));
  void serialEvent() {}
    3af6:	08 95       	ret

00003af8 <__vector_18>:
  #define serialEvent_implemented
#if defined(USART_RX_vect)
  SIGNAL(USART_RX_vect)
    3af8:	1f 92       	push	r1
    3afa:	0f 92       	push	r0
    3afc:	0f b6       	in	r0, 0x3f	; 63
    3afe:	0f 92       	push	r0
    3b00:	11 24       	eor	r1, r1
    3b02:	2f 93       	push	r18
    3b04:	3f 93       	push	r19
    3b06:	4f 93       	push	r20
    3b08:	8f 93       	push	r24
    3b0a:	9f 93       	push	r25
    3b0c:	ef 93       	push	r30
    3b0e:	ff 93       	push	r31
#elif defined(SIG_UART_RECV)
  SIGNAL(SIG_UART_RECV)
#endif
  {
  #if defined(UDR0)
    if (bit_is_clear(UCSR0A, UPE0)) {
    3b10:	80 91 c0 00 	lds	r24, 0x00C0
    3b14:	82 fd       	sbrc	r24, 2
    3b16:	1d c0       	rjmp	.+58     	; 0x3b52 <__vector_18+0x5a>
      unsigned char c = UDR0;
    3b18:	40 91 c6 00 	lds	r20, 0x00C6
  ring_buffer tx_buffer3  =  { { 0 }, 0, 0 };
#endif

inline void store_char(unsigned char c, ring_buffer *buffer)
{
  int i = (unsigned int)(buffer->head + 1) % SERIAL_BUFFER_SIZE;
    3b1c:	20 91 bf 05 	lds	r18, 0x05BF
    3b20:	30 91 c0 05 	lds	r19, 0x05C0

  // if we should be storing the received character into the location
  // just before the tail (meaning that the head would advance to the
  // current location of the tail), we're about to overflow the buffer
  // and so we don't write the character or advance the head.
  if (i != buffer->tail) {
    3b24:	2f 5f       	subi	r18, 0xFF	; 255
    3b26:	3f 4f       	sbci	r19, 0xFF	; 255
    3b28:	2f 73       	andi	r18, 0x3F	; 63
    3b2a:	30 70       	andi	r19, 0x00	; 0
    3b2c:	80 91 c1 05 	lds	r24, 0x05C1
    3b30:	90 91 c2 05 	lds	r25, 0x05C2
    3b34:	28 17       	cp	r18, r24
    3b36:	39 07       	cpc	r19, r25
    3b38:	71 f0       	breq	.+28     	; 0x3b56 <__vector_18+0x5e>
    buffer->buffer[buffer->head] = c;
    3b3a:	e0 91 bf 05 	lds	r30, 0x05BF
    3b3e:	f0 91 c0 05 	lds	r31, 0x05C0
    3b42:	e1 58       	subi	r30, 0x81	; 129
    3b44:	fa 4f       	sbci	r31, 0xFA	; 250
    3b46:	40 83       	st	Z, r20
    buffer->head = i;
    3b48:	30 93 c0 05 	sts	0x05C0, r19
    3b4c:	20 93 bf 05 	sts	0x05BF, r18
    3b50:	02 c0       	rjmp	.+4      	; 0x3b56 <__vector_18+0x5e>
  #if defined(UDR0)
    if (bit_is_clear(UCSR0A, UPE0)) {
      unsigned char c = UDR0;
      store_char(c, &rx_buffer);
    } else {
      unsigned char c = UDR0;
    3b52:	80 91 c6 00 	lds	r24, 0x00C6
      unsigned char c = UDR;
    };
  #else
    #error UDR not defined
  #endif
  }
    3b56:	ff 91       	pop	r31
    3b58:	ef 91       	pop	r30
    3b5a:	9f 91       	pop	r25
    3b5c:	8f 91       	pop	r24
    3b5e:	4f 91       	pop	r20
    3b60:	3f 91       	pop	r19
    3b62:	2f 91       	pop	r18
    3b64:	0f 90       	pop	r0
    3b66:	0f be       	out	0x3f, r0	; 63
    3b68:	0f 90       	pop	r0
    3b6a:	1f 90       	pop	r1
    3b6c:	18 95       	reti

00003b6e <_Z14serialEventRunv>:
  _rx_buffer->head = _rx_buffer->tail;
}

int HardwareSerial::available(void)
{
  return (unsigned int)(SERIAL_BUFFER_SIZE + _rx_buffer->head - _rx_buffer->tail) % SERIAL_BUFFER_SIZE;
    3b6e:	e0 91 13 06 	lds	r30, 0x0613
    3b72:	f0 91 14 06 	lds	r31, 0x0614
    3b76:	e0 5c       	subi	r30, 0xC0	; 192
    3b78:	ff 4f       	sbci	r31, 0xFF	; 255
    3b7a:	81 91       	ld	r24, Z+
    3b7c:	91 91       	ld	r25, Z+
    3b7e:	20 81       	ld	r18, Z
    3b80:	31 81       	ldd	r19, Z+1	; 0x01
#endif

void serialEventRun(void)
{
#ifdef serialEvent_implemented
  if (Serial.available()) serialEvent();
    3b82:	82 1b       	sub	r24, r18
    3b84:	93 0b       	sbc	r25, r19
    3b86:	8f 73       	andi	r24, 0x3F	; 63
    3b88:	90 70       	andi	r25, 0x00	; 0
    3b8a:	89 2b       	or	r24, r25
    3b8c:	11 f0       	breq	.+4      	; 0x3b92 <_Z14serialEventRunv+0x24>
    3b8e:	0e 94 7b 1d 	call	0x3af6	; 0x3af6 <_Z11serialEventv>
    3b92:	08 95       	ret

00003b94 <__vector_19>:
#elif defined(UART_UDRE_vect)
ISR(UART_UDRE_vect)
#elif defined(USART0_UDRE_vect)
ISR(USART0_UDRE_vect)
#elif defined(USART_UDRE_vect)
ISR(USART_UDRE_vect)
    3b94:	1f 92       	push	r1
    3b96:	0f 92       	push	r0
    3b98:	0f b6       	in	r0, 0x3f	; 63
    3b9a:	0f 92       	push	r0
    3b9c:	11 24       	eor	r1, r1
    3b9e:	2f 93       	push	r18
    3ba0:	3f 93       	push	r19
    3ba2:	8f 93       	push	r24
    3ba4:	9f 93       	push	r25
    3ba6:	ef 93       	push	r30
    3ba8:	ff 93       	push	r31
#endif
{
  if (tx_buffer.head == tx_buffer.tail) {
    3baa:	20 91 03 06 	lds	r18, 0x0603
    3bae:	30 91 04 06 	lds	r19, 0x0604
    3bb2:	80 91 05 06 	lds	r24, 0x0605
    3bb6:	90 91 06 06 	lds	r25, 0x0606
    3bba:	28 17       	cp	r18, r24
    3bbc:	39 07       	cpc	r19, r25
    3bbe:	31 f4       	brne	.+12     	; 0x3bcc <__vector_19+0x38>
	// Buffer empty, so disable interrupts
#if defined(UCSR0B)
    cbi(UCSR0B, UDRIE0);
    3bc0:	80 91 c1 00 	lds	r24, 0x00C1
    3bc4:	8f 7d       	andi	r24, 0xDF	; 223
    3bc6:	80 93 c1 00 	sts	0x00C1, r24
    3bca:	14 c0       	rjmp	.+40     	; 0x3bf4 <__vector_19+0x60>
    cbi(UCSRB, UDRIE);
#endif
  }
  else {
    // There is more data in the output buffer. Send the next byte
    unsigned char c = tx_buffer.buffer[tx_buffer.tail];
    3bcc:	e0 91 05 06 	lds	r30, 0x0605
    3bd0:	f0 91 06 06 	lds	r31, 0x0606
    3bd4:	ed 53       	subi	r30, 0x3D	; 61
    3bd6:	fa 4f       	sbci	r31, 0xFA	; 250
    3bd8:	20 81       	ld	r18, Z
    tx_buffer.tail = (tx_buffer.tail + 1) % SERIAL_BUFFER_SIZE;
    3bda:	80 91 05 06 	lds	r24, 0x0605
    3bde:	90 91 06 06 	lds	r25, 0x0606
    3be2:	01 96       	adiw	r24, 0x01	; 1
    3be4:	8f 73       	andi	r24, 0x3F	; 63
    3be6:	90 70       	andi	r25, 0x00	; 0
    3be8:	90 93 06 06 	sts	0x0606, r25
    3bec:	80 93 05 06 	sts	0x0605, r24
	
  #if defined(UDR0)
    UDR0 = c;
    3bf0:	20 93 c6 00 	sts	0x00C6, r18
    UDR = c;
  #else
    #error UDR not defined
  #endif
  }
}
    3bf4:	ff 91       	pop	r31
    3bf6:	ef 91       	pop	r30
    3bf8:	9f 91       	pop	r25
    3bfa:	8f 91       	pop	r24
    3bfc:	3f 91       	pop	r19
    3bfe:	2f 91       	pop	r18
    3c00:	0f 90       	pop	r0
    3c02:	0f be       	out	0x3f, r0	; 63
    3c04:	0f 90       	pop	r0
    3c06:	1f 90       	pop	r1
    3c08:	18 95       	reti

00003c0a <_ZN14HardwareSerial5beginEm>:
  _u2x = u2x;
}

// Public Methods //////////////////////////////////////////////////////////////

void HardwareSerial::begin(unsigned long baud)
    3c0a:	af 92       	push	r10
    3c0c:	bf 92       	push	r11
    3c0e:	df 92       	push	r13
    3c10:	ef 92       	push	r14
    3c12:	ff 92       	push	r15
    3c14:	0f 93       	push	r16
    3c16:	1f 93       	push	r17
    3c18:	cf 93       	push	r28
    3c1a:	df 93       	push	r29
    3c1c:	ec 01       	movw	r28, r24
    3c1e:	7a 01       	movw	r14, r20
    3c20:	8b 01       	movw	r16, r22
    3c22:	dd 24       	eor	r13, r13
    3c24:	40 30       	cpi	r20, 0x00	; 0
    3c26:	81 ee       	ldi	r24, 0xE1	; 225
    3c28:	58 07       	cpc	r21, r24
    3c2a:	80 e0       	ldi	r24, 0x00	; 0
    3c2c:	68 07       	cpc	r22, r24
    3c2e:	80 e0       	ldi	r24, 0x00	; 0
    3c30:	78 07       	cpc	r23, r24
    3c32:	11 f0       	breq	.+4      	; 0x3c38 <_ZN14HardwareSerial5beginEm+0x2e>
    3c34:	dd 24       	eor	r13, r13
    3c36:	d3 94       	inc	r13
#endif

try_again:
  
  if (use_u2x) {
    *_ucsra = 1 << _u2x;
    3c38:	91 e0       	ldi	r25, 0x01	; 1
    3c3a:	a9 2e       	mov	r10, r25
    3c3c:	b1 2c       	mov	r11, r1
    3c3e:	ec 89       	ldd	r30, Y+20	; 0x14
    3c40:	fd 89       	ldd	r31, Y+21	; 0x15
  }
#endif

try_again:
  
  if (use_u2x) {
    3c42:	dd 20       	and	r13, r13
    3c44:	69 f0       	breq	.+26     	; 0x3c60 <_ZN14HardwareSerial5beginEm+0x56>
    *_ucsra = 1 << _u2x;
    3c46:	c5 01       	movw	r24, r10
    3c48:	08 a0       	ldd	r0, Y+32	; 0x20
    3c4a:	02 c0       	rjmp	.+4      	; 0x3c50 <_ZN14HardwareSerial5beginEm+0x46>
    3c4c:	88 0f       	add	r24, r24
    3c4e:	99 1f       	adc	r25, r25
    3c50:	0a 94       	dec	r0
    3c52:	e2 f7       	brpl	.-8      	; 0x3c4c <_ZN14HardwareSerial5beginEm+0x42>
    3c54:	80 83       	st	Z, r24
    baud_setting = (F_CPU / 4 / baud - 1) / 2;
    3c56:	60 e0       	ldi	r22, 0x00	; 0
    3c58:	79 e0       	ldi	r23, 0x09	; 9
    3c5a:	8d e3       	ldi	r24, 0x3D	; 61
    3c5c:	90 e0       	ldi	r25, 0x00	; 0
    3c5e:	05 c0       	rjmp	.+10     	; 0x3c6a <_ZN14HardwareSerial5beginEm+0x60>
  } else {
    *_ucsra = 0;
    3c60:	10 82       	st	Z, r1
    baud_setting = (F_CPU / 8 / baud - 1) / 2;
    3c62:	60 e8       	ldi	r22, 0x80	; 128
    3c64:	74 e8       	ldi	r23, 0x84	; 132
    3c66:	8e e1       	ldi	r24, 0x1E	; 30
    3c68:	90 e0       	ldi	r25, 0x00	; 0
    3c6a:	a8 01       	movw	r20, r16
    3c6c:	97 01       	movw	r18, r14
    3c6e:	0e 94 22 23 	call	0x4644	; 0x4644 <__udivmodsi4>
    3c72:	21 50       	subi	r18, 0x01	; 1
    3c74:	30 40       	sbci	r19, 0x00	; 0
    3c76:	40 40       	sbci	r20, 0x00	; 0
    3c78:	50 40       	sbci	r21, 0x00	; 0
    3c7a:	56 95       	lsr	r21
    3c7c:	47 95       	ror	r20
    3c7e:	37 95       	ror	r19
    3c80:	27 95       	ror	r18
  }
  
  if ((baud_setting > 4095) && use_u2x)
    3c82:	80 e1       	ldi	r24, 0x10	; 16
    3c84:	20 30       	cpi	r18, 0x00	; 0
    3c86:	38 07       	cpc	r19, r24
    3c88:	20 f0       	brcs	.+8      	; 0x3c92 <_ZN14HardwareSerial5beginEm+0x88>
    3c8a:	dd 20       	and	r13, r13
    3c8c:	11 f0       	breq	.+4      	; 0x3c92 <_ZN14HardwareSerial5beginEm+0x88>
    3c8e:	dd 24       	eor	r13, r13
    3c90:	d6 cf       	rjmp	.-84     	; 0x3c3e <_ZN14HardwareSerial5beginEm+0x34>
    use_u2x = false;
    goto try_again;
  }

  // assign the baud_setting, a.k.a. ubbr (USART Baud Rate Register)
  *_ubrrh = baud_setting >> 8;
    3c92:	e8 89       	ldd	r30, Y+16	; 0x10
    3c94:	f9 89       	ldd	r31, Y+17	; 0x11
    3c96:	30 83       	st	Z, r19
  *_ubrrl = baud_setting;
    3c98:	ea 89       	ldd	r30, Y+18	; 0x12
    3c9a:	fb 89       	ldd	r31, Y+19	; 0x13
    3c9c:	20 83       	st	Z, r18

  transmitting = false;
    3c9e:	19 a2       	std	Y+33, r1	; 0x21

  sbi(*_ucsrb, _rxen);
    3ca0:	ee 89       	ldd	r30, Y+22	; 0x16
    3ca2:	ff 89       	ldd	r31, Y+23	; 0x17
    3ca4:	40 81       	ld	r20, Z
    3ca6:	21 e0       	ldi	r18, 0x01	; 1
    3ca8:	30 e0       	ldi	r19, 0x00	; 0
    3caa:	c9 01       	movw	r24, r18
    3cac:	0c 8c       	ldd	r0, Y+28	; 0x1c
    3cae:	02 c0       	rjmp	.+4      	; 0x3cb4 <_ZN14HardwareSerial5beginEm+0xaa>
    3cb0:	88 0f       	add	r24, r24
    3cb2:	99 1f       	adc	r25, r25
    3cb4:	0a 94       	dec	r0
    3cb6:	e2 f7       	brpl	.-8      	; 0x3cb0 <_ZN14HardwareSerial5beginEm+0xa6>
    3cb8:	48 2b       	or	r20, r24
    3cba:	40 83       	st	Z, r20
  sbi(*_ucsrb, _txen);
    3cbc:	ee 89       	ldd	r30, Y+22	; 0x16
    3cbe:	ff 89       	ldd	r31, Y+23	; 0x17
    3cc0:	40 81       	ld	r20, Z
    3cc2:	c9 01       	movw	r24, r18
    3cc4:	0d 8c       	ldd	r0, Y+29	; 0x1d
    3cc6:	02 c0       	rjmp	.+4      	; 0x3ccc <_ZN14HardwareSerial5beginEm+0xc2>
    3cc8:	88 0f       	add	r24, r24
    3cca:	99 1f       	adc	r25, r25
    3ccc:	0a 94       	dec	r0
    3cce:	e2 f7       	brpl	.-8      	; 0x3cc8 <_ZN14HardwareSerial5beginEm+0xbe>
    3cd0:	48 2b       	or	r20, r24
    3cd2:	40 83       	st	Z, r20
  sbi(*_ucsrb, _rxcie);
    3cd4:	ee 89       	ldd	r30, Y+22	; 0x16
    3cd6:	ff 89       	ldd	r31, Y+23	; 0x17
    3cd8:	40 81       	ld	r20, Z
    3cda:	c9 01       	movw	r24, r18
    3cdc:	0e 8c       	ldd	r0, Y+30	; 0x1e
    3cde:	02 c0       	rjmp	.+4      	; 0x3ce4 <_ZN14HardwareSerial5beginEm+0xda>
    3ce0:	88 0f       	add	r24, r24
    3ce2:	99 1f       	adc	r25, r25
    3ce4:	0a 94       	dec	r0
    3ce6:	e2 f7       	brpl	.-8      	; 0x3ce0 <_ZN14HardwareSerial5beginEm+0xd6>
    3ce8:	48 2b       	or	r20, r24
    3cea:	40 83       	st	Z, r20
  cbi(*_ucsrb, _udrie);
    3cec:	ee 89       	ldd	r30, Y+22	; 0x16
    3cee:	ff 89       	ldd	r31, Y+23	; 0x17
    3cf0:	80 81       	ld	r24, Z
    3cf2:	0f 8c       	ldd	r0, Y+31	; 0x1f
    3cf4:	02 c0       	rjmp	.+4      	; 0x3cfa <_ZN14HardwareSerial5beginEm+0xf0>
    3cf6:	22 0f       	add	r18, r18
    3cf8:	33 1f       	adc	r19, r19
    3cfa:	0a 94       	dec	r0
    3cfc:	e2 f7       	brpl	.-8      	; 0x3cf6 <_ZN14HardwareSerial5beginEm+0xec>
    3cfe:	20 95       	com	r18
    3d00:	28 23       	and	r18, r24
    3d02:	20 83       	st	Z, r18
}
    3d04:	df 91       	pop	r29
    3d06:	cf 91       	pop	r28
    3d08:	1f 91       	pop	r17
    3d0a:	0f 91       	pop	r16
    3d0c:	ff 90       	pop	r15
    3d0e:	ef 90       	pop	r14
    3d10:	df 90       	pop	r13
    3d12:	bf 90       	pop	r11
    3d14:	af 90       	pop	r10
    3d16:	08 95       	ret

00003d18 <_ZN14HardwareSerial9availableEv>:
  _rx_buffer->head = _rx_buffer->tail;
}

int HardwareSerial::available(void)
{
  return (unsigned int)(SERIAL_BUFFER_SIZE + _rx_buffer->head - _rx_buffer->tail) % SERIAL_BUFFER_SIZE;
    3d18:	dc 01       	movw	r26, r24
    3d1a:	1c 96       	adiw	r26, 0x0c	; 12
    3d1c:	ed 91       	ld	r30, X+
    3d1e:	fc 91       	ld	r31, X
    3d20:	1d 97       	sbiw	r26, 0x0d	; 13
    3d22:	e0 5c       	subi	r30, 0xC0	; 192
    3d24:	ff 4f       	sbci	r31, 0xFF	; 255
    3d26:	21 91       	ld	r18, Z+
    3d28:	31 91       	ld	r19, Z+
    3d2a:	80 81       	ld	r24, Z
    3d2c:	91 81       	ldd	r25, Z+1	; 0x01
    3d2e:	28 1b       	sub	r18, r24
    3d30:	39 0b       	sbc	r19, r25
    3d32:	2f 73       	andi	r18, 0x3F	; 63
    3d34:	30 70       	andi	r19, 0x00	; 0
}
    3d36:	c9 01       	movw	r24, r18
    3d38:	08 95       	ret

00003d3a <_ZN14HardwareSerial4peekEv>:

int HardwareSerial::peek(void)
{
  if (_rx_buffer->head == _rx_buffer->tail) {
    3d3a:	dc 01       	movw	r26, r24
    3d3c:	1c 96       	adiw	r26, 0x0c	; 12
    3d3e:	ed 91       	ld	r30, X+
    3d40:	fc 91       	ld	r31, X
    3d42:	1d 97       	sbiw	r26, 0x0d	; 13
    3d44:	e0 5c       	subi	r30, 0xC0	; 192
    3d46:	ff 4f       	sbci	r31, 0xFF	; 255
    3d48:	20 81       	ld	r18, Z
    3d4a:	31 81       	ldd	r19, Z+1	; 0x01
    3d4c:	e0 54       	subi	r30, 0x40	; 64
    3d4e:	f0 40       	sbci	r31, 0x00	; 0
    3d50:	df 01       	movw	r26, r30
    3d52:	ae 5b       	subi	r26, 0xBE	; 190
    3d54:	bf 4f       	sbci	r27, 0xFF	; 255
    3d56:	8d 91       	ld	r24, X+
    3d58:	9c 91       	ld	r25, X
    3d5a:	11 97       	sbiw	r26, 0x01	; 1
    3d5c:	28 17       	cp	r18, r24
    3d5e:	39 07       	cpc	r19, r25
    3d60:	19 f4       	brne	.+6      	; 0x3d68 <_ZN14HardwareSerial4peekEv+0x2e>
    3d62:	2f ef       	ldi	r18, 0xFF	; 255
    3d64:	3f ef       	ldi	r19, 0xFF	; 255
    3d66:	07 c0       	rjmp	.+14     	; 0x3d76 <_ZN14HardwareSerial4peekEv+0x3c>
    return -1;
  } else {
    return _rx_buffer->buffer[_rx_buffer->tail];
    3d68:	8d 91       	ld	r24, X+
    3d6a:	9c 91       	ld	r25, X
    3d6c:	e8 0f       	add	r30, r24
    3d6e:	f9 1f       	adc	r31, r25
    3d70:	80 81       	ld	r24, Z
    3d72:	28 2f       	mov	r18, r24
    3d74:	30 e0       	ldi	r19, 0x00	; 0
  }
}
    3d76:	c9 01       	movw	r24, r18
    3d78:	08 95       	ret

00003d7a <_ZN14HardwareSerial4readEv>:

int HardwareSerial::read(void)
{
  // if the head isn't ahead of the tail, we don't have any characters
  if (_rx_buffer->head == _rx_buffer->tail) {
    3d7a:	dc 01       	movw	r26, r24
    3d7c:	1c 96       	adiw	r26, 0x0c	; 12
    3d7e:	ed 91       	ld	r30, X+
    3d80:	fc 91       	ld	r31, X
    3d82:	1d 97       	sbiw	r26, 0x0d	; 13
    3d84:	e0 5c       	subi	r30, 0xC0	; 192
    3d86:	ff 4f       	sbci	r31, 0xFF	; 255
    3d88:	20 81       	ld	r18, Z
    3d8a:	31 81       	ldd	r19, Z+1	; 0x01
    3d8c:	e0 54       	subi	r30, 0x40	; 64
    3d8e:	f0 40       	sbci	r31, 0x00	; 0
    3d90:	df 01       	movw	r26, r30
    3d92:	ae 5b       	subi	r26, 0xBE	; 190
    3d94:	bf 4f       	sbci	r27, 0xFF	; 255
    3d96:	8d 91       	ld	r24, X+
    3d98:	9c 91       	ld	r25, X
    3d9a:	11 97       	sbiw	r26, 0x01	; 1
    3d9c:	28 17       	cp	r18, r24
    3d9e:	39 07       	cpc	r19, r25
    3da0:	19 f4       	brne	.+6      	; 0x3da8 <_ZN14HardwareSerial4readEv+0x2e>
    3da2:	2f ef       	ldi	r18, 0xFF	; 255
    3da4:	3f ef       	ldi	r19, 0xFF	; 255
    3da6:	10 c0       	rjmp	.+32     	; 0x3dc8 <_ZN14HardwareSerial4readEv+0x4e>
    return -1;
  } else {
    unsigned char c = _rx_buffer->buffer[_rx_buffer->tail];
    3da8:	8d 91       	ld	r24, X+
    3daa:	9c 91       	ld	r25, X
    3dac:	11 97       	sbiw	r26, 0x01	; 1
    3dae:	e8 0f       	add	r30, r24
    3db0:	f9 1f       	adc	r31, r25
    3db2:	20 81       	ld	r18, Z
    _rx_buffer->tail = (unsigned int)(_rx_buffer->tail + 1) % SERIAL_BUFFER_SIZE;
    3db4:	8d 91       	ld	r24, X+
    3db6:	9c 91       	ld	r25, X
    3db8:	11 97       	sbiw	r26, 0x01	; 1
    3dba:	01 96       	adiw	r24, 0x01	; 1
    3dbc:	8f 73       	andi	r24, 0x3F	; 63
    3dbe:	90 70       	andi	r25, 0x00	; 0
    3dc0:	11 96       	adiw	r26, 0x01	; 1
    3dc2:	9c 93       	st	X, r25
    3dc4:	8e 93       	st	-X, r24
    return c;
    3dc6:	30 e0       	ldi	r19, 0x00	; 0
  }
}
    3dc8:	c9 01       	movw	r24, r18
    3dca:	08 95       	ret

00003dcc <_ZN14HardwareSerial5flushEv>:

void HardwareSerial::flush()
    3dcc:	dc 01       	movw	r26, r24
{
  // UDR is kept full while the buffer is not empty, so TXC triggers when EMPTY && SENT
  while (transmitting && ! (*_ucsra & _BV(TXC0)));
    3dce:	91 96       	adiw	r26, 0x21	; 33
    3dd0:	8c 91       	ld	r24, X
    3dd2:	91 97       	sbiw	r26, 0x21	; 33
    3dd4:	88 23       	and	r24, r24
    3dd6:	39 f0       	breq	.+14     	; 0x3de6 <_ZN14HardwareSerial5flushEv+0x1a>
    3dd8:	54 96       	adiw	r26, 0x14	; 20
    3dda:	ed 91       	ld	r30, X+
    3ddc:	fc 91       	ld	r31, X
    3dde:	55 97       	sbiw	r26, 0x15	; 21
    3de0:	80 81       	ld	r24, Z
    3de2:	86 ff       	sbrs	r24, 6
    3de4:	f9 cf       	rjmp	.-14     	; 0x3dd8 <_ZN14HardwareSerial5flushEv+0xc>
  transmitting = false;
    3de6:	91 96       	adiw	r26, 0x21	; 33
    3de8:	1c 92       	st	X, r1
}
    3dea:	08 95       	ret

00003dec <_ZN14HardwareSerial5writeEh>:

size_t HardwareSerial::write(uint8_t c)
    3dec:	cf 93       	push	r28
    3dee:	df 93       	push	r29
    3df0:	ec 01       	movw	r28, r24
{
  int i = (_tx_buffer->head + 1) % SERIAL_BUFFER_SIZE;
    3df2:	ee 85       	ldd	r30, Y+14	; 0x0e
    3df4:	ff 85       	ldd	r31, Y+15	; 0x0f
    3df6:	e0 5c       	subi	r30, 0xC0	; 192
    3df8:	ff 4f       	sbci	r31, 0xFF	; 255
    3dfa:	20 81       	ld	r18, Z
    3dfc:	31 81       	ldd	r19, Z+1	; 0x01
    3dfe:	e0 54       	subi	r30, 0x40	; 64
    3e00:	f0 40       	sbci	r31, 0x00	; 0
    3e02:	2f 5f       	subi	r18, 0xFF	; 255
    3e04:	3f 4f       	sbci	r19, 0xFF	; 255
    3e06:	2f 73       	andi	r18, 0x3F	; 63
    3e08:	30 70       	andi	r19, 0x00	; 0
	
  // If the output buffer is full, there's nothing for it other than to 
  // wait for the interrupt handler to empty it a bit
  // ???: return 0 here instead?
  while (i == _tx_buffer->tail)
    3e0a:	df 01       	movw	r26, r30
    3e0c:	ae 5b       	subi	r26, 0xBE	; 190
    3e0e:	bf 4f       	sbci	r27, 0xFF	; 255
    3e10:	8d 91       	ld	r24, X+
    3e12:	9c 91       	ld	r25, X
    3e14:	11 97       	sbiw	r26, 0x01	; 1
    3e16:	28 17       	cp	r18, r24
    3e18:	39 07       	cpc	r19, r25
    3e1a:	d1 f3       	breq	.-12     	; 0x3e10 <_ZN14HardwareSerial5writeEh+0x24>
    ;
	
  _tx_buffer->buffer[_tx_buffer->head] = c;
    3e1c:	e0 5c       	subi	r30, 0xC0	; 192
    3e1e:	ff 4f       	sbci	r31, 0xFF	; 255
    3e20:	80 81       	ld	r24, Z
    3e22:	91 81       	ldd	r25, Z+1	; 0x01
    3e24:	e0 54       	subi	r30, 0x40	; 64
    3e26:	f0 40       	sbci	r31, 0x00	; 0
    3e28:	e8 0f       	add	r30, r24
    3e2a:	f9 1f       	adc	r31, r25
    3e2c:	60 83       	st	Z, r22
  _tx_buffer->head = i;
    3e2e:	ee 85       	ldd	r30, Y+14	; 0x0e
    3e30:	ff 85       	ldd	r31, Y+15	; 0x0f
    3e32:	e0 5c       	subi	r30, 0xC0	; 192
    3e34:	ff 4f       	sbci	r31, 0xFF	; 255
    3e36:	31 83       	std	Z+1, r19	; 0x01
    3e38:	20 83       	st	Z, r18
	
  sbi(*_ucsrb, _udrie);
    3e3a:	ee 89       	ldd	r30, Y+22	; 0x16
    3e3c:	ff 89       	ldd	r31, Y+23	; 0x17
    3e3e:	20 81       	ld	r18, Z
    3e40:	81 e0       	ldi	r24, 0x01	; 1
    3e42:	90 e0       	ldi	r25, 0x00	; 0
    3e44:	0f 8c       	ldd	r0, Y+31	; 0x1f
    3e46:	02 c0       	rjmp	.+4      	; 0x3e4c <_ZN14HardwareSerial5writeEh+0x60>
    3e48:	88 0f       	add	r24, r24
    3e4a:	99 1f       	adc	r25, r25
    3e4c:	0a 94       	dec	r0
    3e4e:	e2 f7       	brpl	.-8      	; 0x3e48 <_ZN14HardwareSerial5writeEh+0x5c>
    3e50:	28 2b       	or	r18, r24
    3e52:	20 83       	st	Z, r18
  // clear the TXC bit -- "can be cleared by writing a one to its bit location"
  transmitting = true;
    3e54:	81 e0       	ldi	r24, 0x01	; 1
    3e56:	89 a3       	std	Y+33, r24	; 0x21
  sbi(*_ucsra, TXC0);
    3e58:	ec 89       	ldd	r30, Y+20	; 0x14
    3e5a:	fd 89       	ldd	r31, Y+21	; 0x15
    3e5c:	80 81       	ld	r24, Z
    3e5e:	80 64       	ori	r24, 0x40	; 64
    3e60:	80 83       	st	Z, r24
  
  return 1;
}
    3e62:	81 e0       	ldi	r24, 0x01	; 1
    3e64:	90 e0       	ldi	r25, 0x00	; 0
    3e66:	df 91       	pop	r29
    3e68:	cf 91       	pop	r28
    3e6a:	08 95       	ret

00003e6c <_GLOBAL__I_rx_buffer>:
    size_t printNumber(unsigned long, uint8_t);
    size_t printFloat(double, uint8_t);
  protected:
    void setWriteError(int err = 1) { write_error = err; }
  public:
    Print() : write_error(0) {}
    3e6c:	10 92 0a 06 	sts	0x060A, r1
    3e70:	10 92 09 06 	sts	0x0609, r1
    virtual int available() = 0;
    virtual int read() = 0;
    virtual int peek() = 0;
    virtual void flush() = 0;

    Stream() {_timeout=1000;}
    3e74:	88 ee       	ldi	r24, 0xE8	; 232
    3e76:	93 e0       	ldi	r25, 0x03	; 3
    3e78:	a0 e0       	ldi	r26, 0x00	; 0
    3e7a:	b0 e0       	ldi	r27, 0x00	; 0
    3e7c:	80 93 0b 06 	sts	0x060B, r24
    3e80:	90 93 0c 06 	sts	0x060C, r25
    3e84:	a0 93 0d 06 	sts	0x060D, r26
    3e88:	b0 93 0e 06 	sts	0x060E, r27

HardwareSerial::HardwareSerial(ring_buffer *rx_buffer, ring_buffer *tx_buffer,
  volatile uint8_t *ubrrh, volatile uint8_t *ubrrl,
  volatile uint8_t *ucsra, volatile uint8_t *ucsrb,
  volatile uint8_t *ucsrc, volatile uint8_t *udr,
  uint8_t rxen, uint8_t txen, uint8_t rxcie, uint8_t udrie, uint8_t u2x)
    3e8c:	86 e4       	ldi	r24, 0x46	; 70
    3e8e:	93 e0       	ldi	r25, 0x03	; 3
    3e90:	90 93 08 06 	sts	0x0608, r25
    3e94:	80 93 07 06 	sts	0x0607, r24
{
  _rx_buffer = rx_buffer;
    3e98:	8f e7       	ldi	r24, 0x7F	; 127
    3e9a:	95 e0       	ldi	r25, 0x05	; 5
    3e9c:	90 93 14 06 	sts	0x0614, r25
    3ea0:	80 93 13 06 	sts	0x0613, r24
  _tx_buffer = tx_buffer;
    3ea4:	83 ec       	ldi	r24, 0xC3	; 195
    3ea6:	95 e0       	ldi	r25, 0x05	; 5
    3ea8:	90 93 16 06 	sts	0x0616, r25
    3eac:	80 93 15 06 	sts	0x0615, r24
  _ubrrh = ubrrh;
    3eb0:	85 ec       	ldi	r24, 0xC5	; 197
    3eb2:	90 e0       	ldi	r25, 0x00	; 0
    3eb4:	90 93 18 06 	sts	0x0618, r25
    3eb8:	80 93 17 06 	sts	0x0617, r24
  _ubrrl = ubrrl;
    3ebc:	84 ec       	ldi	r24, 0xC4	; 196
    3ebe:	90 e0       	ldi	r25, 0x00	; 0
    3ec0:	90 93 1a 06 	sts	0x061A, r25
    3ec4:	80 93 19 06 	sts	0x0619, r24
  _ucsra = ucsra;
    3ec8:	80 ec       	ldi	r24, 0xC0	; 192
    3eca:	90 e0       	ldi	r25, 0x00	; 0
    3ecc:	90 93 1c 06 	sts	0x061C, r25
    3ed0:	80 93 1b 06 	sts	0x061B, r24
  _ucsrb = ucsrb;
    3ed4:	81 ec       	ldi	r24, 0xC1	; 193
    3ed6:	90 e0       	ldi	r25, 0x00	; 0
    3ed8:	90 93 1e 06 	sts	0x061E, r25
    3edc:	80 93 1d 06 	sts	0x061D, r24
  _ucsrc = ucsrc;
    3ee0:	82 ec       	ldi	r24, 0xC2	; 194
    3ee2:	90 e0       	ldi	r25, 0x00	; 0
    3ee4:	90 93 20 06 	sts	0x0620, r25
    3ee8:	80 93 1f 06 	sts	0x061F, r24
  _udr = udr;
    3eec:	86 ec       	ldi	r24, 0xC6	; 198
    3eee:	90 e0       	ldi	r25, 0x00	; 0
    3ef0:	90 93 22 06 	sts	0x0622, r25
    3ef4:	80 93 21 06 	sts	0x0621, r24
  _rxen = rxen;
    3ef8:	84 e0       	ldi	r24, 0x04	; 4
    3efa:	80 93 23 06 	sts	0x0623, r24
  _txen = txen;
    3efe:	83 e0       	ldi	r24, 0x03	; 3
    3f00:	80 93 24 06 	sts	0x0624, r24
  _rxcie = rxcie;
    3f04:	87 e0       	ldi	r24, 0x07	; 7
    3f06:	80 93 25 06 	sts	0x0625, r24
  _udrie = udrie;
    3f0a:	85 e0       	ldi	r24, 0x05	; 5
    3f0c:	80 93 26 06 	sts	0x0626, r24
  _u2x = u2x;
    3f10:	81 e0       	ldi	r24, 0x01	; 1
    3f12:	80 93 27 06 	sts	0x0627, r24
// Preinstantiate Objects //////////////////////////////////////////////////////

#if defined(UBRRH) && defined(UBRRL)
  HardwareSerial Serial(&rx_buffer, &tx_buffer, &UBRRH, &UBRRL, &UCSRA, &UCSRB, &UCSRC, &UDR, RXEN, TXEN, RXCIE, UDRIE, U2X);
#elif defined(UBRR0H) && defined(UBRR0L)
  HardwareSerial Serial(&rx_buffer, &tx_buffer, &UBRR0H, &UBRR0L, &UCSR0A, &UCSR0B, &UCSR0C, &UDR0, RXEN0, TXEN0, RXCIE0, UDRIE0, U2X0);
    3f16:	08 95       	ret

00003f18 <_ZN5Print5writeEPKhj>:
#include "Print.h"

// Public Methods //////////////////////////////////////////////////////////////

/* default implementation: may be overridden */
size_t Print::write(const uint8_t *buffer, size_t size)
    3f18:	cf 92       	push	r12
    3f1a:	df 92       	push	r13
    3f1c:	ef 92       	push	r14
    3f1e:	ff 92       	push	r15
    3f20:	0f 93       	push	r16
    3f22:	1f 93       	push	r17
    3f24:	cf 93       	push	r28
    3f26:	df 93       	push	r29
    3f28:	7c 01       	movw	r14, r24
    3f2a:	6b 01       	movw	r12, r22
    3f2c:	8a 01       	movw	r16, r20
    3f2e:	c0 e0       	ldi	r28, 0x00	; 0
    3f30:	d0 e0       	ldi	r29, 0x00	; 0
    3f32:	0f c0       	rjmp	.+30     	; 0x3f52 <_ZN5Print5writeEPKhj+0x3a>
{
  size_t n = 0;
  while (size--) {
    n += write(*buffer++);
    3f34:	d6 01       	movw	r26, r12
    3f36:	6d 91       	ld	r22, X+
    3f38:	6d 01       	movw	r12, r26
    3f3a:	d7 01       	movw	r26, r14
    3f3c:	ed 91       	ld	r30, X+
    3f3e:	fc 91       	ld	r31, X
    3f40:	01 90       	ld	r0, Z+
    3f42:	f0 81       	ld	r31, Z
    3f44:	e0 2d       	mov	r30, r0
    3f46:	c7 01       	movw	r24, r14
    3f48:	09 95       	icall
    3f4a:	c8 0f       	add	r28, r24
    3f4c:	d9 1f       	adc	r29, r25
    3f4e:	01 50       	subi	r16, 0x01	; 1
    3f50:	10 40       	sbci	r17, 0x00	; 0

/* default implementation: may be overridden */
size_t Print::write(const uint8_t *buffer, size_t size)
{
  size_t n = 0;
  while (size--) {
    3f52:	01 15       	cp	r16, r1
    3f54:	11 05       	cpc	r17, r1
    3f56:	71 f7       	brne	.-36     	; 0x3f34 <_ZN5Print5writeEPKhj+0x1c>
    n += write(*buffer++);
  }
  return n;
}
    3f58:	ce 01       	movw	r24, r28
    3f5a:	df 91       	pop	r29
    3f5c:	cf 91       	pop	r28
    3f5e:	1f 91       	pop	r17
    3f60:	0f 91       	pop	r16
    3f62:	ff 90       	pop	r15
    3f64:	ef 90       	pop	r14
    3f66:	df 90       	pop	r13
    3f68:	cf 90       	pop	r12
    3f6a:	08 95       	ret

00003f6c <_ZN5Print7printlnEv>:
size_t Print::print(const Printable& x)
{
  return x.printTo(*this);
}

size_t Print::println(void)
    3f6c:	ef 92       	push	r14
    3f6e:	ff 92       	push	r15
    3f70:	0f 93       	push	r16
    3f72:	1f 93       	push	r17
    3f74:	8c 01       	movw	r16, r24
  return write(str);
}

size_t Print::print(char c)
{
  return write(c);
    3f76:	dc 01       	movw	r26, r24
    3f78:	ed 91       	ld	r30, X+
    3f7a:	fc 91       	ld	r31, X
    3f7c:	01 90       	ld	r0, Z+
    3f7e:	f0 81       	ld	r31, Z
    3f80:	e0 2d       	mov	r30, r0
    3f82:	6d e0       	ldi	r22, 0x0D	; 13
    3f84:	09 95       	icall
    3f86:	7c 01       	movw	r14, r24
size_t Print::println(void)
{
  size_t n = print('\r');
  n += print('\n');
  return n;
}
    3f88:	d8 01       	movw	r26, r16
    3f8a:	ed 91       	ld	r30, X+
    3f8c:	fc 91       	ld	r31, X
    3f8e:	01 90       	ld	r0, Z+
    3f90:	f0 81       	ld	r31, Z
    3f92:	e0 2d       	mov	r30, r0
    3f94:	c8 01       	movw	r24, r16
    3f96:	6a e0       	ldi	r22, 0x0A	; 10
    3f98:	09 95       	icall
    3f9a:	9c 01       	movw	r18, r24
    3f9c:	2e 0d       	add	r18, r14
    3f9e:	3f 1d       	adc	r19, r15
    3fa0:	c9 01       	movw	r24, r18
    3fa2:	1f 91       	pop	r17
    3fa4:	0f 91       	pop	r16
    3fa6:	ff 90       	pop	r15
    3fa8:	ef 90       	pop	r14
    3faa:	08 95       	ret

00003fac <_ZN5Print5writeEPKc>:
  
    int getWriteError() { return write_error; }
    void clearWriteError() { setWriteError(0); }
  
    virtual size_t write(uint8_t) = 0;
    size_t write(const char *str) {
    3fac:	cf 93       	push	r28
    3fae:	df 93       	push	r29
    3fb0:	ec 01       	movw	r28, r24
      if (str == NULL) return 0;
    3fb2:	61 15       	cp	r22, r1
    3fb4:	71 05       	cpc	r23, r1
    3fb6:	19 f4       	brne	.+6      	; 0x3fbe <_ZN5Print5writeEPKc+0x12>
    3fb8:	20 e0       	ldi	r18, 0x00	; 0
    3fba:	30 e0       	ldi	r19, 0x00	; 0
    3fbc:	0f c0       	rjmp	.+30     	; 0x3fdc <_ZN5Print5writeEPKc+0x30>
      return write((const uint8_t *)str, strlen(str));
    3fbe:	db 01       	movw	r26, r22
    3fc0:	0d 90       	ld	r0, X+
    3fc2:	00 20       	and	r0, r0
    3fc4:	e9 f7       	brne	.-6      	; 0x3fc0 <_ZN5Print5writeEPKc+0x14>
    3fc6:	11 97       	sbiw	r26, 0x01	; 1
    3fc8:	a6 1b       	sub	r26, r22
    3fca:	b7 0b       	sbc	r27, r23
    3fcc:	e8 81       	ld	r30, Y
    3fce:	f9 81       	ldd	r31, Y+1	; 0x01
    3fd0:	02 80       	ldd	r0, Z+2	; 0x02
    3fd2:	f3 81       	ldd	r31, Z+3	; 0x03
    3fd4:	e0 2d       	mov	r30, r0
    3fd6:	ad 01       	movw	r20, r26
    3fd8:	09 95       	icall
    3fda:	9c 01       	movw	r18, r24
    }
    3fdc:	c9 01       	movw	r24, r18
    3fde:	df 91       	pop	r29
    3fe0:	cf 91       	pop	r28
    3fe2:	08 95       	ret

00003fe4 <_ZN5Print11printNumberEmh>:
  return n;
}

// Private Methods /////////////////////////////////////////////////////////////

size_t Print::printNumber(unsigned long n, uint8_t base) {
    3fe4:	4f 92       	push	r4
    3fe6:	5f 92       	push	r5
    3fe8:	7f 92       	push	r7
    3fea:	8f 92       	push	r8
    3fec:	9f 92       	push	r9
    3fee:	af 92       	push	r10
    3ff0:	bf 92       	push	r11
    3ff2:	cf 92       	push	r12
    3ff4:	df 92       	push	r13
    3ff6:	ef 92       	push	r14
    3ff8:	ff 92       	push	r15
    3ffa:	0f 93       	push	r16
    3ffc:	1f 93       	push	r17
    3ffe:	df 93       	push	r29
    4000:	cf 93       	push	r28
    4002:	cd b7       	in	r28, 0x3d	; 61
    4004:	de b7       	in	r29, 0x3e	; 62
    4006:	a1 97       	sbiw	r28, 0x21	; 33
    4008:	0f b6       	in	r0, 0x3f	; 63
    400a:	f8 94       	cli
    400c:	de bf       	out	0x3e, r29	; 62
    400e:	0f be       	out	0x3f, r0	; 63
    4010:	cd bf       	out	0x3d, r28	; 61
    4012:	2c 01       	movw	r4, r24
    4014:	74 2e       	mov	r7, r20
    4016:	cb 01       	movw	r24, r22
  char *str = &buf[sizeof(buf) - 1];

  *str = '\0';

  // prevent crash if called with base == 1
  if (base < 2) base = 10;
    4018:	22 30       	cpi	r18, 0x02	; 2
    401a:	08 f4       	brcc	.+2      	; 0x401e <_ZN5Print11printNumberEmh+0x3a>
    401c:	2a e0       	ldi	r18, 0x0A	; 10

size_t Print::printNumber(unsigned long n, uint8_t base) {
  char buf[8 * sizeof(long) + 1]; // Assumes 8-bit chars plus zero byte.
  char *str = &buf[sizeof(buf) - 1];

  *str = '\0';
    401e:	19 a2       	std	Y+33, r1	; 0x21
    4020:	31 e2       	ldi	r19, 0x21	; 33
    4022:	c3 2e       	mov	r12, r19
    4024:	d1 2c       	mov	r13, r1
    4026:	cc 0e       	add	r12, r28
    4028:	dd 1e       	adc	r13, r29
  // prevent crash if called with base == 1
  if (base < 2) base = 10;

  do {
    unsigned long m = n;
    n /= base;
    402a:	82 2e       	mov	r8, r18
    402c:	99 24       	eor	r9, r9
    402e:	aa 24       	eor	r10, r10
    4030:	bb 24       	eor	r11, r11
    4032:	67 2d       	mov	r22, r7
    4034:	75 2f       	mov	r23, r21
    4036:	a5 01       	movw	r20, r10
    4038:	94 01       	movw	r18, r8
    403a:	0e 94 22 23 	call	0x4644	; 0x4644 <__udivmodsi4>
    403e:	79 01       	movw	r14, r18
    4040:	8a 01       	movw	r16, r20
    char c = m - base * n;
    4042:	c8 01       	movw	r24, r16
    4044:	b7 01       	movw	r22, r14
    4046:	a5 01       	movw	r20, r10
    4048:	94 01       	movw	r18, r8
    404a:	0e 94 ef 22 	call	0x45de	; 0x45de <__mulsi3>
    404e:	47 2d       	mov	r20, r7
    4050:	46 1b       	sub	r20, r22
    *--str = c < 10 ? c + '0' : c + 'A' - 10;
    4052:	08 94       	sec
    4054:	c1 08       	sbc	r12, r1
    4056:	d1 08       	sbc	r13, r1
    4058:	4a 30       	cpi	r20, 0x0A	; 10
    405a:	14 f4       	brge	.+4      	; 0x4060 <_ZN5Print11printNumberEmh+0x7c>
    405c:	40 5d       	subi	r20, 0xD0	; 208
    405e:	01 c0       	rjmp	.+2      	; 0x4062 <_ZN5Print11printNumberEmh+0x7e>
    4060:	49 5c       	subi	r20, 0xC9	; 201
    4062:	f6 01       	movw	r30, r12
    4064:	40 83       	st	Z, r20
  *str = '\0';

  // prevent crash if called with base == 1
  if (base < 2) base = 10;

  do {
    4066:	e1 14       	cp	r14, r1
    4068:	f1 04       	cpc	r15, r1
    406a:	01 05       	cpc	r16, r1
    406c:	11 05       	cpc	r17, r1
    406e:	21 f0       	breq	.+8      	; 0x4078 <_ZN5Print11printNumberEmh+0x94>
    4070:	7e 2c       	mov	r7, r14
    4072:	5f 2d       	mov	r21, r15
    4074:	c8 01       	movw	r24, r16
    4076:	dd cf       	rjmp	.-70     	; 0x4032 <_ZN5Print11printNumberEmh+0x4e>
    n /= base;
    char c = m - base * n;
    *--str = c < 10 ? c + '0' : c + 'A' - 10;
  } while(n);

  return write(str);
    4078:	c2 01       	movw	r24, r4
    407a:	b6 01       	movw	r22, r12
    407c:	0e 94 d6 1f 	call	0x3fac	; 0x3fac <_ZN5Print5writeEPKc>
}
    4080:	a1 96       	adiw	r28, 0x21	; 33
    4082:	0f b6       	in	r0, 0x3f	; 63
    4084:	f8 94       	cli
    4086:	de bf       	out	0x3e, r29	; 62
    4088:	0f be       	out	0x3f, r0	; 63
    408a:	cd bf       	out	0x3d, r28	; 61
    408c:	cf 91       	pop	r28
    408e:	df 91       	pop	r29
    4090:	1f 91       	pop	r17
    4092:	0f 91       	pop	r16
    4094:	ff 90       	pop	r15
    4096:	ef 90       	pop	r14
    4098:	df 90       	pop	r13
    409a:	cf 90       	pop	r12
    409c:	bf 90       	pop	r11
    409e:	af 90       	pop	r10
    40a0:	9f 90       	pop	r9
    40a2:	8f 90       	pop	r8
    40a4:	7f 90       	pop	r7
    40a6:	5f 90       	pop	r5
    40a8:	4f 90       	pop	r4
    40aa:	08 95       	ret

000040ac <_ZN5Print5printEmi>:
  } else {
    return printNumber(n, base);
  }
}

size_t Print::print(unsigned long n, int base)
    40ac:	dc 01       	movw	r26, r24
{
  if (base == 0) return write(n);
    40ae:	21 15       	cp	r18, r1
    40b0:	31 05       	cpc	r19, r1
    40b2:	41 f4       	brne	.+16     	; 0x40c4 <_ZN5Print5printEmi+0x18>
    40b4:	ed 91       	ld	r30, X+
    40b6:	fc 91       	ld	r31, X
    40b8:	01 90       	ld	r0, Z+
    40ba:	f0 81       	ld	r31, Z
    40bc:	e0 2d       	mov	r30, r0
    40be:	64 2f       	mov	r22, r20
    40c0:	09 95       	icall
    40c2:	08 95       	ret
  else return printNumber(n, base);
    40c4:	0e 94 f2 1f 	call	0x3fe4	; 0x3fe4 <_ZN5Print11printNumberEmh>
}
    40c8:	08 95       	ret

000040ca <_ZN5Print5printEli>:
size_t Print::print(unsigned int n, int base)
{
  return print((unsigned long) n, base);
}

size_t Print::print(long n, int base)
    40ca:	cf 92       	push	r12
    40cc:	df 92       	push	r13
    40ce:	ef 92       	push	r14
    40d0:	ff 92       	push	r15
    40d2:	0f 93       	push	r16
    40d4:	1f 93       	push	r17
    40d6:	cf 93       	push	r28
    40d8:	df 93       	push	r29
    40da:	ec 01       	movw	r28, r24
    40dc:	6a 01       	movw	r12, r20
    40de:	7b 01       	movw	r14, r22
{
  if (base == 0) {
    40e0:	21 15       	cp	r18, r1
    40e2:	31 05       	cpc	r19, r1
    40e4:	41 f4       	brne	.+16     	; 0x40f6 <_ZN5Print5printEli+0x2c>
    return write(n);
    40e6:	e8 81       	ld	r30, Y
    40e8:	f9 81       	ldd	r31, Y+1	; 0x01
    40ea:	01 90       	ld	r0, Z+
    40ec:	f0 81       	ld	r31, Z
    40ee:	e0 2d       	mov	r30, r0
    40f0:	64 2f       	mov	r22, r20
    40f2:	09 95       	icall
    40f4:	1f c0       	rjmp	.+62     	; 0x4134 <_ZN5Print5printEli+0x6a>
  } else if (base == 10) {
    40f6:	2a 30       	cpi	r18, 0x0A	; 10
    40f8:	31 05       	cpc	r19, r1
    40fa:	d1 f4       	brne	.+52     	; 0x4130 <_ZN5Print5printEli+0x66>
    if (n < 0) {
    40fc:	77 ff       	sbrs	r23, 7
    40fe:	17 c0       	rjmp	.+46     	; 0x412e <_ZN5Print5printEli+0x64>
  return write(str);
}

size_t Print::print(char c)
{
  return write(c);
    4100:	e8 81       	ld	r30, Y
    4102:	f9 81       	ldd	r31, Y+1	; 0x01
    4104:	01 90       	ld	r0, Z+
    4106:	f0 81       	ld	r31, Z
    4108:	e0 2d       	mov	r30, r0
    410a:	6d e2       	ldi	r22, 0x2D	; 45
    410c:	09 95       	icall
    410e:	8c 01       	movw	r16, r24
    return write(n);
  } else if (base == 10) {
    if (n < 0) {
      int t = print('-');
      n = -n;
      return printNumber(n, 10) + t;
    4110:	44 27       	eor	r20, r20
    4112:	55 27       	eor	r21, r21
    4114:	ba 01       	movw	r22, r20
    4116:	4c 19       	sub	r20, r12
    4118:	5d 09       	sbc	r21, r13
    411a:	6e 09       	sbc	r22, r14
    411c:	7f 09       	sbc	r23, r15
    411e:	ce 01       	movw	r24, r28
    4120:	2a e0       	ldi	r18, 0x0A	; 10
    4122:	0e 94 f2 1f 	call	0x3fe4	; 0x3fe4 <_ZN5Print11printNumberEmh>
    4126:	98 01       	movw	r18, r16
    4128:	28 0f       	add	r18, r24
    412a:	39 1f       	adc	r19, r25
    412c:	04 c0       	rjmp	.+8      	; 0x4136 <_ZN5Print5printEli+0x6c>
    }
    return printNumber(n, 10);
    412e:	2a e0       	ldi	r18, 0x0A	; 10
  } else {
    return printNumber(n, base);
    4130:	0e 94 f2 1f 	call	0x3fe4	; 0x3fe4 <_ZN5Print11printNumberEmh>
    4134:	9c 01       	movw	r18, r24
  }
}
    4136:	c9 01       	movw	r24, r18
    4138:	df 91       	pop	r29
    413a:	cf 91       	pop	r28
    413c:	1f 91       	pop	r17
    413e:	0f 91       	pop	r16
    4140:	ff 90       	pop	r15
    4142:	ef 90       	pop	r14
    4144:	df 90       	pop	r13
    4146:	cf 90       	pop	r12
    4148:	08 95       	ret

0000414a <_ZN5Print5printEii>:
size_t Print::print(unsigned char b, int base)
{
  return print((unsigned long) b, base);
}

size_t Print::print(int n, int base)
    414a:	ef 92       	push	r14
    414c:	ff 92       	push	r15
    414e:	0f 93       	push	r16
    4150:	1f 93       	push	r17
    4152:	7b 01       	movw	r14, r22
    4154:	9a 01       	movw	r18, r20
{
  return print((long) n, base);
    4156:	00 27       	eor	r16, r16
    4158:	f7 fc       	sbrc	r15, 7
    415a:	00 95       	com	r16
    415c:	10 2f       	mov	r17, r16
    415e:	b8 01       	movw	r22, r16
    4160:	a7 01       	movw	r20, r14
    4162:	0e 94 65 20 	call	0x40ca	; 0x40ca <_ZN5Print5printEli>
}
    4166:	1f 91       	pop	r17
    4168:	0f 91       	pop	r16
    416a:	ff 90       	pop	r15
    416c:	ef 90       	pop	r14
    416e:	08 95       	ret

00004170 <_ZN5Print5printEPKc>:
  return n;
}

size_t Print::print(const char str[])
{
  return write(str);
    4170:	0e 94 d6 1f 	call	0x3fac	; 0x3fac <_ZN5Print5writeEPKc>
}
    4174:	08 95       	ret

00004176 <_ZN5Print7printlnEPKc>:
  size_t n = print(s);
  n += println();
  return n;
}

size_t Print::println(const char c[])
    4176:	ef 92       	push	r14
    4178:	ff 92       	push	r15
    417a:	0f 93       	push	r16
    417c:	1f 93       	push	r17
    417e:	7c 01       	movw	r14, r24
  return n;
}

size_t Print::print(const char str[])
{
  return write(str);
    4180:	0e 94 d6 1f 	call	0x3fac	; 0x3fac <_ZN5Print5writeEPKc>
    4184:	8c 01       	movw	r16, r24
}

size_t Print::println(const char c[])
{
  size_t n = print(c);
  n += println();
    4186:	c7 01       	movw	r24, r14
    4188:	0e 94 b6 1f 	call	0x3f6c	; 0x3f6c <_ZN5Print7printlnEv>
    418c:	08 0f       	add	r16, r24
    418e:	19 1f       	adc	r17, r25
  return n;
}
    4190:	c8 01       	movw	r24, r16
    4192:	1f 91       	pop	r17
    4194:	0f 91       	pop	r16
    4196:	ff 90       	pop	r15
    4198:	ef 90       	pop	r14
    419a:	08 95       	ret

0000419c <attachInterrupt>:

static volatile voidFuncPtr intFunc[EXTERNAL_NUM_INTERRUPTS];
// volatile static voidFuncPtr twiIntFunc;

void attachInterrupt(uint8_t interruptNum, void (*userFunc)(void), int mode) {
  if(interruptNum < EXTERNAL_NUM_INTERRUPTS) {
    419c:	82 30       	cpi	r24, 0x02	; 2
    419e:	00 f5       	brcc	.+64     	; 0x41e0 <attachInterrupt+0x44>
    intFunc[interruptNum] = userFunc;
    41a0:	e8 2f       	mov	r30, r24
    41a2:	f0 e0       	ldi	r31, 0x00	; 0
    41a4:	ee 0f       	add	r30, r30
    41a6:	ff 1f       	adc	r31, r31
    41a8:	e7 5d       	subi	r30, 0xD7	; 215
    41aa:	f9 4f       	sbci	r31, 0xF9	; 249
    41ac:	71 83       	std	Z+1, r23	; 0x01
    41ae:	60 83       	st	Z, r22
    // to the configuration bits in the hardware register, so we simply shift
    // the mode into place.
      
    // Enable the interrupt.
      
    switch (interruptNum) {
    41b0:	88 23       	and	r24, r24
    41b2:	19 f0       	breq	.+6      	; 0x41ba <attachInterrupt+0x1e>
    41b4:	81 30       	cpi	r24, 0x01	; 1
    41b6:	a1 f4       	brne	.+40     	; 0x41e0 <attachInterrupt+0x44>
    41b8:	08 c0       	rjmp	.+16     	; 0x41ca <attachInterrupt+0x2e>
      EIMSK |= (1 << INT7);
      break;
#else		
    case 0:
    #if defined(EICRA) && defined(ISC00) && defined(EIMSK)
      EICRA = (EICRA & ~((1 << ISC00) | (1 << ISC01))) | (mode << ISC00);
    41ba:	80 91 69 00 	lds	r24, 0x0069
    41be:	8c 7f       	andi	r24, 0xFC	; 252
    41c0:	84 2b       	or	r24, r20
    41c2:	80 93 69 00 	sts	0x0069, r24
      EIMSK |= (1 << INT0);
    41c6:	e8 9a       	sbi	0x1d, 0	; 29
    41c8:	08 95       	ret
    #endif
      break;

    case 1:
    #if defined(EICRA) && defined(ISC10) && defined(ISC11) && defined(EIMSK)
      EICRA = (EICRA & ~((1 << ISC10) | (1 << ISC11))) | (mode << ISC10);
    41ca:	80 91 69 00 	lds	r24, 0x0069
    41ce:	44 0f       	add	r20, r20
    41d0:	55 1f       	adc	r21, r21
    41d2:	44 0f       	add	r20, r20
    41d4:	55 1f       	adc	r21, r21
    41d6:	83 7f       	andi	r24, 0xF3	; 243
    41d8:	84 2b       	or	r24, r20
    41da:	80 93 69 00 	sts	0x0069, r24
      EIMSK |= (1 << INT1);
    41de:	e9 9a       	sbi	0x1d, 1	; 29
    41e0:	08 95       	ret

000041e2 <__vector_1>:
    intFunc[EXTERNAL_INT_7]();
}

#else

SIGNAL(INT0_vect) {
    41e2:	1f 92       	push	r1
    41e4:	0f 92       	push	r0
    41e6:	0f b6       	in	r0, 0x3f	; 63
    41e8:	0f 92       	push	r0
    41ea:	11 24       	eor	r1, r1
    41ec:	2f 93       	push	r18
    41ee:	3f 93       	push	r19
    41f0:	4f 93       	push	r20
    41f2:	5f 93       	push	r21
    41f4:	6f 93       	push	r22
    41f6:	7f 93       	push	r23
    41f8:	8f 93       	push	r24
    41fa:	9f 93       	push	r25
    41fc:	af 93       	push	r26
    41fe:	bf 93       	push	r27
    4200:	ef 93       	push	r30
    4202:	ff 93       	push	r31
  if(intFunc[EXTERNAL_INT_0])
    4204:	80 91 29 06 	lds	r24, 0x0629
    4208:	90 91 2a 06 	lds	r25, 0x062A
    420c:	89 2b       	or	r24, r25
    420e:	29 f0       	breq	.+10     	; 0x421a <__vector_1+0x38>
    intFunc[EXTERNAL_INT_0]();
    4210:	e0 91 29 06 	lds	r30, 0x0629
    4214:	f0 91 2a 06 	lds	r31, 0x062A
    4218:	09 95       	icall
}
    421a:	ff 91       	pop	r31
    421c:	ef 91       	pop	r30
    421e:	bf 91       	pop	r27
    4220:	af 91       	pop	r26
    4222:	9f 91       	pop	r25
    4224:	8f 91       	pop	r24
    4226:	7f 91       	pop	r23
    4228:	6f 91       	pop	r22
    422a:	5f 91       	pop	r21
    422c:	4f 91       	pop	r20
    422e:	3f 91       	pop	r19
    4230:	2f 91       	pop	r18
    4232:	0f 90       	pop	r0
    4234:	0f be       	out	0x3f, r0	; 63
    4236:	0f 90       	pop	r0
    4238:	1f 90       	pop	r1
    423a:	18 95       	reti

0000423c <__vector_2>:

SIGNAL(INT1_vect) {
    423c:	1f 92       	push	r1
    423e:	0f 92       	push	r0
    4240:	0f b6       	in	r0, 0x3f	; 63
    4242:	0f 92       	push	r0
    4244:	11 24       	eor	r1, r1
    4246:	2f 93       	push	r18
    4248:	3f 93       	push	r19
    424a:	4f 93       	push	r20
    424c:	5f 93       	push	r21
    424e:	6f 93       	push	r22
    4250:	7f 93       	push	r23
    4252:	8f 93       	push	r24
    4254:	9f 93       	push	r25
    4256:	af 93       	push	r26
    4258:	bf 93       	push	r27
    425a:	ef 93       	push	r30
    425c:	ff 93       	push	r31
  if(intFunc[EXTERNAL_INT_1])
    425e:	80 91 2b 06 	lds	r24, 0x062B
    4262:	90 91 2c 06 	lds	r25, 0x062C
    4266:	89 2b       	or	r24, r25
    4268:	29 f0       	breq	.+10     	; 0x4274 <__vector_2+0x38>
    intFunc[EXTERNAL_INT_1]();
    426a:	e0 91 2b 06 	lds	r30, 0x062B
    426e:	f0 91 2c 06 	lds	r31, 0x062C
    4272:	09 95       	icall
}
    4274:	ff 91       	pop	r31
    4276:	ef 91       	pop	r30
    4278:	bf 91       	pop	r27
    427a:	af 91       	pop	r26
    427c:	9f 91       	pop	r25
    427e:	8f 91       	pop	r24
    4280:	7f 91       	pop	r23
    4282:	6f 91       	pop	r22
    4284:	5f 91       	pop	r21
    4286:	4f 91       	pop	r20
    4288:	3f 91       	pop	r19
    428a:	2f 91       	pop	r18
    428c:	0f 90       	pop	r0
    428e:	0f be       	out	0x3f, r0	; 63
    4290:	0f 90       	pop	r0
    4292:	1f 90       	pop	r1
    4294:	18 95       	reti

00004296 <main>:
#include <Arduino.h>

int main(void)
    4296:	cf 93       	push	r28
    4298:	df 93       	push	r29
{
	init();
    429a:	0e 94 21 22 	call	0x4442	; 0x4442 <init>

#if defined(USBCON)
	USBDevice.attach();
#endif
	
	setup();
    429e:	0e 94 4d 18 	call	0x309a	; 0x309a <setup>
    
	for (;;) {
		loop();
		if (serialEventRun) serialEventRun();
    42a2:	c7 eb       	ldi	r28, 0xB7	; 183
    42a4:	dd e1       	ldi	r29, 0x1D	; 29
#endif
	
	setup();
    
	for (;;) {
		loop();
    42a6:	0e 94 13 18 	call	0x3026	; 0x3026 <loop>
		if (serialEventRun) serialEventRun();
    42aa:	20 97       	sbiw	r28, 0x00	; 0
    42ac:	e1 f3       	breq	.-8      	; 0x42a6 <main+0x10>
    42ae:	0e 94 b7 1d 	call	0x3b6e	; 0x3b6e <_Z14serialEventRunv>
    42b2:	f9 cf       	rjmp	.-14     	; 0x42a6 <main+0x10>

000042b4 <__vector_16>:
#if defined(__AVR_ATtiny24__) || defined(__AVR_ATtiny44__) || defined(__AVR_ATtiny84__)
SIGNAL(TIM0_OVF_vect)
#else
SIGNAL(TIMER0_OVF_vect)
#endif
{
    42b4:	1f 92       	push	r1
    42b6:	0f 92       	push	r0
    42b8:	0f b6       	in	r0, 0x3f	; 63
    42ba:	0f 92       	push	r0
    42bc:	11 24       	eor	r1, r1
    42be:	2f 93       	push	r18
    42c0:	3f 93       	push	r19
    42c2:	8f 93       	push	r24
    42c4:	9f 93       	push	r25
    42c6:	af 93       	push	r26
    42c8:	bf 93       	push	r27
	// copy these to local variables so they can be stored in registers
	// (volatile variables must be read from memory on every access)
	unsigned long m = timer0_millis;
    42ca:	80 91 31 06 	lds	r24, 0x0631
    42ce:	90 91 32 06 	lds	r25, 0x0632
    42d2:	a0 91 33 06 	lds	r26, 0x0633
    42d6:	b0 91 34 06 	lds	r27, 0x0634
	unsigned char f = timer0_fract;
    42da:	30 91 35 06 	lds	r19, 0x0635

	m += MILLIS_INC;
    42de:	01 96       	adiw	r24, 0x01	; 1
    42e0:	a1 1d       	adc	r26, r1
    42e2:	b1 1d       	adc	r27, r1
	f += FRACT_INC;
    42e4:	23 2f       	mov	r18, r19
    42e6:	2d 5f       	subi	r18, 0xFD	; 253
	if (f >= FRACT_MAX) {
    42e8:	2d 37       	cpi	r18, 0x7D	; 125
    42ea:	20 f0       	brcs	.+8      	; 0x42f4 <__vector_16+0x40>
		f -= FRACT_MAX;
    42ec:	2d 57       	subi	r18, 0x7D	; 125
		m += 1;
    42ee:	01 96       	adiw	r24, 0x01	; 1
    42f0:	a1 1d       	adc	r26, r1
    42f2:	b1 1d       	adc	r27, r1
	}

	timer0_fract = f;
    42f4:	20 93 35 06 	sts	0x0635, r18
	timer0_millis = m;
    42f8:	80 93 31 06 	sts	0x0631, r24
    42fc:	90 93 32 06 	sts	0x0632, r25
    4300:	a0 93 33 06 	sts	0x0633, r26
    4304:	b0 93 34 06 	sts	0x0634, r27
	timer0_overflow_count++;
    4308:	80 91 2d 06 	lds	r24, 0x062D
    430c:	90 91 2e 06 	lds	r25, 0x062E
    4310:	a0 91 2f 06 	lds	r26, 0x062F
    4314:	b0 91 30 06 	lds	r27, 0x0630
    4318:	01 96       	adiw	r24, 0x01	; 1
    431a:	a1 1d       	adc	r26, r1
    431c:	b1 1d       	adc	r27, r1
    431e:	80 93 2d 06 	sts	0x062D, r24
    4322:	90 93 2e 06 	sts	0x062E, r25
    4326:	a0 93 2f 06 	sts	0x062F, r26
    432a:	b0 93 30 06 	sts	0x0630, r27
}
    432e:	bf 91       	pop	r27
    4330:	af 91       	pop	r26
    4332:	9f 91       	pop	r25
    4334:	8f 91       	pop	r24
    4336:	3f 91       	pop	r19
    4338:	2f 91       	pop	r18
    433a:	0f 90       	pop	r0
    433c:	0f be       	out	0x3f, r0	; 63
    433e:	0f 90       	pop	r0
    4340:	1f 90       	pop	r1
    4342:	18 95       	reti

00004344 <micros>:
	return m;
}

unsigned long micros() {
	unsigned long m;
	uint8_t oldSREG = SREG, t;
    4344:	9f b7       	in	r25, 0x3f	; 63
	
	cli();
    4346:	f8 94       	cli
	m = timer0_overflow_count;
    4348:	20 91 2d 06 	lds	r18, 0x062D
    434c:	30 91 2e 06 	lds	r19, 0x062E
    4350:	40 91 2f 06 	lds	r20, 0x062F
    4354:	50 91 30 06 	lds	r21, 0x0630
#if defined(TCNT0)
	t = TCNT0;
    4358:	86 b5       	in	r24, 0x26	; 38
	#error TIMER 0 not defined
#endif

  
#ifdef TIFR0
	if ((TIFR0 & _BV(TOV0)) && (t < 255))
    435a:	a8 9b       	sbis	0x15, 0	; 21
    435c:	06 c0       	rjmp	.+12     	; 0x436a <micros+0x26>
    435e:	8f 3f       	cpi	r24, 0xFF	; 255
    4360:	21 f0       	breq	.+8      	; 0x436a <micros+0x26>
		m++;
    4362:	2f 5f       	subi	r18, 0xFF	; 255
    4364:	3f 4f       	sbci	r19, 0xFF	; 255
    4366:	4f 4f       	sbci	r20, 0xFF	; 255
    4368:	5f 4f       	sbci	r21, 0xFF	; 255
#else
	if ((TIFR & _BV(TOV0)) && (t < 255))
		m++;
#endif

	SREG = oldSREG;
    436a:	9f bf       	out	0x3f, r25	; 63
    436c:	54 2f       	mov	r21, r20
    436e:	43 2f       	mov	r20, r19
    4370:	32 2f       	mov	r19, r18
    4372:	22 27       	eor	r18, r18
    4374:	28 0f       	add	r18, r24
    4376:	31 1d       	adc	r19, r1
    4378:	41 1d       	adc	r20, r1
    437a:	51 1d       	adc	r21, r1
    437c:	82 e0       	ldi	r24, 0x02	; 2
    437e:	22 0f       	add	r18, r18
    4380:	33 1f       	adc	r19, r19
    4382:	44 1f       	adc	r20, r20
    4384:	55 1f       	adc	r21, r21
    4386:	8a 95       	dec	r24
    4388:	d1 f7       	brne	.-12     	; 0x437e <micros+0x3a>
	
	return ((m << 8) + t) * (64 / clockCyclesPerMicrosecond());
}
    438a:	b9 01       	movw	r22, r18
    438c:	ca 01       	movw	r24, r20
    438e:	08 95       	ret

00004390 <delay>:

void delay(unsigned long ms)
{
    4390:	9b 01       	movw	r18, r22
    4392:	ac 01       	movw	r20, r24
	return m;
}

unsigned long micros() {
	unsigned long m;
	uint8_t oldSREG = SREG, t;
    4394:	7f b7       	in	r23, 0x3f	; 63
	
	cli();
    4396:	f8 94       	cli
	m = timer0_overflow_count;
    4398:	80 91 2d 06 	lds	r24, 0x062D
    439c:	90 91 2e 06 	lds	r25, 0x062E
    43a0:	a0 91 2f 06 	lds	r26, 0x062F
    43a4:	b0 91 30 06 	lds	r27, 0x0630
#if defined(TCNT0)
	t = TCNT0;
    43a8:	66 b5       	in	r22, 0x26	; 38
	#error TIMER 0 not defined
#endif

  
#ifdef TIFR0
	if ((TIFR0 & _BV(TOV0)) && (t < 255))
    43aa:	a8 9b       	sbis	0x15, 0	; 21
    43ac:	05 c0       	rjmp	.+10     	; 0x43b8 <delay+0x28>
    43ae:	6f 3f       	cpi	r22, 0xFF	; 255
    43b0:	19 f0       	breq	.+6      	; 0x43b8 <delay+0x28>
		m++;
    43b2:	01 96       	adiw	r24, 0x01	; 1
    43b4:	a1 1d       	adc	r26, r1
    43b6:	b1 1d       	adc	r27, r1
#else
	if ((TIFR & _BV(TOV0)) && (t < 255))
		m++;
#endif

	SREG = oldSREG;
    43b8:	7f bf       	out	0x3f, r23	; 63
	return ((m << 8) + t) * (64 / clockCyclesPerMicrosecond());
}

void delay(unsigned long ms)
{
	uint16_t start = (uint16_t)micros();
    43ba:	ba 2f       	mov	r27, r26
    43bc:	a9 2f       	mov	r26, r25
    43be:	98 2f       	mov	r25, r24
    43c0:	88 27       	eor	r24, r24
    43c2:	86 0f       	add	r24, r22
    43c4:	91 1d       	adc	r25, r1
    43c6:	a1 1d       	adc	r26, r1
    43c8:	b1 1d       	adc	r27, r1
    43ca:	62 e0       	ldi	r22, 0x02	; 2
    43cc:	88 0f       	add	r24, r24
    43ce:	99 1f       	adc	r25, r25
    43d0:	aa 1f       	adc	r26, r26
    43d2:	bb 1f       	adc	r27, r27
    43d4:	6a 95       	dec	r22
    43d6:	d1 f7       	brne	.-12     	; 0x43cc <delay+0x3c>
    43d8:	bc 01       	movw	r22, r24
    43da:	2d c0       	rjmp	.+90     	; 0x4436 <delay+0xa6>
	return m;
}

unsigned long micros() {
	unsigned long m;
	uint8_t oldSREG = SREG, t;
    43dc:	ff b7       	in	r31, 0x3f	; 63
	
	cli();
    43de:	f8 94       	cli
	m = timer0_overflow_count;
    43e0:	80 91 2d 06 	lds	r24, 0x062D
    43e4:	90 91 2e 06 	lds	r25, 0x062E
    43e8:	a0 91 2f 06 	lds	r26, 0x062F
    43ec:	b0 91 30 06 	lds	r27, 0x0630
#if defined(TCNT0)
	t = TCNT0;
    43f0:	e6 b5       	in	r30, 0x26	; 38
	#error TIMER 0 not defined
#endif

  
#ifdef TIFR0
	if ((TIFR0 & _BV(TOV0)) && (t < 255))
    43f2:	a8 9b       	sbis	0x15, 0	; 21
    43f4:	05 c0       	rjmp	.+10     	; 0x4400 <delay+0x70>
    43f6:	ef 3f       	cpi	r30, 0xFF	; 255
    43f8:	19 f0       	breq	.+6      	; 0x4400 <delay+0x70>
		m++;
    43fa:	01 96       	adiw	r24, 0x01	; 1
    43fc:	a1 1d       	adc	r26, r1
    43fe:	b1 1d       	adc	r27, r1
#else
	if ((TIFR & _BV(TOV0)) && (t < 255))
		m++;
#endif

	SREG = oldSREG;
    4400:	ff bf       	out	0x3f, r31	; 63
void delay(unsigned long ms)
{
	uint16_t start = (uint16_t)micros();

	while (ms > 0) {
		if (((uint16_t)micros() - start) >= 1000) {
    4402:	ba 2f       	mov	r27, r26
    4404:	a9 2f       	mov	r26, r25
    4406:	98 2f       	mov	r25, r24
    4408:	88 27       	eor	r24, r24
    440a:	8e 0f       	add	r24, r30
    440c:	91 1d       	adc	r25, r1
    440e:	a1 1d       	adc	r26, r1
    4410:	b1 1d       	adc	r27, r1
    4412:	e2 e0       	ldi	r30, 0x02	; 2
    4414:	88 0f       	add	r24, r24
    4416:	99 1f       	adc	r25, r25
    4418:	aa 1f       	adc	r26, r26
    441a:	bb 1f       	adc	r27, r27
    441c:	ea 95       	dec	r30
    441e:	d1 f7       	brne	.-12     	; 0x4414 <delay+0x84>
    4420:	86 1b       	sub	r24, r22
    4422:	97 0b       	sbc	r25, r23
    4424:	88 5e       	subi	r24, 0xE8	; 232
    4426:	93 40       	sbci	r25, 0x03	; 3
    4428:	c8 f2       	brcs	.-78     	; 0x43dc <delay+0x4c>
			ms--;
    442a:	21 50       	subi	r18, 0x01	; 1
    442c:	30 40       	sbci	r19, 0x00	; 0
    442e:	40 40       	sbci	r20, 0x00	; 0
    4430:	50 40       	sbci	r21, 0x00	; 0
			start += 1000;
    4432:	68 51       	subi	r22, 0x18	; 24
    4434:	7c 4f       	sbci	r23, 0xFC	; 252

void delay(unsigned long ms)
{
	uint16_t start = (uint16_t)micros();

	while (ms > 0) {
    4436:	21 15       	cp	r18, r1
    4438:	31 05       	cpc	r19, r1
    443a:	41 05       	cpc	r20, r1
    443c:	51 05       	cpc	r21, r1
    443e:	71 f6       	brne	.-100    	; 0x43dc <delay+0x4c>
		if (((uint16_t)micros() - start) >= 1000) {
			ms--;
			start += 1000;
		}
	}
}
    4440:	08 95       	ret

00004442 <init>:

void init()
{
	// this needs to be called before setup() or some functions won't
	// work there
	sei();
    4442:	78 94       	sei
	
	// on the ATmega168, timer 0 is also used for fast hardware pwm
	// (using phase-correct PWM would mean that timer 0 overflowed half as often
	// resulting in different millis() behavior on the ATmega8 and ATmega168)
#if defined(TCCR0A) && defined(WGM01)
	sbi(TCCR0A, WGM01);
    4444:	84 b5       	in	r24, 0x24	; 36
    4446:	82 60       	ori	r24, 0x02	; 2
    4448:	84 bd       	out	0x24, r24	; 36
	sbi(TCCR0A, WGM00);
    444a:	84 b5       	in	r24, 0x24	; 36
    444c:	81 60       	ori	r24, 0x01	; 1
    444e:	84 bd       	out	0x24, r24	; 36
	// this combination is for the standard atmega8
	sbi(TCCR0, CS01);
	sbi(TCCR0, CS00);
#elif defined(TCCR0B) && defined(CS01) && defined(CS00)
	// this combination is for the standard 168/328/1280/2560
	sbi(TCCR0B, CS01);
    4450:	85 b5       	in	r24, 0x25	; 37
    4452:	82 60       	ori	r24, 0x02	; 2
    4454:	85 bd       	out	0x25, r24	; 37
	sbi(TCCR0B, CS00);
    4456:	85 b5       	in	r24, 0x25	; 37
    4458:	81 60       	ori	r24, 0x01	; 1
    445a:	85 bd       	out	0x25, r24	; 37

	// enable timer 0 overflow interrupt
#if defined(TIMSK) && defined(TOIE0)
	sbi(TIMSK, TOIE0);
#elif defined(TIMSK0) && defined(TOIE0)
	sbi(TIMSK0, TOIE0);
    445c:	ee e6       	ldi	r30, 0x6E	; 110
    445e:	f0 e0       	ldi	r31, 0x00	; 0
    4460:	80 81       	ld	r24, Z
    4462:	81 60       	ori	r24, 0x01	; 1
    4464:	80 83       	st	Z, r24
	// this is better for motors as it ensures an even waveform
	// note, however, that fast pwm mode can achieve a frequency of up
	// 8 MHz (with a 16 MHz clock) at 50% duty cycle

#if defined(TCCR1B) && defined(CS11) && defined(CS10)
	TCCR1B = 0;
    4466:	e1 e8       	ldi	r30, 0x81	; 129
    4468:	f0 e0       	ldi	r31, 0x00	; 0
    446a:	10 82       	st	Z, r1

	// set timer 1 prescale factor to 64
	sbi(TCCR1B, CS11);
    446c:	80 81       	ld	r24, Z
    446e:	82 60       	ori	r24, 0x02	; 2
    4470:	80 83       	st	Z, r24
#if F_CPU >= 8000000L
	sbi(TCCR1B, CS10);
    4472:	80 81       	ld	r24, Z
    4474:	81 60       	ori	r24, 0x01	; 1
    4476:	80 83       	st	Z, r24
	sbi(TCCR1, CS10);
#endif
#endif
	// put timer 1 in 8-bit phase correct pwm mode
#if defined(TCCR1A) && defined(WGM10)
	sbi(TCCR1A, WGM10);
    4478:	e0 e8       	ldi	r30, 0x80	; 128
    447a:	f0 e0       	ldi	r31, 0x00	; 0
    447c:	80 81       	ld	r24, Z
    447e:	81 60       	ori	r24, 0x01	; 1
    4480:	80 83       	st	Z, r24

	// set timer 2 prescale factor to 64
#if defined(TCCR2) && defined(CS22)
	sbi(TCCR2, CS22);
#elif defined(TCCR2B) && defined(CS22)
	sbi(TCCR2B, CS22);
    4482:	e1 eb       	ldi	r30, 0xB1	; 177
    4484:	f0 e0       	ldi	r31, 0x00	; 0
    4486:	80 81       	ld	r24, Z
    4488:	84 60       	ori	r24, 0x04	; 4
    448a:	80 83       	st	Z, r24

	// configure timer 2 for phase correct pwm (8-bit)
#if defined(TCCR2) && defined(WGM20)
	sbi(TCCR2, WGM20);
#elif defined(TCCR2A) && defined(WGM20)
	sbi(TCCR2A, WGM20);
    448c:	e0 eb       	ldi	r30, 0xB0	; 176
    448e:	f0 e0       	ldi	r31, 0x00	; 0
    4490:	80 81       	ld	r24, Z
    4492:	81 60       	ori	r24, 0x01	; 1
    4494:	80 83       	st	Z, r24
#if defined(ADCSRA)
	// set a2d prescale factor to 128
	// 16 MHz / 128 = 125 KHz, inside the desired 50-200 KHz range.
	// XXX: this will not work properly for other clock speeds, and
	// this code should use F_CPU to determine the prescale factor.
	sbi(ADCSRA, ADPS2);
    4496:	ea e7       	ldi	r30, 0x7A	; 122
    4498:	f0 e0       	ldi	r31, 0x00	; 0
    449a:	80 81       	ld	r24, Z
    449c:	84 60       	ori	r24, 0x04	; 4
    449e:	80 83       	st	Z, r24
	sbi(ADCSRA, ADPS1);
    44a0:	80 81       	ld	r24, Z
    44a2:	82 60       	ori	r24, 0x02	; 2
    44a4:	80 83       	st	Z, r24
	sbi(ADCSRA, ADPS0);
    44a6:	80 81       	ld	r24, Z
    44a8:	81 60       	ori	r24, 0x01	; 1
    44aa:	80 83       	st	Z, r24

	// enable a2d conversions
	sbi(ADCSRA, ADEN);
    44ac:	80 81       	ld	r24, Z
    44ae:	80 68       	ori	r24, 0x80	; 128
    44b0:	80 83       	st	Z, r24
	// here so they can be used as normal digital i/o; they will be
	// reconnected in Serial.begin()
#if defined(UCSRB)
	UCSRB = 0;
#elif defined(UCSR0B)
	UCSR0B = 0;
    44b2:	10 92 c1 00 	sts	0x00C1, r1
#endif
}
    44b6:	08 95       	ret

000044b8 <pinMode>:
#define ARDUINO_MAIN
#include "wiring_private.h"
#include "pins_arduino.h"

void pinMode(uint8_t pin, uint8_t mode)
{
    44b8:	cf 93       	push	r28
    44ba:	df 93       	push	r29
	uint8_t bit = digitalPinToBitMask(pin);
    44bc:	48 2f       	mov	r20, r24
    44be:	50 e0       	ldi	r21, 0x00	; 0
    44c0:	ca 01       	movw	r24, r20
    44c2:	86 56       	subi	r24, 0x66	; 102
    44c4:	9f 4f       	sbci	r25, 0xFF	; 255
    44c6:	fc 01       	movw	r30, r24
    44c8:	34 91       	lpm	r19, Z+
	uint8_t port = digitalPinToPort(pin);
    44ca:	4a 57       	subi	r20, 0x7A	; 122
    44cc:	5f 4f       	sbci	r21, 0xFF	; 255
    44ce:	fa 01       	movw	r30, r20
    44d0:	84 91       	lpm	r24, Z+
	volatile uint8_t *reg, *out;

	if (port == NOT_A_PIN) return;
    44d2:	88 23       	and	r24, r24
    44d4:	69 f1       	breq	.+90     	; 0x4530 <pinMode+0x78>

	// JWS: can I let the optimizer do this?
	reg = portModeRegister(port);
    44d6:	90 e0       	ldi	r25, 0x00	; 0
    44d8:	88 0f       	add	r24, r24
    44da:	99 1f       	adc	r25, r25
    44dc:	fc 01       	movw	r30, r24
    44de:	e8 59       	subi	r30, 0x98	; 152
    44e0:	ff 4f       	sbci	r31, 0xFF	; 255
    44e2:	a5 91       	lpm	r26, Z+
    44e4:	b4 91       	lpm	r27, Z+
	out = portOutputRegister(port);
    44e6:	fc 01       	movw	r30, r24
    44e8:	ee 58       	subi	r30, 0x8E	; 142
    44ea:	ff 4f       	sbci	r31, 0xFF	; 255
    44ec:	c5 91       	lpm	r28, Z+
    44ee:	d4 91       	lpm	r29, Z+

	if (mode == INPUT) { 
    44f0:	66 23       	and	r22, r22
    44f2:	51 f4       	brne	.+20     	; 0x4508 <pinMode+0x50>
		uint8_t oldSREG = SREG;
    44f4:	2f b7       	in	r18, 0x3f	; 63
                cli();
    44f6:	f8 94       	cli
		*reg &= ~bit;
    44f8:	8c 91       	ld	r24, X
    44fa:	93 2f       	mov	r25, r19
    44fc:	90 95       	com	r25
    44fe:	89 23       	and	r24, r25
    4500:	8c 93       	st	X, r24
		*out &= ~bit;
    4502:	88 81       	ld	r24, Y
    4504:	89 23       	and	r24, r25
    4506:	0b c0       	rjmp	.+22     	; 0x451e <pinMode+0x66>
		SREG = oldSREG;
	} else if (mode == INPUT_PULLUP) {
    4508:	62 30       	cpi	r22, 0x02	; 2
    450a:	61 f4       	brne	.+24     	; 0x4524 <pinMode+0x6c>
		uint8_t oldSREG = SREG;
    450c:	2f b7       	in	r18, 0x3f	; 63
                cli();
    450e:	f8 94       	cli
		*reg &= ~bit;
    4510:	8c 91       	ld	r24, X
    4512:	93 2f       	mov	r25, r19
    4514:	90 95       	com	r25
    4516:	89 23       	and	r24, r25
    4518:	8c 93       	st	X, r24
		*out |= bit;
    451a:	88 81       	ld	r24, Y
    451c:	83 2b       	or	r24, r19
    451e:	88 83       	st	Y, r24
		SREG = oldSREG;
    4520:	2f bf       	out	0x3f, r18	; 63
    4522:	06 c0       	rjmp	.+12     	; 0x4530 <pinMode+0x78>
	} else {
		uint8_t oldSREG = SREG;
    4524:	9f b7       	in	r25, 0x3f	; 63
                cli();
    4526:	f8 94       	cli
		*reg |= bit;
    4528:	8c 91       	ld	r24, X
    452a:	83 2b       	or	r24, r19
    452c:	8c 93       	st	X, r24
		SREG = oldSREG;
    452e:	9f bf       	out	0x3f, r25	; 63
	}
}
    4530:	df 91       	pop	r29
    4532:	cf 91       	pop	r28
    4534:	08 95       	ret

00004536 <digitalWrite>:
	}
}

void digitalWrite(uint8_t pin, uint8_t val)
{
	uint8_t timer = digitalPinToTimer(pin);
    4536:	48 2f       	mov	r20, r24
    4538:	50 e0       	ldi	r21, 0x00	; 0
    453a:	ca 01       	movw	r24, r20
    453c:	82 55       	subi	r24, 0x52	; 82
    453e:	9f 4f       	sbci	r25, 0xFF	; 255
    4540:	fc 01       	movw	r30, r24
    4542:	24 91       	lpm	r18, Z+
	uint8_t bit = digitalPinToBitMask(pin);
    4544:	ca 01       	movw	r24, r20
    4546:	86 56       	subi	r24, 0x66	; 102
    4548:	9f 4f       	sbci	r25, 0xFF	; 255
    454a:	fc 01       	movw	r30, r24
    454c:	94 91       	lpm	r25, Z+
	uint8_t port = digitalPinToPort(pin);
    454e:	4a 57       	subi	r20, 0x7A	; 122
    4550:	5f 4f       	sbci	r21, 0xFF	; 255
    4552:	fa 01       	movw	r30, r20
    4554:	34 91       	lpm	r19, Z+
	volatile uint8_t *out;

	if (port == NOT_A_PIN) return;
    4556:	33 23       	and	r19, r19
    4558:	09 f4       	brne	.+2      	; 0x455c <digitalWrite+0x26>
    455a:	40 c0       	rjmp	.+128    	; 0x45dc <digitalWrite+0xa6>

	// If the pin that support PWM output, we need to turn it off
	// before doing a digital write.
	if (timer != NOT_ON_TIMER) turnOffPWM(timer);
    455c:	22 23       	and	r18, r18
    455e:	51 f1       	breq	.+84     	; 0x45b4 <digitalWrite+0x7e>
//
//static inline void turnOffPWM(uint8_t timer) __attribute__ ((always_inline));
//static inline void turnOffPWM(uint8_t timer)
static void turnOffPWM(uint8_t timer)
{
	switch (timer)
    4560:	23 30       	cpi	r18, 0x03	; 3
    4562:	71 f0       	breq	.+28     	; 0x4580 <digitalWrite+0x4a>
    4564:	24 30       	cpi	r18, 0x04	; 4
    4566:	28 f4       	brcc	.+10     	; 0x4572 <digitalWrite+0x3c>
    4568:	21 30       	cpi	r18, 0x01	; 1
    456a:	a1 f0       	breq	.+40     	; 0x4594 <digitalWrite+0x5e>
    456c:	22 30       	cpi	r18, 0x02	; 2
    456e:	11 f5       	brne	.+68     	; 0x45b4 <digitalWrite+0x7e>
    4570:	14 c0       	rjmp	.+40     	; 0x459a <digitalWrite+0x64>
    4572:	26 30       	cpi	r18, 0x06	; 6
    4574:	b1 f0       	breq	.+44     	; 0x45a2 <digitalWrite+0x6c>
    4576:	27 30       	cpi	r18, 0x07	; 7
    4578:	c1 f0       	breq	.+48     	; 0x45aa <digitalWrite+0x74>
    457a:	24 30       	cpi	r18, 0x04	; 4
    457c:	d9 f4       	brne	.+54     	; 0x45b4 <digitalWrite+0x7e>
    457e:	04 c0       	rjmp	.+8      	; 0x4588 <digitalWrite+0x52>
	{
		#if defined(TCCR1A) && defined(COM1A1)
		case TIMER1A:   cbi(TCCR1A, COM1A1);    break;
    4580:	80 91 80 00 	lds	r24, 0x0080
    4584:	8f 77       	andi	r24, 0x7F	; 127
    4586:	03 c0       	rjmp	.+6      	; 0x458e <digitalWrite+0x58>
		#endif
		#if defined(TCCR1A) && defined(COM1B1)
		case TIMER1B:   cbi(TCCR1A, COM1B1);    break;
    4588:	80 91 80 00 	lds	r24, 0x0080
    458c:	8f 7d       	andi	r24, 0xDF	; 223
    458e:	80 93 80 00 	sts	0x0080, r24
    4592:	10 c0       	rjmp	.+32     	; 0x45b4 <digitalWrite+0x7e>
		#if defined(TCCR2) && defined(COM21)
		case  TIMER2:   cbi(TCCR2, COM21);      break;
		#endif
		
		#if defined(TCCR0A) && defined(COM0A1)
		case  TIMER0A:  cbi(TCCR0A, COM0A1);    break;
    4594:	84 b5       	in	r24, 0x24	; 36
    4596:	8f 77       	andi	r24, 0x7F	; 127
    4598:	02 c0       	rjmp	.+4      	; 0x459e <digitalWrite+0x68>
		#endif
		
		#if defined(TIMER0B) && defined(COM0B1)
		case  TIMER0B:  cbi(TCCR0A, COM0B1);    break;
    459a:	84 b5       	in	r24, 0x24	; 36
    459c:	8f 7d       	andi	r24, 0xDF	; 223
    459e:	84 bd       	out	0x24, r24	; 36
    45a0:	09 c0       	rjmp	.+18     	; 0x45b4 <digitalWrite+0x7e>
		#endif
		#if defined(TCCR2A) && defined(COM2A1)
		case  TIMER2A:  cbi(TCCR2A, COM2A1);    break;
    45a2:	80 91 b0 00 	lds	r24, 0x00B0
    45a6:	8f 77       	andi	r24, 0x7F	; 127
    45a8:	03 c0       	rjmp	.+6      	; 0x45b0 <digitalWrite+0x7a>
		#endif
		#if defined(TCCR2A) && defined(COM2B1)
		case  TIMER2B:  cbi(TCCR2A, COM2B1);    break;
    45aa:	80 91 b0 00 	lds	r24, 0x00B0
    45ae:	8f 7d       	andi	r24, 0xDF	; 223
    45b0:	80 93 b0 00 	sts	0x00B0, r24

	// If the pin that support PWM output, we need to turn it off
	// before doing a digital write.
	if (timer != NOT_ON_TIMER) turnOffPWM(timer);

	out = portOutputRegister(port);
    45b4:	e3 2f       	mov	r30, r19
    45b6:	f0 e0       	ldi	r31, 0x00	; 0
    45b8:	ee 0f       	add	r30, r30
    45ba:	ff 1f       	adc	r31, r31
    45bc:	ee 58       	subi	r30, 0x8E	; 142
    45be:	ff 4f       	sbci	r31, 0xFF	; 255
    45c0:	a5 91       	lpm	r26, Z+
    45c2:	b4 91       	lpm	r27, Z+

	uint8_t oldSREG = SREG;
    45c4:	2f b7       	in	r18, 0x3f	; 63
	cli();
    45c6:	f8 94       	cli

	if (val == LOW) {
    45c8:	66 23       	and	r22, r22
    45ca:	21 f4       	brne	.+8      	; 0x45d4 <digitalWrite+0x9e>
		*out &= ~bit;
    45cc:	8c 91       	ld	r24, X
    45ce:	90 95       	com	r25
    45d0:	89 23       	and	r24, r25
    45d2:	02 c0       	rjmp	.+4      	; 0x45d8 <digitalWrite+0xa2>
	} else {
		*out |= bit;
    45d4:	8c 91       	ld	r24, X
    45d6:	89 2b       	or	r24, r25
    45d8:	8c 93       	st	X, r24
	}

	SREG = oldSREG;
    45da:	2f bf       	out	0x3f, r18	; 63
    45dc:	08 95       	ret

000045de <__mulsi3>:
    45de:	62 9f       	mul	r22, r18
    45e0:	d0 01       	movw	r26, r0
    45e2:	73 9f       	mul	r23, r19
    45e4:	f0 01       	movw	r30, r0
    45e6:	82 9f       	mul	r24, r18
    45e8:	e0 0d       	add	r30, r0
    45ea:	f1 1d       	adc	r31, r1
    45ec:	64 9f       	mul	r22, r20
    45ee:	e0 0d       	add	r30, r0
    45f0:	f1 1d       	adc	r31, r1
    45f2:	92 9f       	mul	r25, r18
    45f4:	f0 0d       	add	r31, r0
    45f6:	83 9f       	mul	r24, r19
    45f8:	f0 0d       	add	r31, r0
    45fa:	74 9f       	mul	r23, r20
    45fc:	f0 0d       	add	r31, r0
    45fe:	65 9f       	mul	r22, r21
    4600:	f0 0d       	add	r31, r0
    4602:	99 27       	eor	r25, r25
    4604:	72 9f       	mul	r23, r18
    4606:	b0 0d       	add	r27, r0
    4608:	e1 1d       	adc	r30, r1
    460a:	f9 1f       	adc	r31, r25
    460c:	63 9f       	mul	r22, r19
    460e:	b0 0d       	add	r27, r0
    4610:	e1 1d       	adc	r30, r1
    4612:	f9 1f       	adc	r31, r25
    4614:	bd 01       	movw	r22, r26
    4616:	cf 01       	movw	r24, r30
    4618:	11 24       	eor	r1, r1
    461a:	08 95       	ret

0000461c <__udivmodhi4>:
    461c:	aa 1b       	sub	r26, r26
    461e:	bb 1b       	sub	r27, r27
    4620:	51 e1       	ldi	r21, 0x11	; 17
    4622:	07 c0       	rjmp	.+14     	; 0x4632 <__udivmodhi4_ep>

00004624 <__udivmodhi4_loop>:
    4624:	aa 1f       	adc	r26, r26
    4626:	bb 1f       	adc	r27, r27
    4628:	a6 17       	cp	r26, r22
    462a:	b7 07       	cpc	r27, r23
    462c:	10 f0       	brcs	.+4      	; 0x4632 <__udivmodhi4_ep>
    462e:	a6 1b       	sub	r26, r22
    4630:	b7 0b       	sbc	r27, r23

00004632 <__udivmodhi4_ep>:
    4632:	88 1f       	adc	r24, r24
    4634:	99 1f       	adc	r25, r25
    4636:	5a 95       	dec	r21
    4638:	a9 f7       	brne	.-22     	; 0x4624 <__udivmodhi4_loop>
    463a:	80 95       	com	r24
    463c:	90 95       	com	r25
    463e:	bc 01       	movw	r22, r24
    4640:	cd 01       	movw	r24, r26
    4642:	08 95       	ret

00004644 <__udivmodsi4>:
    4644:	a1 e2       	ldi	r26, 0x21	; 33
    4646:	1a 2e       	mov	r1, r26
    4648:	aa 1b       	sub	r26, r26
    464a:	bb 1b       	sub	r27, r27
    464c:	fd 01       	movw	r30, r26
    464e:	0d c0       	rjmp	.+26     	; 0x466a <__udivmodsi4_ep>

00004650 <__udivmodsi4_loop>:
    4650:	aa 1f       	adc	r26, r26
    4652:	bb 1f       	adc	r27, r27
    4654:	ee 1f       	adc	r30, r30
    4656:	ff 1f       	adc	r31, r31
    4658:	a2 17       	cp	r26, r18
    465a:	b3 07       	cpc	r27, r19
    465c:	e4 07       	cpc	r30, r20
    465e:	f5 07       	cpc	r31, r21
    4660:	20 f0       	brcs	.+8      	; 0x466a <__udivmodsi4_ep>
    4662:	a2 1b       	sub	r26, r18
    4664:	b3 0b       	sbc	r27, r19
    4666:	e4 0b       	sbc	r30, r20
    4668:	f5 0b       	sbc	r31, r21

0000466a <__udivmodsi4_ep>:
    466a:	66 1f       	adc	r22, r22
    466c:	77 1f       	adc	r23, r23
    466e:	88 1f       	adc	r24, r24
    4670:	99 1f       	adc	r25, r25
    4672:	1a 94       	dec	r1
    4674:	69 f7       	brne	.-38     	; 0x4650 <__udivmodsi4_loop>
    4676:	60 95       	com	r22
    4678:	70 95       	com	r23
    467a:	80 95       	com	r24
    467c:	90 95       	com	r25
    467e:	9b 01       	movw	r18, r22
    4680:	ac 01       	movw	r20, r24
    4682:	bd 01       	movw	r22, r26
    4684:	cf 01       	movw	r24, r30
    4686:	08 95       	ret

00004688 <__divmodsi4>:
    4688:	97 fb       	bst	r25, 7
    468a:	09 2e       	mov	r0, r25
    468c:	05 26       	eor	r0, r21
    468e:	0e d0       	rcall	.+28     	; 0x46ac <__divmodsi4_neg1>
    4690:	57 fd       	sbrc	r21, 7
    4692:	04 d0       	rcall	.+8      	; 0x469c <__divmodsi4_neg2>
    4694:	d7 df       	rcall	.-82     	; 0x4644 <__udivmodsi4>
    4696:	0a d0       	rcall	.+20     	; 0x46ac <__divmodsi4_neg1>
    4698:	00 1c       	adc	r0, r0
    469a:	38 f4       	brcc	.+14     	; 0x46aa <__divmodsi4_exit>

0000469c <__divmodsi4_neg2>:
    469c:	50 95       	com	r21
    469e:	40 95       	com	r20
    46a0:	30 95       	com	r19
    46a2:	21 95       	neg	r18
    46a4:	3f 4f       	sbci	r19, 0xFF	; 255
    46a6:	4f 4f       	sbci	r20, 0xFF	; 255
    46a8:	5f 4f       	sbci	r21, 0xFF	; 255

000046aa <__divmodsi4_exit>:
    46aa:	08 95       	ret

000046ac <__divmodsi4_neg1>:
    46ac:	f6 f7       	brtc	.-4      	; 0x46aa <__divmodsi4_exit>
    46ae:	90 95       	com	r25
    46b0:	80 95       	com	r24
    46b2:	70 95       	com	r23
    46b4:	61 95       	neg	r22
    46b6:	7f 4f       	sbci	r23, 0xFF	; 255
    46b8:	8f 4f       	sbci	r24, 0xFF	; 255
    46ba:	9f 4f       	sbci	r25, 0xFF	; 255
    46bc:	08 95       	ret

000046be <__tablejump2__>:
    46be:	ee 0f       	add	r30, r30
    46c0:	ff 1f       	adc	r31, r31

000046c2 <__tablejump__>:
    46c2:	05 90       	lpm	r0, Z+
    46c4:	f4 91       	lpm	r31, Z+
    46c6:	e0 2d       	mov	r30, r0
    46c8:	09 94       	ijmp

000046ca <_exit>:
    46ca:	f8 94       	cli

000046cc <__stop_program>:
    46cc:	ff cf       	rjmp	.-2      	; 0x46cc <__stop_program>
